---
triple:          'arm64-apple-darwin'
binary-path:     lab2
relocations:
  - { offsetInCU: 0x2F3C, offset: 0x2F3C, size: 0x8, addend: 0x0, symName: __ZNSt3__124__put_character_sequenceB8ue170006IcNS_11char_traitsIcEEEERNS_13basic_ostreamIT_T0_EES7_PKS4_m, symObjAddr: 0x188, symBinAddr: 0x100000914, symSize: 0x1EC }
  - { offsetInCU: 0x48D3, offset: 0x48D3, size: 0x8, addend: 0x0, symName: __ZNSt3__1lsB8ue170006INS_11char_traitsIcEEEERNS_13basic_ostreamIcT_EES6_c, symObjAddr: 0xBC, symBinAddr: 0x100000848, symSize: 0x34 }
  - { offsetInCU: 0x4919, offset: 0x4919, size: 0x8, addend: 0x0, symName: __ZNSt3__116__pad_and_outputB8ue170006IcNS_11char_traitsIcEEEENS_19ostreambuf_iteratorIT_T0_EES6_PKS4_S8_S8_RNS_8ios_baseES4_, symObjAddr: 0x390, symBinAddr: 0x100000B1C, symSize: 0x240 }
  - { offsetInCU: 0x49E8, offset: 0x49E8, size: 0x8, addend: 0x0, symName: __ZNSt3__112__to_addressB8ue170006IcEEPT_S2_, symObjAddr: 0x904, symBinAddr: 0x100001090, symSize: 0x14 }
  - { offsetInCU: 0x4A50, offset: 0x4A50, size: 0x8, addend: 0x0, symName: __ZNSt3__19use_facetB8ue170006INS_5ctypeIcEEEERKT_RKNS_6localeE, symObjAddr: 0xBBC, symBinAddr: 0x100001348, symSize: 0x2C }
  - { offsetInCU: 0x75FA, offset: 0x75FA, size: 0x8, addend: 0x0, symName: __ZlsRNSt3__113basic_ostreamIcNS_11char_traitsIcEEEERK4Suit, symObjAddr: 0x0, symBinAddr: 0x10000078C, symSize: 0xAC }
  - { offsetInCU: 0x7634, offset: 0x7634, size: 0x8, addend: 0x0, symName: __ZppR4Suit, symObjAddr: 0xF0, symBinAddr: 0x10000087C, symSize: 0x98 }
  - { offsetInCU: 0x767E, offset: 0x767E, size: 0x8, addend: 0x0, symName: __ZNKSt3__113basic_ostreamIcNS_11char_traitsIcEEE6sentrycvbB8ue170006Ev, symObjAddr: 0x374, symBinAddr: 0x100000B00, symSize: 0x1C }
  - { offsetInCU: 0x76A2, offset: 0x76A2, size: 0x8, addend: 0x0, symName: __ZNSt3__119ostreambuf_iteratorIcNS_11char_traitsIcEEEC1B8ue170006ERNS_13basic_ostreamIcS2_EE, symObjAddr: 0x5D0, symBinAddr: 0x100000D5C, symSize: 0x34 }
  - { offsetInCU: 0x76D8, offset: 0x76D8, size: 0x8, addend: 0x0, symName: __ZNKSt3__18ios_base5flagsB8ue170006Ev, symObjAddr: 0x604, symBinAddr: 0x100000D90, symSize: 0x18 }
  - { offsetInCU: 0x76FE, offset: 0x76FE, size: 0x8, addend: 0x0, symName: __ZNKSt3__19basic_iosIcNS_11char_traitsIcEEE4fillB8ue170006Ev, symObjAddr: 0x61C, symBinAddr: 0x100000DA8, symSize: 0x64 }
  - { offsetInCU: 0x7724, offset: 0x7724, size: 0x8, addend: 0x0, symName: __ZNKSt3__119ostreambuf_iteratorIcNS_11char_traitsIcEEE6failedB8ue170006Ev, symObjAddr: 0x680, symBinAddr: 0x100000E0C, symSize: 0x24 }
  - { offsetInCU: 0x7748, offset: 0x7748, size: 0x8, addend: 0x0, symName: __ZNSt3__19basic_iosIcNS_11char_traitsIcEEE8setstateB8ue170006Ej, symObjAddr: 0x6A4, symBinAddr: 0x100000E30, symSize: 0x2C }
  - { offsetInCU: 0x777B, offset: 0x777B, size: 0x8, addend: 0x0, symName: __ZNKSt3__18ios_base5widthB8ue170006Ev, symObjAddr: 0x6DC, symBinAddr: 0x100000E68, symSize: 0x18 }
  - { offsetInCU: 0x77A1, offset: 0x77A1, size: 0x8, addend: 0x0, symName: __ZNSt3__115basic_streambufIcNS_11char_traitsIcEEE5sputnB8ue170006EPKcl, symObjAddr: 0x6F4, symBinAddr: 0x100000E80, symSize: 0x3C }
  - { offsetInCU: 0x77E1, offset: 0x77E1, size: 0x8, addend: 0x0, symName: __ZNSt3__112basic_stringIcNS_11char_traitsIcEENS_9allocatorIcEEEC1B8ue170006Emc, symObjAddr: 0x730, symBinAddr: 0x100000EBC, symSize: 0x3C }
  - { offsetInCU: 0x7827, offset: 0x7827, size: 0x8, addend: 0x0, symName: __ZNSt3__112basic_stringIcNS_11char_traitsIcEENS_9allocatorIcEEE4dataB8ue170006Ev, symObjAddr: 0x76C, symBinAddr: 0x100000EF8, symSize: 0x28 }
  - { offsetInCU: 0x784B, offset: 0x784B, size: 0x8, addend: 0x0, symName: __ZNSt3__18ios_base5widthB8ue170006El, symObjAddr: 0x794, symBinAddr: 0x100000F20, symSize: 0x2C }
  - { offsetInCU: 0x788F, offset: 0x788F, size: 0x8, addend: 0x0, symName: __ZNSt3__112basic_stringIcNS_11char_traitsIcEENS_9allocatorIcEEEC2B8ue170006Emc, symObjAddr: 0x7C0, symBinAddr: 0x100000F4C, symSize: 0x4C }
  - { offsetInCU: 0x78DA, offset: 0x78DA, size: 0x8, addend: 0x0, symName: __ZNSt3__117__compressed_pairINS_12basic_stringIcNS_11char_traitsIcEENS_9allocatorIcEEE5__repES5_EC1B8ue170006INS_18__default_init_tagESA_EEOT_OT0_, symObjAddr: 0x80C, symBinAddr: 0x100000F98, symSize: 0x3C }
  - { offsetInCU: 0x7930, offset: 0x7930, size: 0x8, addend: 0x0, symName: __ZNSt3__117__compressed_pairINS_12basic_stringIcNS_11char_traitsIcEENS_9allocatorIcEEE5__repES5_EC2B8ue170006INS_18__default_init_tagESA_EEOT_OT0_, symObjAddr: 0x848, symBinAddr: 0x100000FD4, symSize: 0x3C }
  - { offsetInCU: 0x7986, offset: 0x7986, size: 0x8, addend: 0x0, symName: __ZNSt3__122__compressed_pair_elemINS_12basic_stringIcNS_11char_traitsIcEENS_9allocatorIcEEE5__repELi0ELb0EEC2B8ue170006ENS_18__default_init_tagE, symObjAddr: 0x884, symBinAddr: 0x100001010, symSize: 0x14 }
  - { offsetInCU: 0x79B8, offset: 0x79B8, size: 0x8, addend: 0x0, symName: __ZNSt3__122__compressed_pair_elemINS_9allocatorIcEELi1ELb1EEC2B8ue170006ENS_18__default_init_tagE, symObjAddr: 0x898, symBinAddr: 0x100001024, symSize: 0x2C }
  - { offsetInCU: 0x79EA, offset: 0x79EA, size: 0x8, addend: 0x0, symName: __ZNSt3__19allocatorIcEC2B8ue170006Ev, symObjAddr: 0x8C4, symBinAddr: 0x100001050, symSize: 0x2C }
  - { offsetInCU: 0x7A12, offset: 0x7A12, size: 0x8, addend: 0x0, symName: __ZNSt3__116__non_trivial_ifILb1ENS_9allocatorIcEEEC2B8ue170006Ev, symObjAddr: 0x8F0, symBinAddr: 0x10000107C, symSize: 0x14 }
  - { offsetInCU: 0x7A3A, offset: 0x7A3A, size: 0x8, addend: 0x0, symName: __ZNSt3__112basic_stringIcNS_11char_traitsIcEENS_9allocatorIcEEE13__get_pointerB8ue170006Ev, symObjAddr: 0x918, symBinAddr: 0x1000010A4, symSize: 0x54 }
  - { offsetInCU: 0x7A5E, offset: 0x7A5E, size: 0x8, addend: 0x0, symName: __ZNKSt3__112basic_stringIcNS_11char_traitsIcEENS_9allocatorIcEEE9__is_longB8ue170006Ev, symObjAddr: 0x96C, symBinAddr: 0x1000010F8, symSize: 0x38 }
  - { offsetInCU: 0x7A82, offset: 0x7A82, size: 0x8, addend: 0x0, symName: __ZNSt3__112basic_stringIcNS_11char_traitsIcEENS_9allocatorIcEEE18__get_long_pointerB8ue170006Ev, symObjAddr: 0x9A4, symBinAddr: 0x100001130, symSize: 0x28 }
  - { offsetInCU: 0x7AA6, offset: 0x7AA6, size: 0x8, addend: 0x0, symName: __ZNSt3__112basic_stringIcNS_11char_traitsIcEENS_9allocatorIcEEE19__get_short_pointerB8ue170006Ev, symObjAddr: 0x9CC, symBinAddr: 0x100001158, symSize: 0x28 }
  - { offsetInCU: 0x7ACA, offset: 0x7ACA, size: 0x8, addend: 0x0, symName: __ZNKSt3__117__compressed_pairINS_12basic_stringIcNS_11char_traitsIcEENS_9allocatorIcEEE5__repES5_E5firstB8ue170006Ev, symObjAddr: 0x9F4, symBinAddr: 0x100001180, symSize: 0x24 }
  - { offsetInCU: 0x7AEE, offset: 0x7AEE, size: 0x8, addend: 0x0, symName: __ZNKSt3__122__compressed_pair_elemINS_12basic_stringIcNS_11char_traitsIcEENS_9allocatorIcEEE5__repELi0ELb0EE5__getB8ue170006Ev, symObjAddr: 0xA18, symBinAddr: 0x1000011A4, symSize: 0x14 }
  - { offsetInCU: 0x7B12, offset: 0x7B12, size: 0x8, addend: 0x0, symName: __ZNSt3__117__compressed_pairINS_12basic_stringIcNS_11char_traitsIcEENS_9allocatorIcEEE5__repES5_E5firstB8ue170006Ev, symObjAddr: 0xA2C, symBinAddr: 0x1000011B8, symSize: 0x24 }
  - { offsetInCU: 0x7B36, offset: 0x7B36, size: 0x8, addend: 0x0, symName: __ZNSt3__122__compressed_pair_elemINS_12basic_stringIcNS_11char_traitsIcEENS_9allocatorIcEEE5__repELi0ELb0EE5__getB8ue170006Ev, symObjAddr: 0xA50, symBinAddr: 0x1000011DC, symSize: 0x14 }
  - { offsetInCU: 0x7B5A, offset: 0x7B5A, size: 0x8, addend: 0x0, symName: __ZNSt3__114pointer_traitsIPcE10pointer_toB8ue170006ERc, symObjAddr: 0xA64, symBinAddr: 0x1000011F0, symSize: 0x14 }
  - { offsetInCU: 0x7B7C, offset: 0x7B7C, size: 0x8, addend: 0x0, symName: __ZNSt3__119ostreambuf_iteratorIcNS_11char_traitsIcEEEC2B8ue170006ERNS_13basic_ostreamIcS2_EE, symObjAddr: 0xA78, symBinAddr: 0x100001204, symSize: 0x54 }
  - { offsetInCU: 0x7BB2, offset: 0x7BB2, size: 0x8, addend: 0x0, symName: __ZNKSt3__19basic_iosIcNS_11char_traitsIcEEE5rdbufB8ue170006Ev, symObjAddr: 0xACC, symBinAddr: 0x100001258, symSize: 0x24 }
  - { offsetInCU: 0x7BD8, offset: 0x7BD8, size: 0x8, addend: 0x0, symName: __ZNKSt3__18ios_base5rdbufB8ue170006Ev, symObjAddr: 0xAF0, symBinAddr: 0x10000127C, symSize: 0x18 }
  - { offsetInCU: 0x7BFC, offset: 0x7BFC, size: 0x8, addend: 0x0, symName: __ZNSt3__111char_traitsIcE11eq_int_typeB8ue170006Eii, symObjAddr: 0xB08, symBinAddr: 0x100001294, symSize: 0x28 }
  - { offsetInCU: 0x7C2E, offset: 0x7C2E, size: 0x8, addend: 0x0, symName: __ZNSt3__111char_traitsIcE3eofB8ue170006Ev, symObjAddr: 0xB30, symBinAddr: 0x1000012BC, symSize: 0x8 }
  - { offsetInCU: 0x7C41, offset: 0x7C41, size: 0x8, addend: 0x0, symName: __ZNKSt3__19basic_iosIcNS_11char_traitsIcEEE5widenB8ue170006Ec, symObjAddr: 0xB38, symBinAddr: 0x1000012C4, symSize: 0x84 }
  - { offsetInCU: 0x7CAD, offset: 0x7CAD, size: 0x8, addend: 0x0, symName: __ZNKSt3__15ctypeIcE5widenB8ue170006Ec, symObjAddr: 0xBE8, symBinAddr: 0x100001374, symSize: 0x38 }
  - { offsetInCU: 0x7CE0, offset: 0x7CE0, size: 0x8, addend: 0x0, symName: __ZNSt3__18ios_base8setstateB8ue170006Ej, symObjAddr: 0xC20, symBinAddr: 0x1000013AC, symSize: 0x34 }
  - { offsetInCU: 0x5955, offset: 0xD6C9, size: 0x8, addend: 0x0, symName: __ZNSt3__1lsB8ue170006INS_11char_traitsIcEEEERNS_13basic_ostreamIcT_EES6_PKc, symObjAddr: 0x11C, symBinAddr: 0x1000014C8, symSize: 0x48 }
  - { offsetInCU: 0x59A6, offset: 0xD71A, size: 0x8, addend: 0x0, symName: __ZNSt3__112__to_addressB8ue170006I4CardI12PinochleRank4SuitEEEPT_S6_, symObjAddr: 0xB3C, symBinAddr: 0x100001EDC, symSize: 0x14 }
  - { offsetInCU: 0x59DB, offset: 0xD74F, size: 0x8, addend: 0x0, symName: __ZNSt3__119__libcpp_deallocateB8ue170006EPvmm, symObjAddr: 0xC14, symBinAddr: 0x100001FB4, symSize: 0x60 }
  - { offsetInCU: 0x5A42, offset: 0xD7B6, size: 0x8, addend: 0x0, symName: __ZNSt3__124__is_overaligned_for_newB8ue170006Em, symObjAddr: 0xC74, symBinAddr: 0x100002014, symSize: 0x20 }
  - { offsetInCU: 0x5A71, offset: 0xD7E5, size: 0x8, addend: 0x0, symName: __ZNSt3__127__do_deallocate_handle_sizeB8ue170006IJSt11align_val_tEEEvPvmDpT_, symObjAddr: 0xC94, symBinAddr: 0x100002034, symSize: 0x30 }
  - { offsetInCU: 0x5AC5, offset: 0xD839, size: 0x8, addend: 0x0, symName: __ZNSt3__127__do_deallocate_handle_sizeB8ue170006IJEEEvPvmDpT_, symObjAddr: 0xCC4, symBinAddr: 0x100002064, symSize: 0x28 }
  - { offsetInCU: 0x5B05, offset: 0xD879, size: 0x8, addend: 0x0, symName: __ZNSt3__124__libcpp_operator_deleteB8ue170006IJPvSt11align_val_tEEEvDpT_, symObjAddr: 0xCEC, symBinAddr: 0x10000208C, symSize: 0x2C }
  - { offsetInCU: 0x5B4F, offset: 0xD8C3, size: 0x8, addend: 0x0, symName: __ZNSt3__124__libcpp_operator_deleteB8ue170006IJPvEEEvDpT_, symObjAddr: 0xD18, symBinAddr: 0x1000020B8, symSize: 0x24 }
  - { offsetInCU: 0x5B85, offset: 0xD8F9, size: 0x8, addend: 0x0, symName: __ZNSt3__118__constexpr_strlenB8ue170006EPKc, symObjAddr: 0x18C8, symBinAddr: 0x1000021A8, symSize: 0x24 }
  - { offsetInCU: 0x5BB1, offset: 0xD925, size: 0x8, addend: 0x0, symName: __ZNSt3__13maxB8ue170006ImEERKT_S3_S3_, symObjAddr: 0x1E8C, symBinAddr: 0x10000276C, symSize: 0x2C }
  - { offsetInCU: 0x5BF4, offset: 0xD968, size: 0x8, addend: 0x0, symName: __ZNSt3__13minB8ue170006ImEERKT_S3_S3_, symObjAddr: 0x1EB8, symBinAddr: 0x100002798, symSize: 0x2C }
  - { offsetInCU: 0x5E21, offset: 0xDB95, size: 0x8, addend: 0x0, symName: __ZNSt3__13minB8ue170006ImNS_6__lessIvvEEEERKT_S5_S5_T0_, symObjAddr: 0x1F44, symBinAddr: 0x100002824, symSize: 0x54 }
  - { offsetInCU: 0x5EC2, offset: 0xDC36, size: 0x8, addend: 0x0, symName: __ZNSt3__120__throw_length_errorB8ue170006EPKc, symObjAddr: 0x2020, symBinAddr: 0x100002900, symSize: 0x64 }
  - { offsetInCU: 0x5EED, offset: 0xDC61, size: 0x8, addend: 0x0, symName: __ZNSt3__13maxB8ue170006ImNS_6__lessIvvEEEERKT_S5_S5_T0_, symObjAddr: 0x2104, symBinAddr: 0x1000029E4, symSize: 0x54 }
  - { offsetInCU: 0x5F47, offset: 0xDCBB, size: 0x8, addend: 0x0, symName: __ZNSt3__119__allocate_at_leastB8ue170006INS_9allocatorI4CardI12PinochleRank4SuitEEEEENS_19__allocation_resultINS_16allocator_traitsIT_E7pointerEEERS9_m, symObjAddr: 0x2268, symBinAddr: 0x100002B48, symSize: 0x40 }
  - { offsetInCU: 0x5F8A, offset: 0xDCFE, size: 0x8, addend: 0x0, symName: __ZNSt3__117__libcpp_allocateB8ue170006Emm, symObjAddr: 0x23EC, symBinAddr: 0x100002CCC, symSize: 0x60 }
  - { offsetInCU: 0x5FE5, offset: 0xDD59, size: 0x8, addend: 0x0, symName: __ZNSt3__121__libcpp_operator_newB8ue170006IJmSt11align_val_tEEEPvDpT_, symObjAddr: 0x244C, symBinAddr: 0x100002D2C, symSize: 0x2C }
  - { offsetInCU: 0x6032, offset: 0xDDA6, size: 0x8, addend: 0x0, symName: __ZNSt3__121__libcpp_operator_newB8ue170006IJmEEEPvDpT_, symObjAddr: 0x2478, symBinAddr: 0x100002D58, symSize: 0x24 }
  - { offsetInCU: 0x606B, offset: 0xDDDF, size: 0x8, addend: 0x0, symName: __ZNSt3__142__uninitialized_allocator_move_if_noexceptB8ue170006INS_9allocatorI4CardI12PinochleRank4SuitEEENS_16reverse_iteratorIPS5_EES9_S5_vEET1_RT_T0_SD_SA_, symObjAddr: 0x2500, symBinAddr: 0x100002DE0, symSize: 0x78 }
  - { offsetInCU: 0x60E9, offset: 0xDE5D, size: 0x8, addend: 0x0, symName: __ZNSt3__14swapB8ue170006IP4CardI12PinochleRank4SuitEEENS_9enable_ifIXaasr21is_move_constructibleIT_EE5valuesr18is_move_assignableIS7_EE5valueEvE4typeERS7_SA_, symObjAddr: 0x25C4, symBinAddr: 0x100002EA4, symSize: 0x3C }
  - { offsetInCU: 0x613B, offset: 0xDEAF, size: 0x8, addend: 0x0, symName: __ZNSt3__14moveB8ue170006INS_16reverse_iteratorIP4CardI12PinochleRank4SuitEEES7_EET0_T_S9_S8_, symObjAddr: 0x26AC, symBinAddr: 0x100002F8C, symSize: 0x78 }
  - { offsetInCU: 0x6195, offset: 0xDF09, size: 0x8, addend: 0x0, symName: __ZNSt3__16__moveB8ue170006INS_17_ClassicAlgPolicyENS_16reverse_iteratorIP4CardI12PinochleRank4SuitEEES8_S8_EENS_4pairIT0_T2_EESA_T1_SB_, symObjAddr: 0x2724, symBinAddr: 0x100003004, symSize: 0x64 }
  - { offsetInCU: 0x6201, offset: 0xDF75, size: 0x8, addend: 0x0, symName: __ZNSt3__123__dispatch_copy_or_moveB8ue170006INS_17_ClassicAlgPolicyENS_11__move_loopIS1_EENS_14__move_trivialENS_16reverse_iteratorIP4CardI12PinochleRank4SuitEEESB_SB_EENS_4pairIT2_T4_EESD_T3_SE_, symObjAddr: 0x2788, symBinAddr: 0x100003068, symSize: 0x64 }
  - { offsetInCU: 0x627F, offset: 0xDFF3, size: 0x8, addend: 0x0, symName: __ZNSt3__121__unwrap_and_dispatchB8ue170006INS_10__overloadINS_11__move_loopINS_17_ClassicAlgPolicyEEENS_14__move_trivialEEENS_16reverse_iteratorIP4CardI12PinochleRank4SuitEEESD_SD_Li0EEENS_4pairIT0_T2_EESF_T1_SG_, symObjAddr: 0x27EC, symBinAddr: 0x1000030CC, symSize: 0x12C }
  - { offsetInCU: 0x6312, offset: 0xE086, size: 0x8, addend: 0x0, symName: __ZNSt3__114__unwrap_rangeB8ue170006INS_16reverse_iteratorIP4CardI12PinochleRank4SuitEEES7_EENS_4pairIT0_S9_EET_SB_, symObjAddr: 0x2918, symBinAddr: 0x1000031F8, symSize: 0x84 }
  - { offsetInCU: 0x648E, offset: 0xE202, size: 0x8, addend: 0x0, symName: __ZNSt3__113__unwrap_iterB8ue170006INS_16reverse_iteratorIP4CardI12PinochleRank4SuitEEENS_18__unwrap_iter_implIS7_Lb0EEELi0EEEDTclsrT0_8__unwrapclsr3stdE7declvalIT_EEEESB_, symObjAddr: 0x2A3C, symBinAddr: 0x10000331C, symSize: 0x44 }
  - { offsetInCU: 0x64D3, offset: 0xE247, size: 0x8, addend: 0x0, symName: __ZNSt3__19make_pairB8ue170006INS_16reverse_iteratorIP4CardI12PinochleRank4SuitEEES7_EENS_4pairINS_18__unwrap_ref_decayIT_E4typeENS9_IT0_E4typeEEEOSA_OSD_, symObjAddr: 0x2A80, symBinAddr: 0x100003360, symSize: 0x38 }
  - { offsetInCU: 0x6522, offset: 0xE296, size: 0x8, addend: 0x0, symName: __ZNSt3__114__rewrap_rangeB8ue170006INS_16reverse_iteratorIP4CardI12PinochleRank4SuitEEES7_EET_S8_T0_, symObjAddr: 0x2AB8, symBinAddr: 0x100003398, symSize: 0x5C }
  - { offsetInCU: 0x656E, offset: 0xE2E2, size: 0x8, addend: 0x0, symName: __ZNSt3__113__rewrap_iterB8ue170006INS_16reverse_iteratorIP4CardI12PinochleRank4SuitEEES7_NS_18__unwrap_iter_implIS7_Lb0EEEEET_SA_T0_, symObjAddr: 0x2B14, symBinAddr: 0x1000033F4, symSize: 0x74 }
  - { offsetInCU: 0x65C3, offset: 0xE337, size: 0x8, addend: 0x0, symName: __ZNSt3__1neB8ue170006IP4CardI12PinochleRank4SuitES5_EEbRKNS_16reverse_iteratorIT_EERKNS6_IT0_EE, symObjAddr: 0x2B88, symBinAddr: 0x100003468, symSize: 0x48 }
  - { offsetInCU: 0x68D8, offset: 0xE64C, size: 0x8, addend: 0x0, symName: __ZSt28__throw_bad_array_new_lengthB8ue170006v, symObjAddr: 0x23B8, symBinAddr: 0x100002C98, symSize: 0x34 }
  - { offsetInCU: 0x6DC4, offset: 0xEB38, size: 0x8, addend: 0x0, symName: __ZNSt3__16vectorI4CardI12PinochleRank4SuitENS_9allocatorIS4_EEE26__swap_out_circular_bufferERNS_14__split_bufferIS4_RS6_EE, symObjAddr: 0x1CD4, symBinAddr: 0x1000025B4, symSize: 0x110 }
  - { offsetInCU: 0x8B96, offset: 0x1090A, size: 0x8, addend: 0x0, symName: __ZlsRNSt3__113basic_ostreamIcNS_11char_traitsIcEEEERK12PinochleRank, symObjAddr: 0x0, symBinAddr: 0x1000013E0, symSize: 0xD0 }
  - { offsetInCU: 0x8BD0, offset: 0x10944, size: 0x8, addend: 0x0, symName: __ZppR12PinochleRank, symObjAddr: 0x164, symBinAddr: 0x100001510, symSize: 0xAC }
  - { offsetInCU: 0x8D8C, offset: 0x10B00, size: 0x8, addend: 0x0, symName: __ZN12PinochleDeckC2Ev, symObjAddr: 0x224, symBinAddr: 0x1000015D0, symSize: 0x130 }
  - { offsetInCU: 0x8DEA, offset: 0x10B5E, size: 0x8, addend: 0x0, symName: __ZN4DeckI12PinochleRank4SuitEC2Ev, symObjAddr: 0x354, symBinAddr: 0x100001700, symSize: 0x44 }
  - { offsetInCU: 0x8E14, offset: 0x10B88, size: 0x8, addend: 0x0, symName: __ZNSt3__16vectorI4CardI12PinochleRank4SuitENS_9allocatorIS4_EEE9push_backB8ue170006EOS4_, symObjAddr: 0x398, symBinAddr: 0x100001744, symSize: 0x6C }
  - { offsetInCU: 0x8E4A, offset: 0x10BBE, size: 0x8, addend: 0x0, symName: __ZN4CardI12PinochleRank4SuitEC1ES0_S1_, symObjAddr: 0x404, symBinAddr: 0x1000017B0, symSize: 0x3C }
  - { offsetInCU: 0x8E91, offset: 0x10C05, size: 0x8, addend: 0x0, symName: __ZN4DeckI12PinochleRank4SuitED2Ev, symObjAddr: 0x440, symBinAddr: 0x1000017EC, symSize: 0x2C }
  - { offsetInCU: 0x8EBC, offset: 0x10C30, size: 0x8, addend: 0x0, symName: __ZN12PinochleDeckC1Ev, symObjAddr: 0x46C, symBinAddr: 0x100001818, symSize: 0x2C }
  - { offsetInCU: 0x8EE7, offset: 0x10C5B, size: 0x8, addend: 0x0, symName: __ZN12PinochleDeckD1Ev, symObjAddr: 0x498, symBinAddr: 0x100001844, symSize: 0x2C }
  - { offsetInCU: 0x8F12, offset: 0x10C86, size: 0x8, addend: 0x0, symName: __ZN12PinochleDeckD0Ev, symObjAddr: 0x4C4, symBinAddr: 0x100001870, symSize: 0x30 }
  - { offsetInCU: 0x8F3D, offset: 0x10CB1, size: 0x8, addend: 0x0, symName: __ZN7CardSetI12PinochleRank4SuitEC2Ev, symObjAddr: 0x4F4, symBinAddr: 0x1000018A0, symSize: 0x40 }
  - { offsetInCU: 0x8F68, offset: 0x10CDC, size: 0x8, addend: 0x0, symName: __ZN4DeckI12PinochleRank4SuitED1Ev, symObjAddr: 0x534, symBinAddr: 0x1000018E0, symSize: 0x2C }
  - { offsetInCU: 0x8F93, offset: 0x10D07, size: 0x8, addend: 0x0, symName: __ZN4DeckI12PinochleRank4SuitED0Ev, symObjAddr: 0x560, symBinAddr: 0x10000190C, symSize: 0x30 }
  - { offsetInCU: 0x8FBE, offset: 0x10D32, size: 0x8, addend: 0x0, symName: __ZNSt3__16vectorI4CardI12PinochleRank4SuitENS_9allocatorIS4_EEEC1B8ue170006Ev, symObjAddr: 0x590, symBinAddr: 0x10000193C, symSize: 0x2C }
  - { offsetInCU: 0x8FE6, offset: 0x10D5A, size: 0x8, addend: 0x0, symName: __ZN7CardSetI12PinochleRank4SuitED1Ev, symObjAddr: 0x5BC, symBinAddr: 0x100001968, symSize: 0x2C }
  - { offsetInCU: 0x900E, offset: 0x10D82, size: 0x8, addend: 0x0, symName: __ZN7CardSetI12PinochleRank4SuitED0Ev, symObjAddr: 0x5E8, symBinAddr: 0x100001994, symSize: 0x30 }
  - { offsetInCU: 0x9036, offset: 0x10DAA, size: 0x8, addend: 0x0, symName: __ZNSt3__16vectorI4CardI12PinochleRank4SuitENS_9allocatorIS4_EEEC2B8ue170006Ev, symObjAddr: 0x618, symBinAddr: 0x1000019C4, symSize: 0x4C }
  - { offsetInCU: 0x9068, offset: 0x10DDC, size: 0x8, addend: 0x0, symName: __ZNSt3__117__compressed_pairIP4CardI12PinochleRank4SuitENS_9allocatorIS4_EEEC1B8ue170006IDnNS_18__default_init_tagEEEOT_OT0_, symObjAddr: 0x664, symBinAddr: 0x100001A10, symSize: 0x3C }
  - { offsetInCU: 0x90BE, offset: 0x10E32, size: 0x8, addend: 0x0, symName: __ZNSt3__117__compressed_pairIP4CardI12PinochleRank4SuitENS_9allocatorIS4_EEEC2B8ue170006IDnNS_18__default_init_tagEEEOT_OT0_, symObjAddr: 0x6AC, symBinAddr: 0x100001A4C, symSize: 0x40 }
  - { offsetInCU: 0x9114, offset: 0x10E88, size: 0x8, addend: 0x0, symName: __ZNSt3__122__compressed_pair_elemIP4CardI12PinochleRank4SuitELi0ELb0EEC2B8ue170006IDnvEEOT_, symObjAddr: 0x6EC, symBinAddr: 0x100001A8C, symSize: 0x1C }
  - { offsetInCU: 0x9154, offset: 0x10EC8, size: 0x8, addend: 0x0, symName: __ZNSt3__122__compressed_pair_elemINS_9allocatorI4CardI12PinochleRank4SuitEEELi1ELb1EEC2B8ue170006ENS_18__default_init_tagE, symObjAddr: 0x708, symBinAddr: 0x100001AA8, symSize: 0x2C }
  - { offsetInCU: 0x9186, offset: 0x10EFA, size: 0x8, addend: 0x0, symName: __ZNSt3__19allocatorI4CardI12PinochleRank4SuitEEC2B8ue170006Ev, symObjAddr: 0x734, symBinAddr: 0x100001AD4, symSize: 0x2C }
  - { offsetInCU: 0x91AE, offset: 0x10F22, size: 0x8, addend: 0x0, symName: __ZNSt3__116__non_trivial_ifILb1ENS_9allocatorI4CardI12PinochleRank4SuitEEEEC2B8ue170006Ev, symObjAddr: 0x760, symBinAddr: 0x100001B00, symSize: 0x14 }
  - { offsetInCU: 0x91D6, offset: 0x10F4A, size: 0x8, addend: 0x0, symName: __ZN7CardSetI12PinochleRank4SuitED2Ev, symObjAddr: 0x774, symBinAddr: 0x100001B14, symSize: 0x40 }
  - { offsetInCU: 0x91FE, offset: 0x10F72, size: 0x8, addend: 0x0, symName: __ZNSt3__16vectorI4CardI12PinochleRank4SuitENS_9allocatorIS4_EEED1B8ue170006Ev, symObjAddr: 0x7B4, symBinAddr: 0x100001B54, symSize: 0x2C }
  - { offsetInCU: 0x9226, offset: 0x10F9A, size: 0x8, addend: 0x0, symName: __ZNSt3__16vectorI4CardI12PinochleRank4SuitENS_9allocatorIS4_EEED2B8ue170006Ev, symObjAddr: 0x7E0, symBinAddr: 0x100001B80, symSize: 0x44 }
  - { offsetInCU: 0x924E, offset: 0x10FC2, size: 0x8, addend: 0x0, symName: __ZNSt3__16vectorI4CardI12PinochleRank4SuitENS_9allocatorIS4_EEE16__destroy_vectorC1B8ue170006ERS7_, symObjAddr: 0x824, symBinAddr: 0x100001BC4, symSize: 0x34 }
  - { offsetInCU: 0x9285, offset: 0x10FF9, size: 0x8, addend: 0x0, symName: __ZNSt3__16vectorI4CardI12PinochleRank4SuitENS_9allocatorIS4_EEE16__destroy_vectorclB8ue170006Ev, symObjAddr: 0x858, symBinAddr: 0x100001BF8, symSize: 0x90 }
  - { offsetInCU: 0x92A9, offset: 0x1101D, size: 0x8, addend: 0x0, symName: __ZNSt3__16vectorI4CardI12PinochleRank4SuitENS_9allocatorIS4_EEE16__destroy_vectorC2B8ue170006ERS7_, symObjAddr: 0x8E8, symBinAddr: 0x100001C88, symSize: 0x20 }
  - { offsetInCU: 0x92E0, offset: 0x11054, size: 0x8, addend: 0x0, symName: __ZNSt3__16vectorI4CardI12PinochleRank4SuitENS_9allocatorIS4_EEE7__clearB8ue170006Ev, symObjAddr: 0x908, symBinAddr: 0x100001CA8, symSize: 0x28 }
  - { offsetInCU: 0x9304, offset: 0x11078, size: 0x8, addend: 0x0, symName: __ZNKSt3__16vectorI4CardI12PinochleRank4SuitENS_9allocatorIS4_EEE17__annotate_deleteB8ue170006Ev, symObjAddr: 0x930, symBinAddr: 0x100001CD0, symSize: 0xB8 }
  - { offsetInCU: 0x9328, offset: 0x1109C, size: 0x8, addend: 0x0, symName: __ZNSt3__116allocator_traitsINS_9allocatorI4CardI12PinochleRank4SuitEEEE10deallocateB8ue170006ERS6_PS5_m, symObjAddr: 0x9E8, symBinAddr: 0x100001D88, symSize: 0x34 }
  - { offsetInCU: 0x936A, offset: 0x110DE, size: 0x8, addend: 0x0, symName: __ZNSt3__16vectorI4CardI12PinochleRank4SuitENS_9allocatorIS4_EEE7__allocB8ue170006Ev, symObjAddr: 0xA1C, symBinAddr: 0x100001DBC, symSize: 0x28 }
  - { offsetInCU: 0x938E, offset: 0x11102, size: 0x8, addend: 0x0, symName: __ZNKSt3__16vectorI4CardI12PinochleRank4SuitENS_9allocatorIS4_EEE8capacityB8ue170006Ev, symObjAddr: 0xA44, symBinAddr: 0x100001DE4, symSize: 0x40 }
  - { offsetInCU: 0x93B2, offset: 0x11126, size: 0x8, addend: 0x0, symName: __ZNSt3__16vectorI4CardI12PinochleRank4SuitENS_9allocatorIS4_EEE22__base_destruct_at_endB8ue170006EPS4_, symObjAddr: 0xA84, symBinAddr: 0x100001E24, symSize: 0x8C }
  - { offsetInCU: 0x93F4, offset: 0x11168, size: 0x8, addend: 0x0, symName: __ZNSt3__116allocator_traitsINS_9allocatorI4CardI12PinochleRank4SuitEEEE7destroyB8ue170006IS5_vEEvRS6_PT_, symObjAddr: 0xB10, symBinAddr: 0x100001EB0, symSize: 0x2C }
  - { offsetInCU: 0x9431, offset: 0x111A5, size: 0x8, addend: 0x0, symName: __ZNSt3__19allocatorI4CardI12PinochleRank4SuitEE7destroyB8ue170006EPS4_, symObjAddr: 0xB50, symBinAddr: 0x100001EF0, symSize: 0x14 }
  - { offsetInCU: 0x9463, offset: 0x111D7, size: 0x8, addend: 0x0, symName: __ZNKSt3__16vectorI4CardI12PinochleRank4SuitENS_9allocatorIS4_EEE31__annotate_contiguous_containerB8ue170006EPKvS9_S9_S9_, symObjAddr: 0xB64, symBinAddr: 0x100001F04, symSize: 0x20 }
  - { offsetInCU: 0x94B7, offset: 0x1122B, size: 0x8, addend: 0x0, symName: __ZNKSt3__16vectorI4CardI12PinochleRank4SuitENS_9allocatorIS4_EEE4dataB8ue170006Ev, symObjAddr: 0xB84, symBinAddr: 0x100001F24, symSize: 0x28 }
  - { offsetInCU: 0x94DB, offset: 0x1124F, size: 0x8, addend: 0x0, symName: __ZNKSt3__16vectorI4CardI12PinochleRank4SuitENS_9allocatorIS4_EEE4sizeB8ue170006Ev, symObjAddr: 0xBAC, symBinAddr: 0x100001F4C, symSize: 0x28 }
  - { offsetInCU: 0x94FF, offset: 0x11273, size: 0x8, addend: 0x0, symName: __ZNSt3__19allocatorI4CardI12PinochleRank4SuitEE10deallocateB8ue170006EPS4_m, symObjAddr: 0xBD4, symBinAddr: 0x100001F74, symSize: 0x40 }
  - { offsetInCU: 0x953F, offset: 0x112B3, size: 0x8, addend: 0x0, symName: __ZNSt3__117__compressed_pairIP4CardI12PinochleRank4SuitENS_9allocatorIS4_EEE6secondB8ue170006Ev, symObjAddr: 0xD3C, symBinAddr: 0x1000020DC, symSize: 0x24 }
  - { offsetInCU: 0x9563, offset: 0x112D7, size: 0x8, addend: 0x0, symName: __ZNSt3__122__compressed_pair_elemINS_9allocatorI4CardI12PinochleRank4SuitEEELi1ELb1EE5__getB8ue170006Ev, symObjAddr: 0xD60, symBinAddr: 0x100002100, symSize: 0x14 }
  - { offsetInCU: 0x9587, offset: 0x112FB, size: 0x8, addend: 0x0, symName: __ZNKSt3__16vectorI4CardI12PinochleRank4SuitENS_9allocatorIS4_EEE9__end_capB8ue170006Ev, symObjAddr: 0xD74, symBinAddr: 0x100002114, symSize: 0x28 }
  - { offsetInCU: 0x95AB, offset: 0x1131F, size: 0x8, addend: 0x0, symName: __ZNKSt3__117__compressed_pairIP4CardI12PinochleRank4SuitENS_9allocatorIS4_EEE5firstB8ue170006Ev, symObjAddr: 0xD9C, symBinAddr: 0x10000213C, symSize: 0x24 }
  - { offsetInCU: 0x95CF, offset: 0x11343, size: 0x8, addend: 0x0, symName: __ZNKSt3__122__compressed_pair_elemIP4CardI12PinochleRank4SuitELi0ELb0EE5__getB8ue170006Ev, symObjAddr: 0xDC0, symBinAddr: 0x100002160, symSize: 0x14 }
  - { offsetInCU: 0x9611, offset: 0x11385, size: 0x8, addend: 0x0, symName: __ZNSt3__111char_traitsIcE6lengthB8ue170006EPKc, symObjAddr: 0x1894, symBinAddr: 0x100002174, symSize: 0x34 }
  - { offsetInCU: 0x9634, offset: 0x113A8, size: 0x8, addend: 0x0, symName: __ZNSt3__16vectorI4CardI12PinochleRank4SuitENS_9allocatorIS4_EEE9__end_capB8ue170006Ev, symObjAddr: 0x18EC, symBinAddr: 0x1000021CC, symSize: 0x28 }
  - { offsetInCU: 0x965D, offset: 0x113D1, size: 0x8, addend: 0x0, symName: __ZNSt3__16vectorI4CardI12PinochleRank4SuitENS_9allocatorIS4_EEE22__construct_one_at_endB8ue170006IJS4_EEEvDpOT_, symObjAddr: 0x1914, symBinAddr: 0x1000021F4, symSize: 0x90 }
  - { offsetInCU: 0x96A9, offset: 0x1141D, size: 0x8, addend: 0x0, symName: __ZNSt3__16vectorI4CardI12PinochleRank4SuitENS_9allocatorIS4_EEE21__push_back_slow_pathIS4_EEvOT_, symObjAddr: 0x19A4, symBinAddr: 0x100002284, symSize: 0xD8 }
  - { offsetInCU: 0x9706, offset: 0x1147A, size: 0x8, addend: 0x0, symName: __ZNSt3__117__compressed_pairIP4CardI12PinochleRank4SuitENS_9allocatorIS4_EEE5firstB8ue170006Ev, symObjAddr: 0x1A7C, symBinAddr: 0x10000235C, symSize: 0x24 }
  - { offsetInCU: 0x972A, offset: 0x1149E, size: 0x8, addend: 0x0, symName: __ZNSt3__122__compressed_pair_elemIP4CardI12PinochleRank4SuitELi0ELb0EE5__getB8ue170006Ev, symObjAddr: 0x1AA0, symBinAddr: 0x100002380, symSize: 0x14 }
  - { offsetInCU: 0x9767, offset: 0x114DB, size: 0x8, addend: 0x0, symName: __ZNSt3__16vectorI4CardI12PinochleRank4SuitENS_9allocatorIS4_EEE21_ConstructTransactionC1B8ue170006ERS7_m, symObjAddr: 0x1AB4, symBinAddr: 0x100002394, symSize: 0x3C }
  - { offsetInCU: 0x97AD, offset: 0x11521, size: 0x8, addend: 0x0, symName: __ZNSt3__116allocator_traitsINS_9allocatorI4CardI12PinochleRank4SuitEEEE9constructB8ue170006IS5_JS5_EvEEvRS6_PT_DpOT0_, symObjAddr: 0x1AF0, symBinAddr: 0x1000023D0, symSize: 0x34 }
  - { offsetInCU: 0x9804, offset: 0x11578, size: 0x8, addend: 0x0, symName: __ZNSt3__16vectorI4CardI12PinochleRank4SuitENS_9allocatorIS4_EEE21_ConstructTransactionD1B8ue170006Ev, symObjAddr: 0x1B24, symBinAddr: 0x100002404, symSize: 0x2C }
  - { offsetInCU: 0x982C, offset: 0x115A0, size: 0x8, addend: 0x0, symName: __ZNSt3__16vectorI4CardI12PinochleRank4SuitENS_9allocatorIS4_EEE21_ConstructTransactionC2B8ue170006ERS7_m, symObjAddr: 0x1B50, symBinAddr: 0x100002430, symSize: 0x44 }
  - { offsetInCU: 0x9872, offset: 0x115E6, size: 0x8, addend: 0x0, symName: __ZNSt3__19allocatorI4CardI12PinochleRank4SuitEE9constructB8ue170006IS4_JS4_EEEvPT_DpOT0_, symObjAddr: 0x1B94, symBinAddr: 0x100002474, symSize: 0x28 }
  - { offsetInCU: 0x98C6, offset: 0x1163A, size: 0x8, addend: 0x0, symName: __ZNSt3__16vectorI4CardI12PinochleRank4SuitENS_9allocatorIS4_EEE21_ConstructTransactionD2B8ue170006Ev, symObjAddr: 0x1BBC, symBinAddr: 0x10000249C, symSize: 0x20 }
  - { offsetInCU: 0x98ED, offset: 0x11661, size: 0x8, addend: 0x0, symName: __ZNKSt3__16vectorI4CardI12PinochleRank4SuitENS_9allocatorIS4_EEE11__recommendB8ue170006Em, symObjAddr: 0x1BDC, symBinAddr: 0x1000024BC, symSize: 0xB4 }
  - { offsetInCU: 0x9941, offset: 0x116B5, size: 0x8, addend: 0x0, symName: __ZNSt3__114__split_bufferI4CardI12PinochleRank4SuitERNS_9allocatorIS4_EEEC1EmmS7_, symObjAddr: 0x1C90, symBinAddr: 0x100002570, symSize: 0x44 }
  - { offsetInCU: 0x9996, offset: 0x1170A, size: 0x8, addend: 0x0, symName: __ZNSt3__114__split_bufferI4CardI12PinochleRank4SuitERNS_9allocatorIS4_EEED1Ev, symObjAddr: 0x1DE4, symBinAddr: 0x1000026C4, symSize: 0x2C }
  - { offsetInCU: 0x99C0, offset: 0x11734, size: 0x8, addend: 0x0, symName: __ZNKSt3__16vectorI4CardI12PinochleRank4SuitENS_9allocatorIS4_EEE8max_sizeEv, symObjAddr: 0x1E10, symBinAddr: 0x1000026F0, symSize: 0x60 }
  - { offsetInCU: 0x99E7, offset: 0x1175B, size: 0x8, addend: 0x0, symName: __ZNKSt3__16vectorI4CardI12PinochleRank4SuitENS_9allocatorIS4_EEE20__throw_length_errorB8ue170006Ev, symObjAddr: 0x1E70, symBinAddr: 0x100002750, symSize: 0x1C }
  - { offsetInCU: 0x9A15, offset: 0x11789, size: 0x8, addend: 0x0, symName: __ZNSt3__116allocator_traitsINS_9allocatorI4CardI12PinochleRank4SuitEEEE8max_sizeB8ue170006IS6_vEEmRKS6_, symObjAddr: 0x1EE4, symBinAddr: 0x1000027C4, symSize: 0x24 }
  - { offsetInCU: 0x9A43, offset: 0x117B7, size: 0x8, addend: 0x0, symName: __ZNKSt3__16vectorI4CardI12PinochleRank4SuitENS_9allocatorIS4_EEE7__allocB8ue170006Ev, symObjAddr: 0x1F08, symBinAddr: 0x1000027E8, symSize: 0x28 }
  - { offsetInCU: 0x9A67, offset: 0x117DB, size: 0x8, addend: 0x0, symName: __ZNSt3__114numeric_limitsIlE3maxB8ue170006Ev, symObjAddr: 0x1F30, symBinAddr: 0x100002810, symSize: 0x14 }
  - { offsetInCU: 0x9A8F, offset: 0x11803, size: 0x8, addend: 0x0, symName: __ZNKSt3__16__lessIvvEclB8ue170006ImmEEbRKT_RKT0_, symObjAddr: 0x1F98, symBinAddr: 0x100002878, symSize: 0x34 }
  - { offsetInCU: 0x9AE1, offset: 0x11855, size: 0x8, addend: 0x0, symName: __ZNKSt3__19allocatorI4CardI12PinochleRank4SuitEE8max_sizeB8ue170006Ev, symObjAddr: 0x1FCC, symBinAddr: 0x1000028AC, symSize: 0x14 }
  - { offsetInCU: 0x9B05, offset: 0x11879, size: 0x8, addend: 0x0, symName: __ZNKSt3__117__compressed_pairIP4CardI12PinochleRank4SuitENS_9allocatorIS4_EEE6secondB8ue170006Ev, symObjAddr: 0x1FE0, symBinAddr: 0x1000028C0, symSize: 0x24 }
  - { offsetInCU: 0x9B29, offset: 0x1189D, size: 0x8, addend: 0x0, symName: __ZNKSt3__122__compressed_pair_elemINS_9allocatorI4CardI12PinochleRank4SuitEEELi1ELb1EE5__getB8ue170006Ev, symObjAddr: 0x2004, symBinAddr: 0x1000028E4, symSize: 0x14 }
  - { offsetInCU: 0x9B4D, offset: 0x118C1, size: 0x8, addend: 0x0, symName: __ZNSt3__123__libcpp_numeric_limitsIlLb1EE3maxB8ue170006Ev, symObjAddr: 0x2018, symBinAddr: 0x1000028F8, symSize: 0x8 }
  - { offsetInCU: 0x9B60, offset: 0x118D4, size: 0x8, addend: 0x0, symName: __ZNSt12length_errorC1B8ue170006EPKc, symObjAddr: 0x2084, symBinAddr: 0x100002964, symSize: 0x34 }
  - { offsetInCU: 0x9B96, offset: 0x1190A, size: 0x8, addend: 0x0, symName: __ZNSt12length_errorC2B8ue170006EPKc, symObjAddr: 0x20B8, symBinAddr: 0x100002998, symSize: 0x4C }
  - { offsetInCU: 0x9BCC, offset: 0x11940, size: 0x8, addend: 0x0, symName: __ZNSt3__114__split_bufferI4CardI12PinochleRank4SuitERNS_9allocatorIS4_EEEC2EmmS7_, symObjAddr: 0x2158, symBinAddr: 0x100002A38, symSize: 0xD4 }
  - { offsetInCU: 0x9C3F, offset: 0x119B3, size: 0x8, addend: 0x0, symName: __ZNSt3__117__compressed_pairIP4CardI12PinochleRank4SuitERNS_9allocatorIS4_EEEC1B8ue170006IDnS8_EEOT_OT0_, symObjAddr: 0x222C, symBinAddr: 0x100002B0C, symSize: 0x3C }
  - { offsetInCU: 0x9C95, offset: 0x11A09, size: 0x8, addend: 0x0, symName: __ZNSt3__114__split_bufferI4CardI12PinochleRank4SuitERNS_9allocatorIS4_EEE7__allocB8ue170006Ev, symObjAddr: 0x22A8, symBinAddr: 0x100002B88, symSize: 0x28 }
  - { offsetInCU: 0x9CB9, offset: 0x11A2D, size: 0x8, addend: 0x0, symName: __ZNSt3__114__split_bufferI4CardI12PinochleRank4SuitERNS_9allocatorIS4_EEE9__end_capB8ue170006Ev, symObjAddr: 0x22D0, symBinAddr: 0x100002BB0, symSize: 0x28 }
  - { offsetInCU: 0x9CDD, offset: 0x11A51, size: 0x8, addend: 0x0, symName: __ZNSt3__117__compressed_pairIP4CardI12PinochleRank4SuitERNS_9allocatorIS4_EEEC2B8ue170006IDnS8_EEOT_OT0_, symObjAddr: 0x22F8, symBinAddr: 0x100002BD8, symSize: 0x48 }
  - { offsetInCU: 0x9D33, offset: 0x11AA7, size: 0x8, addend: 0x0, symName: __ZNSt3__122__compressed_pair_elemIRNS_9allocatorI4CardI12PinochleRank4SuitEEELi1ELb0EEC2B8ue170006IS7_vEEOT_, symObjAddr: 0x2340, symBinAddr: 0x100002C20, symSize: 0x20 }
  - { offsetInCU: 0x9D73, offset: 0x11AE7, size: 0x8, addend: 0x0, symName: __ZNSt3__19allocatorI4CardI12PinochleRank4SuitEE8allocateB8ue170006Em, symObjAddr: 0x2360, symBinAddr: 0x100002C40, symSize: 0x58 }
  - { offsetInCU: 0x9DA5, offset: 0x11B19, size: 0x8, addend: 0x0, symName: __ZNSt3__117__compressed_pairIP4CardI12PinochleRank4SuitERNS_9allocatorIS4_EEE6secondB8ue170006Ev, symObjAddr: 0x249C, symBinAddr: 0x100002D7C, symSize: 0x28 }
  - { offsetInCU: 0x9DC9, offset: 0x11B3D, size: 0x8, addend: 0x0, symName: __ZNSt3__122__compressed_pair_elemIRNS_9allocatorI4CardI12PinochleRank4SuitEEELi1ELb0EE5__getB8ue170006Ev, symObjAddr: 0x24C4, symBinAddr: 0x100002DA4, symSize: 0x18 }
  - { offsetInCU: 0x9DED, offset: 0x11B61, size: 0x8, addend: 0x0, symName: __ZNSt3__117__compressed_pairIP4CardI12PinochleRank4SuitERNS_9allocatorIS4_EEE5firstB8ue170006Ev, symObjAddr: 0x24DC, symBinAddr: 0x100002DBC, symSize: 0x24 }
  - { offsetInCU: 0x9E11, offset: 0x11B85, size: 0x8, addend: 0x0, symName: __ZNSt3__116reverse_iteratorIP4CardI12PinochleRank4SuitEEC1B8ue170006ES5_, symObjAddr: 0x2578, symBinAddr: 0x100002E58, symSize: 0x34 }
  - { offsetInCU: 0x9E47, offset: 0x11BBB, size: 0x8, addend: 0x0, symName: __ZNKSt3__116reverse_iteratorIP4CardI12PinochleRank4SuitEE4baseB8ue170006Ev, symObjAddr: 0x25AC, symBinAddr: 0x100002E8C, symSize: 0x18 }
  - { offsetInCU: 0x9E6B, offset: 0x11BDF, size: 0x8, addend: 0x0, symName: __ZNKSt3__16vectorI4CardI12PinochleRank4SuitENS_9allocatorIS4_EEE14__annotate_newB8ue170006Em, symObjAddr: 0x2600, symBinAddr: 0x100002EE0, symSize: 0xAC }
  - { offsetInCU: 0x9EC1, offset: 0x11C35, size: 0x8, addend: 0x0, symName: __ZNKSt3__111__move_loopINS_17_ClassicAlgPolicyEEclB8ue170006INS_16reverse_iteratorIP4CardI12PinochleRank4SuitEEESA_SA_EENS_4pairIT_T1_EESC_T0_SD_, symObjAddr: 0x299C, symBinAddr: 0x10000327C, symSize: 0xA0 }
  - { offsetInCU: 0x9F2A, offset: 0x11C9E, size: 0x8, addend: 0x0, symName: __ZNSt3__18_IterOpsINS_17_ClassicAlgPolicyEE11__iter_moveB8ue170006IRNS_16reverse_iteratorIP4CardI12PinochleRank4SuitEEEEENS_9enable_ifIXsr12is_referenceIDTdeclsr3stdE7declvalIRT_EEEEE5valueEDTclsr3stdE4movedeclsr3stdE7declvalISE_EEEEE4typeEOSD_, symObjAddr: 0x2BD0, symBinAddr: 0x1000034B0, symSize: 0x28 }
  - { offsetInCU: 0x9F56, offset: 0x11CCA, size: 0x8, addend: 0x0, symName: __ZNKSt3__116reverse_iteratorIP4CardI12PinochleRank4SuitEEdeB8ue170006Ev, symObjAddr: 0x2BF8, symBinAddr: 0x1000034D8, symSize: 0x28 }
  - { offsetInCU: 0x9F89, offset: 0x11CFD, size: 0x8, addend: 0x0, symName: __ZNSt3__116reverse_iteratorIP4CardI12PinochleRank4SuitEEppB8ue170006Ev, symObjAddr: 0x2C20, symBinAddr: 0x100003500, symSize: 0x20 }
  - { offsetInCU: 0x9FAD, offset: 0x11D21, size: 0x8, addend: 0x0, symName: __ZNSt3__18_IterOpsINS_17_ClassicAlgPolicyEE25__validate_iter_referenceB8ue170006IRNS_16reverse_iteratorIP4CardI12PinochleRank4SuitEEEEEvv, symObjAddr: 0x2C40, symBinAddr: 0x100003520, symSize: 0x4 }
  - { offsetInCU: 0x9FCA, offset: 0x11D3E, size: 0x8, addend: 0x0, symName: __ZNSt3__118__unwrap_iter_implINS_16reverse_iteratorIP4CardI12PinochleRank4SuitEEELb0EE8__unwrapB8ue170006ES7_, symObjAddr: 0x2C44, symBinAddr: 0x100003524, symSize: 0x24 }
  - { offsetInCU: 0x9FF1, offset: 0x11D65, size: 0x8, addend: 0x0, symName: __ZNSt3__14pairINS_16reverse_iteratorIP4CardI12PinochleRank4SuitEEES7_EC1B8ue170006IS7_S7_LPv0EEEOT_OT0_, symObjAddr: 0x2C68, symBinAddr: 0x100003548, symSize: 0x3C }
  - { offsetInCU: 0xA04E, offset: 0x11DC2, size: 0x8, addend: 0x0, symName: __ZNSt3__14pairINS_16reverse_iteratorIP4CardI12PinochleRank4SuitEEES7_EC2B8ue170006IS7_S7_LPv0EEEOT_OT0_, symObjAddr: 0x2CA4, symBinAddr: 0x100003584, symSize: 0x34 }
  - { offsetInCU: 0xA0AB, offset: 0x11E1F, size: 0x8, addend: 0x0, symName: __ZNSt3__118__unwrap_iter_implINS_16reverse_iteratorIP4CardI12PinochleRank4SuitEEELb0EE8__rewrapB8ue170006ES7_S7_, symObjAddr: 0x2CD8, symBinAddr: 0x1000035B8, symSize: 0x2C }
  - { offsetInCU: 0xA0D7, offset: 0x11E4B, size: 0x8, addend: 0x0, symName: __ZNSt3__116reverse_iteratorIP4CardI12PinochleRank4SuitEEC2B8ue170006ES5_, symObjAddr: 0x2D04, symBinAddr: 0x1000035E4, symSize: 0x28 }
  - { offsetInCU: 0xA10D, offset: 0x11E81, size: 0x8, addend: 0x0, symName: __ZNSt3__114__split_bufferI4CardI12PinochleRank4SuitERNS_9allocatorIS4_EEED2Ev, symObjAddr: 0x2D2C, symBinAddr: 0x10000360C, symSize: 0x8C }
  - { offsetInCU: 0xA138, offset: 0x11EAC, size: 0x8, addend: 0x0, symName: __ZNSt3__114__split_bufferI4CardI12PinochleRank4SuitERNS_9allocatorIS4_EEE5clearB8ue170006Ev, symObjAddr: 0x2DB8, symBinAddr: 0x100003698, symSize: 0x28 }
  - { offsetInCU: 0xA15C, offset: 0x11ED0, size: 0x8, addend: 0x0, symName: __ZNKSt3__114__split_bufferI4CardI12PinochleRank4SuitERNS_9allocatorIS4_EEE8capacityB8ue170006Ev, symObjAddr: 0x2DE0, symBinAddr: 0x1000036C0, symSize: 0x40 }
  - { offsetInCU: 0xA180, offset: 0x11EF4, size: 0x8, addend: 0x0, symName: __ZNSt3__114__split_bufferI4CardI12PinochleRank4SuitERNS_9allocatorIS4_EEE17__destruct_at_endB8ue170006EPS4_, symObjAddr: 0x2E20, symBinAddr: 0x100003700, symSize: 0x2C }
  - { offsetInCU: 0xA1B1, offset: 0x11F25, size: 0x8, addend: 0x0, symName: __ZNSt3__114__split_bufferI4CardI12PinochleRank4SuitERNS_9allocatorIS4_EEE17__destruct_at_endB8ue170006EPS4_NS_17integral_constantIbLb0EEE, symObjAddr: 0x2E4C, symBinAddr: 0x10000372C, symSize: 0x80 }
  - { offsetInCU: 0xA1F0, offset: 0x11F64, size: 0x8, addend: 0x0, symName: __ZNKSt3__114__split_bufferI4CardI12PinochleRank4SuitERNS_9allocatorIS4_EEE9__end_capB8ue170006Ev, symObjAddr: 0x2ECC, symBinAddr: 0x1000037AC, symSize: 0x28 }
  - { offsetInCU: 0xA214, offset: 0x11F88, size: 0x8, addend: 0x0, symName: __ZNKSt3__117__compressed_pairIP4CardI12PinochleRank4SuitERNS_9allocatorIS4_EEE5firstB8ue170006Ev, symObjAddr: 0x2EF4, symBinAddr: 0x1000037D4, symSize: 0x24 }
  - { offsetInCU: 0xA238, offset: 0x11FAC, size: 0x8, addend: 0x0, symName: __ZN4CardI12PinochleRank4SuitEC2ES0_S1_, symObjAddr: 0x2F18, symBinAddr: 0x1000037F8, symSize: 0x2C }
  - { offsetInCU: 0xA27F, offset: 0x11FF3, size: 0x8, addend: 0x0, symName: __ZN12PinochleDeckD2Ev, symObjAddr: 0x2F44, symBinAddr: 0x100003824, symSize: 0x2C }
  - { offsetInCU: 0x5635, offset: 0x176D9, size: 0x8, addend: 0x0, symName: __ZNSt3__112__to_addressB8ue170006I4CardI10HoldEmRank4SuitEEEPT_S6_, symObjAddr: 0xC24, symBinAddr: 0x1000043EC, symSize: 0x14 }
  - { offsetInCU: 0x566A, offset: 0x1770E, size: 0x8, addend: 0x0, symName: __ZNSt3__119__allocate_at_leastB8ue170006INS_9allocatorI4CardI10HoldEmRank4SuitEEEEENS_19__allocation_resultINS_16allocator_traitsIT_E7pointerEEERS9_m, symObjAddr: 0x2350, symBinAddr: 0x100004CA4, symSize: 0x40 }
  - { offsetInCU: 0x56AD, offset: 0x17751, size: 0x8, addend: 0x0, symName: __ZNSt3__142__uninitialized_allocator_move_if_noexceptB8ue170006INS_9allocatorI4CardI10HoldEmRank4SuitEEENS_16reverse_iteratorIPS5_EES9_S5_vEET1_RT_T0_SD_SA_, symObjAddr: 0x25E8, symBinAddr: 0x100004E58, symSize: 0x78 }
  - { offsetInCU: 0x572B, offset: 0x177CF, size: 0x8, addend: 0x0, symName: __ZNSt3__14swapB8ue170006IP4CardI10HoldEmRank4SuitEEENS_9enable_ifIXaasr21is_move_constructibleIT_EE5valuesr18is_move_assignableIS7_EE5valueEvE4typeERS7_SA_, symObjAddr: 0x26AC, symBinAddr: 0x100004F1C, symSize: 0x3C }
  - { offsetInCU: 0x577D, offset: 0x17821, size: 0x8, addend: 0x0, symName: __ZNSt3__14moveB8ue170006INS_16reverse_iteratorIP4CardI10HoldEmRank4SuitEEES7_EET0_T_S9_S8_, symObjAddr: 0x2794, symBinAddr: 0x100005004, symSize: 0x78 }
  - { offsetInCU: 0x57D7, offset: 0x1787B, size: 0x8, addend: 0x0, symName: __ZNSt3__16__moveB8ue170006INS_17_ClassicAlgPolicyENS_16reverse_iteratorIP4CardI10HoldEmRank4SuitEEES8_S8_EENS_4pairIT0_T2_EESA_T1_SB_, symObjAddr: 0x280C, symBinAddr: 0x10000507C, symSize: 0x64 }
  - { offsetInCU: 0x5843, offset: 0x178E7, size: 0x8, addend: 0x0, symName: __ZNSt3__123__dispatch_copy_or_moveB8ue170006INS_17_ClassicAlgPolicyENS_11__move_loopIS1_EENS_14__move_trivialENS_16reverse_iteratorIP4CardI10HoldEmRank4SuitEEESB_SB_EENS_4pairIT2_T4_EESD_T3_SE_, symObjAddr: 0x2870, symBinAddr: 0x1000050E0, symSize: 0x64 }
  - { offsetInCU: 0x58C1, offset: 0x17965, size: 0x8, addend: 0x0, symName: __ZNSt3__121__unwrap_and_dispatchB8ue170006INS_10__overloadINS_11__move_loopINS_17_ClassicAlgPolicyEEENS_14__move_trivialEEENS_16reverse_iteratorIP4CardI10HoldEmRank4SuitEEESD_SD_Li0EEENS_4pairIT0_T2_EESF_T1_SG_, symObjAddr: 0x28D4, symBinAddr: 0x100005144, symSize: 0x12C }
  - { offsetInCU: 0x5954, offset: 0x179F8, size: 0x8, addend: 0x0, symName: __ZNSt3__114__unwrap_rangeB8ue170006INS_16reverse_iteratorIP4CardI10HoldEmRank4SuitEEES7_EENS_4pairIT0_S9_EET_SB_, symObjAddr: 0x2A00, symBinAddr: 0x100005270, symSize: 0x84 }
  - { offsetInCU: 0x5AC7, offset: 0x17B6B, size: 0x8, addend: 0x0, symName: __ZNSt3__113__unwrap_iterB8ue170006INS_16reverse_iteratorIP4CardI10HoldEmRank4SuitEEENS_18__unwrap_iter_implIS7_Lb0EEELi0EEEDTclsrT0_8__unwrapclsr3stdE7declvalIT_EEEESB_, symObjAddr: 0x2B24, symBinAddr: 0x100005394, symSize: 0x44 }
  - { offsetInCU: 0x5B0C, offset: 0x17BB0, size: 0x8, addend: 0x0, symName: __ZNSt3__19make_pairB8ue170006INS_16reverse_iteratorIP4CardI10HoldEmRank4SuitEEES7_EENS_4pairINS_18__unwrap_ref_decayIT_E4typeENS9_IT0_E4typeEEEOSA_OSD_, symObjAddr: 0x2B68, symBinAddr: 0x1000053D8, symSize: 0x38 }
  - { offsetInCU: 0x5B5B, offset: 0x17BFF, size: 0x8, addend: 0x0, symName: __ZNSt3__114__rewrap_rangeB8ue170006INS_16reverse_iteratorIP4CardI10HoldEmRank4SuitEEES7_EET_S8_T0_, symObjAddr: 0x2BA0, symBinAddr: 0x100005410, symSize: 0x5C }
  - { offsetInCU: 0x5BA7, offset: 0x17C4B, size: 0x8, addend: 0x0, symName: __ZNSt3__113__rewrap_iterB8ue170006INS_16reverse_iteratorIP4CardI10HoldEmRank4SuitEEES7_NS_18__unwrap_iter_implIS7_Lb0EEEEET_SA_T0_, symObjAddr: 0x2BFC, symBinAddr: 0x10000546C, symSize: 0x74 }
  - { offsetInCU: 0x5BFC, offset: 0x17CA0, size: 0x8, addend: 0x0, symName: __ZNSt3__1neB8ue170006IP4CardI10HoldEmRank4SuitES5_EEbRKNS_16reverse_iteratorIT_EERKNS6_IT0_EE, symObjAddr: 0x2C70, symBinAddr: 0x1000054E0, symSize: 0x48 }
  - { offsetInCU: 0x61DA, offset: 0x1827E, size: 0x8, addend: 0x0, symName: __ZNSt3__16vectorI4CardI10HoldEmRank4SuitENS_9allocatorIS4_EEE26__swap_out_circular_bufferERNS_14__split_bufferIS4_RS6_EE, symObjAddr: 0x1DBC, symBinAddr: 0x100004944, symSize: 0x110 }
  - { offsetInCU: 0x7F98, offset: 0x1A03C, size: 0x8, addend: 0x0, symName: __ZlsRNSt3__113basic_ostreamIcNS_11char_traitsIcEEEERK10HoldEmRank, symObjAddr: 0x0, symBinAddr: 0x100003850, symSize: 0x140 }
  - { offsetInCU: 0x7FD2, offset: 0x1A076, size: 0x8, addend: 0x0, symName: __ZppR10HoldEmRank, symObjAddr: 0x1F0, symBinAddr: 0x1000039C4, symSize: 0x11C }
  - { offsetInCU: 0x818E, offset: 0x1A232, size: 0x8, addend: 0x0, symName: __ZN10HoldEmDeckC2Ev, symObjAddr: 0x33C, symBinAddr: 0x100003B10, symSize: 0x100 }
  - { offsetInCU: 0x81EC, offset: 0x1A290, size: 0x8, addend: 0x0, symName: __ZN4DeckI10HoldEmRank4SuitEC2Ev, symObjAddr: 0x43C, symBinAddr: 0x100003C10, symSize: 0x44 }
  - { offsetInCU: 0x8216, offset: 0x1A2BA, size: 0x8, addend: 0x0, symName: __ZNSt3__16vectorI4CardI10HoldEmRank4SuitENS_9allocatorIS4_EEE9push_backB8ue170006EOS4_, symObjAddr: 0x480, symBinAddr: 0x100003C54, symSize: 0x6C }
  - { offsetInCU: 0x824C, offset: 0x1A2F0, size: 0x8, addend: 0x0, symName: __ZN4CardI10HoldEmRank4SuitEC1ES0_S1_, symObjAddr: 0x4EC, symBinAddr: 0x100003CC0, symSize: 0x3C }
  - { offsetInCU: 0x8293, offset: 0x1A337, size: 0x8, addend: 0x0, symName: __ZN4DeckI10HoldEmRank4SuitED2Ev, symObjAddr: 0x528, symBinAddr: 0x100003CFC, symSize: 0x2C }
  - { offsetInCU: 0x82BE, offset: 0x1A362, size: 0x8, addend: 0x0, symName: __ZN10HoldEmDeckC1Ev, symObjAddr: 0x554, symBinAddr: 0x100003D28, symSize: 0x2C }
  - { offsetInCU: 0x82E9, offset: 0x1A38D, size: 0x8, addend: 0x0, symName: __ZN10HoldEmDeckD1Ev, symObjAddr: 0x580, symBinAddr: 0x100003D54, symSize: 0x2C }
  - { offsetInCU: 0x8314, offset: 0x1A3B8, size: 0x8, addend: 0x0, symName: __ZN10HoldEmDeckD0Ev, symObjAddr: 0x5AC, symBinAddr: 0x100003D80, symSize: 0x30 }
  - { offsetInCU: 0x833F, offset: 0x1A3E3, size: 0x8, addend: 0x0, symName: __ZN7CardSetI10HoldEmRank4SuitEC2Ev, symObjAddr: 0x5DC, symBinAddr: 0x100003DB0, symSize: 0x40 }
  - { offsetInCU: 0x836A, offset: 0x1A40E, size: 0x8, addend: 0x0, symName: __ZN4DeckI10HoldEmRank4SuitED1Ev, symObjAddr: 0x61C, symBinAddr: 0x100003DF0, symSize: 0x2C }
  - { offsetInCU: 0x8395, offset: 0x1A439, size: 0x8, addend: 0x0, symName: __ZN4DeckI10HoldEmRank4SuitED0Ev, symObjAddr: 0x648, symBinAddr: 0x100003E1C, symSize: 0x30 }
  - { offsetInCU: 0x83C0, offset: 0x1A464, size: 0x8, addend: 0x0, symName: __ZNSt3__16vectorI4CardI10HoldEmRank4SuitENS_9allocatorIS4_EEEC1B8ue170006Ev, symObjAddr: 0x678, symBinAddr: 0x100003E4C, symSize: 0x2C }
  - { offsetInCU: 0x83E8, offset: 0x1A48C, size: 0x8, addend: 0x0, symName: __ZN7CardSetI10HoldEmRank4SuitED1Ev, symObjAddr: 0x6A4, symBinAddr: 0x100003E78, symSize: 0x2C }
  - { offsetInCU: 0x8410, offset: 0x1A4B4, size: 0x8, addend: 0x0, symName: __ZN7CardSetI10HoldEmRank4SuitED0Ev, symObjAddr: 0x6D0, symBinAddr: 0x100003EA4, symSize: 0x30 }
  - { offsetInCU: 0x8438, offset: 0x1A4DC, size: 0x8, addend: 0x0, symName: __ZNSt3__16vectorI4CardI10HoldEmRank4SuitENS_9allocatorIS4_EEEC2B8ue170006Ev, symObjAddr: 0x700, symBinAddr: 0x100003ED4, symSize: 0x4C }
  - { offsetInCU: 0x846A, offset: 0x1A50E, size: 0x8, addend: 0x0, symName: __ZNSt3__117__compressed_pairIP4CardI10HoldEmRank4SuitENS_9allocatorIS4_EEEC1B8ue170006IDnNS_18__default_init_tagEEEOT_OT0_, symObjAddr: 0x74C, symBinAddr: 0x100003F20, symSize: 0x3C }
  - { offsetInCU: 0x84C0, offset: 0x1A564, size: 0x8, addend: 0x0, symName: __ZNSt3__117__compressed_pairIP4CardI10HoldEmRank4SuitENS_9allocatorIS4_EEEC2B8ue170006IDnNS_18__default_init_tagEEEOT_OT0_, symObjAddr: 0x794, symBinAddr: 0x100003F5C, symSize: 0x40 }
  - { offsetInCU: 0x8516, offset: 0x1A5BA, size: 0x8, addend: 0x0, symName: __ZNSt3__122__compressed_pair_elemIP4CardI10HoldEmRank4SuitELi0ELb0EEC2B8ue170006IDnvEEOT_, symObjAddr: 0x7D4, symBinAddr: 0x100003F9C, symSize: 0x1C }
  - { offsetInCU: 0x8556, offset: 0x1A5FA, size: 0x8, addend: 0x0, symName: __ZNSt3__122__compressed_pair_elemINS_9allocatorI4CardI10HoldEmRank4SuitEEELi1ELb1EEC2B8ue170006ENS_18__default_init_tagE, symObjAddr: 0x7F0, symBinAddr: 0x100003FB8, symSize: 0x2C }
  - { offsetInCU: 0x8588, offset: 0x1A62C, size: 0x8, addend: 0x0, symName: __ZNSt3__19allocatorI4CardI10HoldEmRank4SuitEEC2B8ue170006Ev, symObjAddr: 0x81C, symBinAddr: 0x100003FE4, symSize: 0x2C }
  - { offsetInCU: 0x85B0, offset: 0x1A654, size: 0x8, addend: 0x0, symName: __ZNSt3__116__non_trivial_ifILb1ENS_9allocatorI4CardI10HoldEmRank4SuitEEEEC2B8ue170006Ev, symObjAddr: 0x848, symBinAddr: 0x100004010, symSize: 0x14 }
  - { offsetInCU: 0x85D8, offset: 0x1A67C, size: 0x8, addend: 0x0, symName: __ZN7CardSetI10HoldEmRank4SuitED2Ev, symObjAddr: 0x85C, symBinAddr: 0x100004024, symSize: 0x40 }
  - { offsetInCU: 0x8600, offset: 0x1A6A4, size: 0x8, addend: 0x0, symName: __ZNSt3__16vectorI4CardI10HoldEmRank4SuitENS_9allocatorIS4_EEED1B8ue170006Ev, symObjAddr: 0x89C, symBinAddr: 0x100004064, symSize: 0x2C }
  - { offsetInCU: 0x8628, offset: 0x1A6CC, size: 0x8, addend: 0x0, symName: __ZNSt3__16vectorI4CardI10HoldEmRank4SuitENS_9allocatorIS4_EEED2B8ue170006Ev, symObjAddr: 0x8C8, symBinAddr: 0x100004090, symSize: 0x44 }
  - { offsetInCU: 0x8650, offset: 0x1A6F4, size: 0x8, addend: 0x0, symName: __ZNSt3__16vectorI4CardI10HoldEmRank4SuitENS_9allocatorIS4_EEE16__destroy_vectorC1B8ue170006ERS7_, symObjAddr: 0x90C, symBinAddr: 0x1000040D4, symSize: 0x34 }
  - { offsetInCU: 0x8687, offset: 0x1A72B, size: 0x8, addend: 0x0, symName: __ZNSt3__16vectorI4CardI10HoldEmRank4SuitENS_9allocatorIS4_EEE16__destroy_vectorclB8ue170006Ev, symObjAddr: 0x940, symBinAddr: 0x100004108, symSize: 0x90 }
  - { offsetInCU: 0x86AB, offset: 0x1A74F, size: 0x8, addend: 0x0, symName: __ZNSt3__16vectorI4CardI10HoldEmRank4SuitENS_9allocatorIS4_EEE16__destroy_vectorC2B8ue170006ERS7_, symObjAddr: 0x9D0, symBinAddr: 0x100004198, symSize: 0x20 }
  - { offsetInCU: 0x86E2, offset: 0x1A786, size: 0x8, addend: 0x0, symName: __ZNSt3__16vectorI4CardI10HoldEmRank4SuitENS_9allocatorIS4_EEE7__clearB8ue170006Ev, symObjAddr: 0x9F0, symBinAddr: 0x1000041B8, symSize: 0x28 }
  - { offsetInCU: 0x8706, offset: 0x1A7AA, size: 0x8, addend: 0x0, symName: __ZNKSt3__16vectorI4CardI10HoldEmRank4SuitENS_9allocatorIS4_EEE17__annotate_deleteB8ue170006Ev, symObjAddr: 0xA18, symBinAddr: 0x1000041E0, symSize: 0xB8 }
  - { offsetInCU: 0x872A, offset: 0x1A7CE, size: 0x8, addend: 0x0, symName: __ZNSt3__116allocator_traitsINS_9allocatorI4CardI10HoldEmRank4SuitEEEE10deallocateB8ue170006ERS6_PS5_m, symObjAddr: 0xAD0, symBinAddr: 0x100004298, symSize: 0x34 }
  - { offsetInCU: 0x876C, offset: 0x1A810, size: 0x8, addend: 0x0, symName: __ZNSt3__16vectorI4CardI10HoldEmRank4SuitENS_9allocatorIS4_EEE7__allocB8ue170006Ev, symObjAddr: 0xB04, symBinAddr: 0x1000042CC, symSize: 0x28 }
  - { offsetInCU: 0x8790, offset: 0x1A834, size: 0x8, addend: 0x0, symName: __ZNKSt3__16vectorI4CardI10HoldEmRank4SuitENS_9allocatorIS4_EEE8capacityB8ue170006Ev, symObjAddr: 0xB2C, symBinAddr: 0x1000042F4, symSize: 0x40 }
  - { offsetInCU: 0x87B4, offset: 0x1A858, size: 0x8, addend: 0x0, symName: __ZNSt3__16vectorI4CardI10HoldEmRank4SuitENS_9allocatorIS4_EEE22__base_destruct_at_endB8ue170006EPS4_, symObjAddr: 0xB6C, symBinAddr: 0x100004334, symSize: 0x8C }
  - { offsetInCU: 0x87F6, offset: 0x1A89A, size: 0x8, addend: 0x0, symName: __ZNSt3__116allocator_traitsINS_9allocatorI4CardI10HoldEmRank4SuitEEEE7destroyB8ue170006IS5_vEEvRS6_PT_, symObjAddr: 0xBF8, symBinAddr: 0x1000043C0, symSize: 0x2C }
  - { offsetInCU: 0x8833, offset: 0x1A8D7, size: 0x8, addend: 0x0, symName: __ZNSt3__19allocatorI4CardI10HoldEmRank4SuitEE7destroyB8ue170006EPS4_, symObjAddr: 0xC38, symBinAddr: 0x100004400, symSize: 0x14 }
  - { offsetInCU: 0x8865, offset: 0x1A909, size: 0x8, addend: 0x0, symName: __ZNKSt3__16vectorI4CardI10HoldEmRank4SuitENS_9allocatorIS4_EEE31__annotate_contiguous_containerB8ue170006EPKvS9_S9_S9_, symObjAddr: 0xC4C, symBinAddr: 0x100004414, symSize: 0x20 }
  - { offsetInCU: 0x88B9, offset: 0x1A95D, size: 0x8, addend: 0x0, symName: __ZNKSt3__16vectorI4CardI10HoldEmRank4SuitENS_9allocatorIS4_EEE4dataB8ue170006Ev, symObjAddr: 0xC6C, symBinAddr: 0x100004434, symSize: 0x28 }
  - { offsetInCU: 0x88DD, offset: 0x1A981, size: 0x8, addend: 0x0, symName: __ZNKSt3__16vectorI4CardI10HoldEmRank4SuitENS_9allocatorIS4_EEE4sizeB8ue170006Ev, symObjAddr: 0xC94, symBinAddr: 0x10000445C, symSize: 0x28 }
  - { offsetInCU: 0x8901, offset: 0x1A9A5, size: 0x8, addend: 0x0, symName: __ZNSt3__19allocatorI4CardI10HoldEmRank4SuitEE10deallocateB8ue170006EPS4_m, symObjAddr: 0xCBC, symBinAddr: 0x100004484, symSize: 0x40 }
  - { offsetInCU: 0x8941, offset: 0x1A9E5, size: 0x8, addend: 0x0, symName: __ZNSt3__117__compressed_pairIP4CardI10HoldEmRank4SuitENS_9allocatorIS4_EEE6secondB8ue170006Ev, symObjAddr: 0xE24, symBinAddr: 0x1000044C4, symSize: 0x24 }
  - { offsetInCU: 0x8965, offset: 0x1AA09, size: 0x8, addend: 0x0, symName: __ZNSt3__122__compressed_pair_elemINS_9allocatorI4CardI10HoldEmRank4SuitEEELi1ELb1EE5__getB8ue170006Ev, symObjAddr: 0xE48, symBinAddr: 0x1000044E8, symSize: 0x14 }
  - { offsetInCU: 0x8989, offset: 0x1AA2D, size: 0x8, addend: 0x0, symName: __ZNKSt3__16vectorI4CardI10HoldEmRank4SuitENS_9allocatorIS4_EEE9__end_capB8ue170006Ev, symObjAddr: 0xE5C, symBinAddr: 0x1000044FC, symSize: 0x28 }
  - { offsetInCU: 0x89AD, offset: 0x1AA51, size: 0x8, addend: 0x0, symName: __ZNKSt3__117__compressed_pairIP4CardI10HoldEmRank4SuitENS_9allocatorIS4_EEE5firstB8ue170006Ev, symObjAddr: 0xE84, symBinAddr: 0x100004524, symSize: 0x24 }
  - { offsetInCU: 0x89D1, offset: 0x1AA75, size: 0x8, addend: 0x0, symName: __ZNKSt3__122__compressed_pair_elemIP4CardI10HoldEmRank4SuitELi0ELb0EE5__getB8ue170006Ev, symObjAddr: 0xEA8, symBinAddr: 0x100004548, symSize: 0x14 }
  - { offsetInCU: 0x8A13, offset: 0x1AAB7, size: 0x8, addend: 0x0, symName: __ZNSt3__16vectorI4CardI10HoldEmRank4SuitENS_9allocatorIS4_EEE9__end_capB8ue170006Ev, symObjAddr: 0x19D4, symBinAddr: 0x10000455C, symSize: 0x28 }
  - { offsetInCU: 0x8A3C, offset: 0x1AAE0, size: 0x8, addend: 0x0, symName: __ZNSt3__16vectorI4CardI10HoldEmRank4SuitENS_9allocatorIS4_EEE22__construct_one_at_endB8ue170006IJS4_EEEvDpOT_, symObjAddr: 0x19FC, symBinAddr: 0x100004584, symSize: 0x90 }
  - { offsetInCU: 0x8A88, offset: 0x1AB2C, size: 0x8, addend: 0x0, symName: __ZNSt3__16vectorI4CardI10HoldEmRank4SuitENS_9allocatorIS4_EEE21__push_back_slow_pathIS4_EEvOT_, symObjAddr: 0x1A8C, symBinAddr: 0x100004614, symSize: 0xD8 }
  - { offsetInCU: 0x8AE5, offset: 0x1AB89, size: 0x8, addend: 0x0, symName: __ZNSt3__117__compressed_pairIP4CardI10HoldEmRank4SuitENS_9allocatorIS4_EEE5firstB8ue170006Ev, symObjAddr: 0x1B64, symBinAddr: 0x1000046EC, symSize: 0x24 }
  - { offsetInCU: 0x8B09, offset: 0x1ABAD, size: 0x8, addend: 0x0, symName: __ZNSt3__122__compressed_pair_elemIP4CardI10HoldEmRank4SuitELi0ELb0EE5__getB8ue170006Ev, symObjAddr: 0x1B88, symBinAddr: 0x100004710, symSize: 0x14 }
  - { offsetInCU: 0x8B46, offset: 0x1ABEA, size: 0x8, addend: 0x0, symName: __ZNSt3__16vectorI4CardI10HoldEmRank4SuitENS_9allocatorIS4_EEE21_ConstructTransactionC1B8ue170006ERS7_m, symObjAddr: 0x1B9C, symBinAddr: 0x100004724, symSize: 0x3C }
  - { offsetInCU: 0x8B8C, offset: 0x1AC30, size: 0x8, addend: 0x0, symName: __ZNSt3__116allocator_traitsINS_9allocatorI4CardI10HoldEmRank4SuitEEEE9constructB8ue170006IS5_JS5_EvEEvRS6_PT_DpOT0_, symObjAddr: 0x1BD8, symBinAddr: 0x100004760, symSize: 0x34 }
  - { offsetInCU: 0x8BE3, offset: 0x1AC87, size: 0x8, addend: 0x0, symName: __ZNSt3__16vectorI4CardI10HoldEmRank4SuitENS_9allocatorIS4_EEE21_ConstructTransactionD1B8ue170006Ev, symObjAddr: 0x1C0C, symBinAddr: 0x100004794, symSize: 0x2C }
  - { offsetInCU: 0x8C0B, offset: 0x1ACAF, size: 0x8, addend: 0x0, symName: __ZNSt3__16vectorI4CardI10HoldEmRank4SuitENS_9allocatorIS4_EEE21_ConstructTransactionC2B8ue170006ERS7_m, symObjAddr: 0x1C38, symBinAddr: 0x1000047C0, symSize: 0x44 }
  - { offsetInCU: 0x8C51, offset: 0x1ACF5, size: 0x8, addend: 0x0, symName: __ZNSt3__19allocatorI4CardI10HoldEmRank4SuitEE9constructB8ue170006IS4_JS4_EEEvPT_DpOT0_, symObjAddr: 0x1C7C, symBinAddr: 0x100004804, symSize: 0x28 }
  - { offsetInCU: 0x8CA5, offset: 0x1AD49, size: 0x8, addend: 0x0, symName: __ZNSt3__16vectorI4CardI10HoldEmRank4SuitENS_9allocatorIS4_EEE21_ConstructTransactionD2B8ue170006Ev, symObjAddr: 0x1CA4, symBinAddr: 0x10000482C, symSize: 0x20 }
  - { offsetInCU: 0x8CCC, offset: 0x1AD70, size: 0x8, addend: 0x0, symName: __ZNKSt3__16vectorI4CardI10HoldEmRank4SuitENS_9allocatorIS4_EEE11__recommendB8ue170006Em, symObjAddr: 0x1CC4, symBinAddr: 0x10000484C, symSize: 0xB4 }
  - { offsetInCU: 0x8D20, offset: 0x1ADC4, size: 0x8, addend: 0x0, symName: __ZNSt3__114__split_bufferI4CardI10HoldEmRank4SuitERNS_9allocatorIS4_EEEC1EmmS7_, symObjAddr: 0x1D78, symBinAddr: 0x100004900, symSize: 0x44 }
  - { offsetInCU: 0x8D75, offset: 0x1AE19, size: 0x8, addend: 0x0, symName: __ZNSt3__114__split_bufferI4CardI10HoldEmRank4SuitERNS_9allocatorIS4_EEED1Ev, symObjAddr: 0x1ECC, symBinAddr: 0x100004A54, symSize: 0x2C }
  - { offsetInCU: 0x8D9F, offset: 0x1AE43, size: 0x8, addend: 0x0, symName: __ZNKSt3__16vectorI4CardI10HoldEmRank4SuitENS_9allocatorIS4_EEE8max_sizeEv, symObjAddr: 0x1EF8, symBinAddr: 0x100004A80, symSize: 0x60 }
  - { offsetInCU: 0x8DC6, offset: 0x1AE6A, size: 0x8, addend: 0x0, symName: __ZNKSt3__16vectorI4CardI10HoldEmRank4SuitENS_9allocatorIS4_EEE20__throw_length_errorB8ue170006Ev, symObjAddr: 0x1F58, symBinAddr: 0x100004AE0, symSize: 0x1C }
  - { offsetInCU: 0x8DF4, offset: 0x1AE98, size: 0x8, addend: 0x0, symName: __ZNSt3__116allocator_traitsINS_9allocatorI4CardI10HoldEmRank4SuitEEEE8max_sizeB8ue170006IS6_vEEmRKS6_, symObjAddr: 0x1FCC, symBinAddr: 0x100004AFC, symSize: 0x24 }
  - { offsetInCU: 0x8E22, offset: 0x1AEC6, size: 0x8, addend: 0x0, symName: __ZNKSt3__16vectorI4CardI10HoldEmRank4SuitENS_9allocatorIS4_EEE7__allocB8ue170006Ev, symObjAddr: 0x1FF0, symBinAddr: 0x100004B20, symSize: 0x28 }
  - { offsetInCU: 0x8E46, offset: 0x1AEEA, size: 0x8, addend: 0x0, symName: __ZNKSt3__19allocatorI4CardI10HoldEmRank4SuitEE8max_sizeB8ue170006Ev, symObjAddr: 0x20B4, symBinAddr: 0x100004B48, symSize: 0x14 }
  - { offsetInCU: 0x8E6A, offset: 0x1AF0E, size: 0x8, addend: 0x0, symName: __ZNKSt3__117__compressed_pairIP4CardI10HoldEmRank4SuitENS_9allocatorIS4_EEE6secondB8ue170006Ev, symObjAddr: 0x20C8, symBinAddr: 0x100004B5C, symSize: 0x24 }
  - { offsetInCU: 0x8E8E, offset: 0x1AF32, size: 0x8, addend: 0x0, symName: __ZNKSt3__122__compressed_pair_elemINS_9allocatorI4CardI10HoldEmRank4SuitEEELi1ELb1EE5__getB8ue170006Ev, symObjAddr: 0x20EC, symBinAddr: 0x100004B80, symSize: 0x14 }
  - { offsetInCU: 0x8EB2, offset: 0x1AF56, size: 0x8, addend: 0x0, symName: __ZNSt3__114__split_bufferI4CardI10HoldEmRank4SuitERNS_9allocatorIS4_EEEC2EmmS7_, symObjAddr: 0x2240, symBinAddr: 0x100004B94, symSize: 0xD4 }
  - { offsetInCU: 0x8F25, offset: 0x1AFC9, size: 0x8, addend: 0x0, symName: __ZNSt3__117__compressed_pairIP4CardI10HoldEmRank4SuitERNS_9allocatorIS4_EEEC1B8ue170006IDnS8_EEOT_OT0_, symObjAddr: 0x2314, symBinAddr: 0x100004C68, symSize: 0x3C }
  - { offsetInCU: 0x8F7B, offset: 0x1B01F, size: 0x8, addend: 0x0, symName: __ZNSt3__114__split_bufferI4CardI10HoldEmRank4SuitERNS_9allocatorIS4_EEE7__allocB8ue170006Ev, symObjAddr: 0x2390, symBinAddr: 0x100004CE4, symSize: 0x28 }
  - { offsetInCU: 0x8F9F, offset: 0x1B043, size: 0x8, addend: 0x0, symName: __ZNSt3__114__split_bufferI4CardI10HoldEmRank4SuitERNS_9allocatorIS4_EEE9__end_capB8ue170006Ev, symObjAddr: 0x23B8, symBinAddr: 0x100004D0C, symSize: 0x28 }
  - { offsetInCU: 0x8FC3, offset: 0x1B067, size: 0x8, addend: 0x0, symName: __ZNSt3__117__compressed_pairIP4CardI10HoldEmRank4SuitERNS_9allocatorIS4_EEEC2B8ue170006IDnS8_EEOT_OT0_, symObjAddr: 0x23E0, symBinAddr: 0x100004D34, symSize: 0x48 }
  - { offsetInCU: 0x9019, offset: 0x1B0BD, size: 0x8, addend: 0x0, symName: __ZNSt3__122__compressed_pair_elemIRNS_9allocatorI4CardI10HoldEmRank4SuitEEELi1ELb0EEC2B8ue170006IS7_vEEOT_, symObjAddr: 0x2428, symBinAddr: 0x100004D7C, symSize: 0x20 }
  - { offsetInCU: 0x9059, offset: 0x1B0FD, size: 0x8, addend: 0x0, symName: __ZNSt3__19allocatorI4CardI10HoldEmRank4SuitEE8allocateB8ue170006Em, symObjAddr: 0x2448, symBinAddr: 0x100004D9C, symSize: 0x58 }
  - { offsetInCU: 0x908B, offset: 0x1B12F, size: 0x8, addend: 0x0, symName: __ZNSt3__117__compressed_pairIP4CardI10HoldEmRank4SuitERNS_9allocatorIS4_EEE6secondB8ue170006Ev, symObjAddr: 0x2584, symBinAddr: 0x100004DF4, symSize: 0x28 }
  - { offsetInCU: 0x90AF, offset: 0x1B153, size: 0x8, addend: 0x0, symName: __ZNSt3__122__compressed_pair_elemIRNS_9allocatorI4CardI10HoldEmRank4SuitEEELi1ELb0EE5__getB8ue170006Ev, symObjAddr: 0x25AC, symBinAddr: 0x100004E1C, symSize: 0x18 }
  - { offsetInCU: 0x90D3, offset: 0x1B177, size: 0x8, addend: 0x0, symName: __ZNSt3__117__compressed_pairIP4CardI10HoldEmRank4SuitERNS_9allocatorIS4_EEE5firstB8ue170006Ev, symObjAddr: 0x25C4, symBinAddr: 0x100004E34, symSize: 0x24 }
  - { offsetInCU: 0x90F7, offset: 0x1B19B, size: 0x8, addend: 0x0, symName: __ZNSt3__116reverse_iteratorIP4CardI10HoldEmRank4SuitEEC1B8ue170006ES5_, symObjAddr: 0x2660, symBinAddr: 0x100004ED0, symSize: 0x34 }
  - { offsetInCU: 0x912D, offset: 0x1B1D1, size: 0x8, addend: 0x0, symName: __ZNKSt3__116reverse_iteratorIP4CardI10HoldEmRank4SuitEE4baseB8ue170006Ev, symObjAddr: 0x2694, symBinAddr: 0x100004F04, symSize: 0x18 }
  - { offsetInCU: 0x9151, offset: 0x1B1F5, size: 0x8, addend: 0x0, symName: __ZNKSt3__16vectorI4CardI10HoldEmRank4SuitENS_9allocatorIS4_EEE14__annotate_newB8ue170006Em, symObjAddr: 0x26E8, symBinAddr: 0x100004F58, symSize: 0xAC }
  - { offsetInCU: 0x91A7, offset: 0x1B24B, size: 0x8, addend: 0x0, symName: __ZNKSt3__111__move_loopINS_17_ClassicAlgPolicyEEclB8ue170006INS_16reverse_iteratorIP4CardI10HoldEmRank4SuitEEESA_SA_EENS_4pairIT_T1_EESC_T0_SD_, symObjAddr: 0x2A84, symBinAddr: 0x1000052F4, symSize: 0xA0 }
  - { offsetInCU: 0x9210, offset: 0x1B2B4, size: 0x8, addend: 0x0, symName: __ZNSt3__18_IterOpsINS_17_ClassicAlgPolicyEE11__iter_moveB8ue170006IRNS_16reverse_iteratorIP4CardI10HoldEmRank4SuitEEEEENS_9enable_ifIXsr12is_referenceIDTdeclsr3stdE7declvalIRT_EEEEE5valueEDTclsr3stdE4movedeclsr3stdE7declvalISE_EEEEE4typeEOSD_, symObjAddr: 0x2CB8, symBinAddr: 0x100005528, symSize: 0x28 }
  - { offsetInCU: 0x923C, offset: 0x1B2E0, size: 0x8, addend: 0x0, symName: __ZNKSt3__116reverse_iteratorIP4CardI10HoldEmRank4SuitEEdeB8ue170006Ev, symObjAddr: 0x2CE0, symBinAddr: 0x100005550, symSize: 0x28 }
  - { offsetInCU: 0x926F, offset: 0x1B313, size: 0x8, addend: 0x0, symName: __ZNSt3__116reverse_iteratorIP4CardI10HoldEmRank4SuitEEppB8ue170006Ev, symObjAddr: 0x2D08, symBinAddr: 0x100005578, symSize: 0x20 }
  - { offsetInCU: 0x9293, offset: 0x1B337, size: 0x8, addend: 0x0, symName: __ZNSt3__18_IterOpsINS_17_ClassicAlgPolicyEE25__validate_iter_referenceB8ue170006IRNS_16reverse_iteratorIP4CardI10HoldEmRank4SuitEEEEEvv, symObjAddr: 0x2D28, symBinAddr: 0x100005598, symSize: 0x4 }
  - { offsetInCU: 0x92B0, offset: 0x1B354, size: 0x8, addend: 0x0, symName: __ZNSt3__118__unwrap_iter_implINS_16reverse_iteratorIP4CardI10HoldEmRank4SuitEEELb0EE8__unwrapB8ue170006ES7_, symObjAddr: 0x2D2C, symBinAddr: 0x10000559C, symSize: 0x24 }
  - { offsetInCU: 0x92D7, offset: 0x1B37B, size: 0x8, addend: 0x0, symName: __ZNSt3__14pairINS_16reverse_iteratorIP4CardI10HoldEmRank4SuitEEES7_EC1B8ue170006IS7_S7_LPv0EEEOT_OT0_, symObjAddr: 0x2D50, symBinAddr: 0x1000055C0, symSize: 0x3C }
  - { offsetInCU: 0x9334, offset: 0x1B3D8, size: 0x8, addend: 0x0, symName: __ZNSt3__14pairINS_16reverse_iteratorIP4CardI10HoldEmRank4SuitEEES7_EC2B8ue170006IS7_S7_LPv0EEEOT_OT0_, symObjAddr: 0x2D8C, symBinAddr: 0x1000055FC, symSize: 0x34 }
  - { offsetInCU: 0x9391, offset: 0x1B435, size: 0x8, addend: 0x0, symName: __ZNSt3__118__unwrap_iter_implINS_16reverse_iteratorIP4CardI10HoldEmRank4SuitEEELb0EE8__rewrapB8ue170006ES7_S7_, symObjAddr: 0x2DC0, symBinAddr: 0x100005630, symSize: 0x2C }
  - { offsetInCU: 0x93BD, offset: 0x1B461, size: 0x8, addend: 0x0, symName: __ZNSt3__116reverse_iteratorIP4CardI10HoldEmRank4SuitEEC2B8ue170006ES5_, symObjAddr: 0x2DEC, symBinAddr: 0x10000565C, symSize: 0x28 }
  - { offsetInCU: 0x93F3, offset: 0x1B497, size: 0x8, addend: 0x0, symName: __ZNSt3__114__split_bufferI4CardI10HoldEmRank4SuitERNS_9allocatorIS4_EEED2Ev, symObjAddr: 0x2E14, symBinAddr: 0x100005684, symSize: 0x8C }
  - { offsetInCU: 0x941E, offset: 0x1B4C2, size: 0x8, addend: 0x0, symName: __ZNSt3__114__split_bufferI4CardI10HoldEmRank4SuitERNS_9allocatorIS4_EEE5clearB8ue170006Ev, symObjAddr: 0x2EA0, symBinAddr: 0x100005710, symSize: 0x28 }
  - { offsetInCU: 0x9442, offset: 0x1B4E6, size: 0x8, addend: 0x0, symName: __ZNKSt3__114__split_bufferI4CardI10HoldEmRank4SuitERNS_9allocatorIS4_EEE8capacityB8ue170006Ev, symObjAddr: 0x2EC8, symBinAddr: 0x100005738, symSize: 0x40 }
  - { offsetInCU: 0x9466, offset: 0x1B50A, size: 0x8, addend: 0x0, symName: __ZNSt3__114__split_bufferI4CardI10HoldEmRank4SuitERNS_9allocatorIS4_EEE17__destruct_at_endB8ue170006EPS4_, symObjAddr: 0x2F08, symBinAddr: 0x100005778, symSize: 0x2C }
  - { offsetInCU: 0x9497, offset: 0x1B53B, size: 0x8, addend: 0x0, symName: __ZNSt3__114__split_bufferI4CardI10HoldEmRank4SuitERNS_9allocatorIS4_EEE17__destruct_at_endB8ue170006EPS4_NS_17integral_constantIbLb0EEE, symObjAddr: 0x2F34, symBinAddr: 0x1000057A4, symSize: 0x80 }
  - { offsetInCU: 0x94D6, offset: 0x1B57A, size: 0x8, addend: 0x0, symName: __ZNKSt3__114__split_bufferI4CardI10HoldEmRank4SuitERNS_9allocatorIS4_EEE9__end_capB8ue170006Ev, symObjAddr: 0x2FB4, symBinAddr: 0x100005824, symSize: 0x28 }
  - { offsetInCU: 0x94FA, offset: 0x1B59E, size: 0x8, addend: 0x0, symName: __ZNKSt3__117__compressed_pairIP4CardI10HoldEmRank4SuitERNS_9allocatorIS4_EEE5firstB8ue170006Ev, symObjAddr: 0x2FDC, symBinAddr: 0x10000584C, symSize: 0x24 }
  - { offsetInCU: 0x951E, offset: 0x1B5C2, size: 0x8, addend: 0x0, symName: __ZN4CardI10HoldEmRank4SuitEC2ES0_S1_, symObjAddr: 0x3000, symBinAddr: 0x100005870, symSize: 0x2C }
  - { offsetInCU: 0x9565, offset: 0x1B609, size: 0x8, addend: 0x0, symName: __ZN10HoldEmDeckD2Ev, symObjAddr: 0x302C, symBinAddr: 0x10000589C, symSize: 0x2C }
  - { offsetInCU: 0x57DE, offset: 0x20E89, size: 0x8, addend: 0x0, symName: __ZNSt3__17getlineB8ue170006IcNS_11char_traitsIcEENS_9allocatorIcEEEERNS_13basic_istreamIT_T0_EES9_RNS_12basic_stringIS6_S7_T1_EE, symObjAddr: 0x30C, symBinAddr: 0x100005B8C, symSize: 0x5C }
  - { offsetInCU: 0x5836, offset: 0x20EE1, size: 0x8, addend: 0x0, symName: __ZNSt3__1eqB8ue170006IcNS_11char_traitsIcEENS_9allocatorIcEEEEbRKNS_12basic_stringIT_T0_T1_EEPKS6_, symObjAddr: 0x368, symBinAddr: 0x100005BE8, symSize: 0xAC }
  - { offsetInCU: 0x589D, offset: 0x20F48, size: 0x8, addend: 0x0, symName: __ZNSt3__112__to_addressB8ue170006INS_12basic_stringIcNS_11char_traitsIcEENS_9allocatorIcEEEEEEPT_S8_, symObjAddr: 0x908, symBinAddr: 0x10000617C, symSize: 0x14 }
  - { offsetInCU: 0x58D2, offset: 0x20F7D, size: 0x8, addend: 0x0, symName: __ZNSt3__119__allocate_at_leastB8ue170006INS_9allocatorINS_12basic_stringIcNS_11char_traitsIcEENS1_IcEEEEEEEENS_19__allocation_resultINS_16allocator_traitsIT_E7pointerEEERSA_m, symObjAddr: 0x1650, symBinAddr: 0x100006B30, symSize: 0x40 }
  - { offsetInCU: 0x5915, offset: 0x20FC0, size: 0x8, addend: 0x0, symName: __ZNSt3__142__uninitialized_allocator_move_if_noexceptB8ue170006INS_9allocatorINS_12basic_stringIcNS_11char_traitsIcEENS1_IcEEEEEENS_16reverse_iteratorIPS6_EESA_SA_EET2_RT_T0_T1_SB_, symObjAddr: 0x18EC, symBinAddr: 0x100006CE8, symSize: 0x12C }
  - { offsetInCU: 0x59B5, offset: 0x21060, size: 0x8, addend: 0x0, symName: __ZNSt3__14swapB8ue170006IPNS_12basic_stringIcNS_11char_traitsIcEENS_9allocatorIcEEEEEENS_9enable_ifIXaasr21is_move_constructibleIT_EE5valuesr18is_move_assignableIS9_EE5valueEvE4typeERS9_SC_, symObjAddr: 0x1A64, symBinAddr: 0x100006E60, symSize: 0x3C }
  - { offsetInCU: 0x5A07, offset: 0x210B2, size: 0x8, addend: 0x0, symName: __ZNSt3__122__make_exception_guardB8ue170006INS_29_AllocatorDestroyRangeReverseINS_9allocatorINS_12basic_stringIcNS_11char_traitsIcEENS2_IcEEEEEENS_16reverse_iteratorIPS7_EEEEEENS_28__exception_guard_exceptionsIT_EESE_, symObjAddr: 0x1B68, symBinAddr: 0x100006F64, symSize: 0x4C }
  - { offsetInCU: 0x5A3D, offset: 0x210E8, size: 0x8, addend: 0x0, symName: __ZNSt3__1neB8ue170006IPNS_12basic_stringIcNS_11char_traitsIcEENS_9allocatorIcEEEES7_EEbRKNS_16reverse_iteratorIT_EERKNS8_IT0_EE, symObjAddr: 0x1BF8, symBinAddr: 0x100006FF4, symSize: 0x48 }
  - { offsetInCU: 0x5A89, offset: 0x21134, size: 0x8, addend: 0x0, symName: __ZNSt3__112__to_addressB8ue170006INS_16reverse_iteratorIPNS_12basic_stringIcNS_11char_traitsIcEENS_9allocatorIcEEEEEEvEEu7__decayIDTclsr19__to_address_helperIT_EE6__callclsr3stdE7declvalIRKSA_EEEEESC_, symObjAddr: 0x1C40, symBinAddr: 0x10000703C, symSize: 0x24 }
  - { offsetInCU: 0x5AE9, offset: 0x21194, size: 0x8, addend: 0x0, symName: __ZNSt3__119__allocator_destroyB8ue170006INS_9allocatorINS_12basic_stringIcNS_11char_traitsIcEENS1_IcEEEEEENS_16reverse_iteratorINS8_IPS6_EEEESB_EEvRT_T0_T1_, symObjAddr: 0x1EF0, symBinAddr: 0x1000072EC, symSize: 0x70 }
  - { offsetInCU: 0x5B4F, offset: 0x211FA, size: 0x8, addend: 0x0, symName: __ZNSt3__1neB8ue170006INS_16reverse_iteratorIPNS_12basic_stringIcNS_11char_traitsIcEENS_9allocatorIcEEEEEES9_EEbRKNS1_IT_EERKNS1_IT0_EE, symObjAddr: 0x1F9C, symBinAddr: 0x100007398, symSize: 0x60 }
  - { offsetInCU: 0x5B9B, offset: 0x21246, size: 0x8, addend: 0x0, symName: __ZNSt3__112__to_addressB8ue170006INS_16reverse_iteratorINS1_IPNS_12basic_stringIcNS_11char_traitsIcEENS_9allocatorIcEEEEEEEEvEEu7__decayIDTclsr19__to_address_helperIT_EE6__callclsr3stdE7declvalIRKSB_EEEEESD_, symObjAddr: 0x1FFC, symBinAddr: 0x1000073F8, symSize: 0x24 }
  - { offsetInCU: 0x5BFB, offset: 0x212A6, size: 0x8, addend: 0x0, symName: __ZNSt3__17getlineB8ue170006IcNS_11char_traitsIcEENS_9allocatorIcEEEERNS_13basic_istreamIT_T0_EES9_RNS_12basic_stringIS6_S7_T1_EES6_, symObjAddr: 0x2EE0, symBinAddr: 0x1000077FC, symSize: 0x238 }
  - { offsetInCU: 0x67A6, offset: 0x21E51, size: 0x8, addend: 0x0, symName: __ZNSt3__16vectorINS_12basic_stringIcNS_11char_traitsIcEENS_9allocatorIcEEEENS4_IS6_EEE26__swap_out_circular_bufferERNS_14__split_bufferIS6_RS7_EE, symObjAddr: 0x10AC, symBinAddr: 0x1000067C0, symSize: 0x110 }
  - { offsetInCU: 0x86D4, offset: 0x23D7F, size: 0x8, addend: 0x0, symName: __ZN4GameC2EiPPKc, symObjAddr: 0x0, symBinAddr: 0x1000058C8, symSize: 0x104 }
  - { offsetInCU: 0x8739, offset: 0x23DE4, size: 0x8, addend: 0x0, symName: __ZNSt3__16vectorINS_12basic_stringIcNS_11char_traitsIcEENS_9allocatorIcEEEENS4_IS6_EEEC1B8ue170006Ev, symObjAddr: 0x104, symBinAddr: 0x1000059CC, symSize: 0x2C }
  - { offsetInCU: 0x8760, offset: 0x23E0B, size: 0x8, addend: 0x0, symName: __ZNSt3__16vectorINS_12basic_stringIcNS_11char_traitsIcEENS_9allocatorIcEEEENS4_IS6_EEE9push_backB8ue170006EOS6_, symObjAddr: 0x130, symBinAddr: 0x1000059F8, symSize: 0x6C }
  - { offsetInCU: 0x879B, offset: 0x23E46, size: 0x8, addend: 0x0, symName: __ZNSt3__112basic_stringIcNS_11char_traitsIcEENS_9allocatorIcEEEC1B8ue170006ILi0EEEPKc, symObjAddr: 0x19C, symBinAddr: 0x100005A64, symSize: 0x34 }
  - { offsetInCU: 0x87D9, offset: 0x23E84, size: 0x8, addend: 0x0, symName: __ZNSt3__16vectorINS_12basic_stringIcNS_11char_traitsIcEENS_9allocatorIcEEEENS4_IS6_EEED1B8ue170006Ev, symObjAddr: 0x1D0, symBinAddr: 0x100005A98, symSize: 0x2C }
  - { offsetInCU: 0x8801, offset: 0x23EAC, size: 0x8, addend: 0x0, symName: __ZN4Game13askUserToQuitEv, symObjAddr: 0x1FC, symBinAddr: 0x100005AC4, symSize: 0x9C }
  - { offsetInCU: 0x8837, offset: 0x23EE2, size: 0x8, addend: 0x0, symName: __ZNSt3__112basic_stringIcNS_11char_traitsIcEENS_9allocatorIcEEEC1B8ue170006Ev, symObjAddr: 0x2E0, symBinAddr: 0x100005B60, symSize: 0x2C }
  - { offsetInCU: 0x885F, offset: 0x23F0A, size: 0x8, addend: 0x0, symName: __ZN4GameD1Ev, symObjAddr: 0x414, symBinAddr: 0x100005C94, symSize: 0x14 }
  - { offsetInCU: 0x8887, offset: 0x23F32, size: 0x8, addend: 0x0, symName: __ZN4GameD0Ev, symObjAddr: 0x428, symBinAddr: 0x100005CA8, symSize: 0xC }
  - { offsetInCU: 0x88AF, offset: 0x23F5A, size: 0x8, addend: 0x0, symName: __ZNSt3__16vectorINS_12basic_stringIcNS_11char_traitsIcEENS_9allocatorIcEEEENS4_IS6_EEEC2B8ue170006Ev, symObjAddr: 0x434, symBinAddr: 0x100005CB4, symSize: 0x4C }
  - { offsetInCU: 0x88E1, offset: 0x23F8C, size: 0x8, addend: 0x0, symName: __ZNSt3__117__compressed_pairIPNS_12basic_stringIcNS_11char_traitsIcEENS_9allocatorIcEEEENS4_IS6_EEEC1B8ue170006IDnNS_18__default_init_tagEEEOT_OT0_, symObjAddr: 0x480, symBinAddr: 0x100005D00, symSize: 0x3C }
  - { offsetInCU: 0x8937, offset: 0x23FE2, size: 0x8, addend: 0x0, symName: __ZNSt3__117__compressed_pairIPNS_12basic_stringIcNS_11char_traitsIcEENS_9allocatorIcEEEENS4_IS6_EEEC2B8ue170006IDnNS_18__default_init_tagEEEOT_OT0_, symObjAddr: 0x4C8, symBinAddr: 0x100005D3C, symSize: 0x40 }
  - { offsetInCU: 0x898D, offset: 0x24038, size: 0x8, addend: 0x0, symName: __ZNSt3__122__compressed_pair_elemIPNS_12basic_stringIcNS_11char_traitsIcEENS_9allocatorIcEEEELi0ELb0EEC2B8ue170006IDnvEEOT_, symObjAddr: 0x508, symBinAddr: 0x100005D7C, symSize: 0x1C }
  - { offsetInCU: 0x89CD, offset: 0x24078, size: 0x8, addend: 0x0, symName: __ZNSt3__122__compressed_pair_elemINS_9allocatorINS_12basic_stringIcNS_11char_traitsIcEENS1_IcEEEEEELi1ELb1EEC2B8ue170006ENS_18__default_init_tagE, symObjAddr: 0x524, symBinAddr: 0x100005D98, symSize: 0x2C }
  - { offsetInCU: 0x89FF, offset: 0x240AA, size: 0x8, addend: 0x0, symName: __ZNSt3__19allocatorINS_12basic_stringIcNS_11char_traitsIcEENS0_IcEEEEEC2B8ue170006Ev, symObjAddr: 0x550, symBinAddr: 0x100005DC4, symSize: 0x2C }
  - { offsetInCU: 0x8A27, offset: 0x240D2, size: 0x8, addend: 0x0, symName: __ZNSt3__116__non_trivial_ifILb1ENS_9allocatorINS_12basic_stringIcNS_11char_traitsIcEENS1_IcEEEEEEEC2B8ue170006Ev, symObjAddr: 0x57C, symBinAddr: 0x100005DF0, symSize: 0x14 }
  - { offsetInCU: 0x8A4F, offset: 0x240FA, size: 0x8, addend: 0x0, symName: __ZNSt3__16vectorINS_12basic_stringIcNS_11char_traitsIcEENS_9allocatorIcEEEENS4_IS6_EEED2B8ue170006Ev, symObjAddr: 0x590, symBinAddr: 0x100005E04, symSize: 0x44 }
  - { offsetInCU: 0x8A77, offset: 0x24122, size: 0x8, addend: 0x0, symName: __ZNSt3__16vectorINS_12basic_stringIcNS_11char_traitsIcEENS_9allocatorIcEEEENS4_IS6_EEE16__destroy_vectorC1B8ue170006ERS8_, symObjAddr: 0x5D4, symBinAddr: 0x100005E48, symSize: 0x34 }
  - { offsetInCU: 0x8AAE, offset: 0x24159, size: 0x8, addend: 0x0, symName: __ZNSt3__16vectorINS_12basic_stringIcNS_11char_traitsIcEENS_9allocatorIcEEEENS4_IS6_EEE16__destroy_vectorclB8ue170006Ev, symObjAddr: 0x608, symBinAddr: 0x100005E7C, symSize: 0x90 }
  - { offsetInCU: 0x8AD2, offset: 0x2417D, size: 0x8, addend: 0x0, symName: __ZNSt3__16vectorINS_12basic_stringIcNS_11char_traitsIcEENS_9allocatorIcEEEENS4_IS6_EEE16__destroy_vectorC2B8ue170006ERS8_, symObjAddr: 0x698, symBinAddr: 0x100005F0C, symSize: 0x20 }
  - { offsetInCU: 0x8B09, offset: 0x241B4, size: 0x8, addend: 0x0, symName: __ZNSt3__16vectorINS_12basic_stringIcNS_11char_traitsIcEENS_9allocatorIcEEEENS4_IS6_EEE7__clearB8ue170006Ev, symObjAddr: 0x6B8, symBinAddr: 0x100005F2C, symSize: 0x28 }
  - { offsetInCU: 0x8B2D, offset: 0x241D8, size: 0x8, addend: 0x0, symName: __ZNKSt3__16vectorINS_12basic_stringIcNS_11char_traitsIcEENS_9allocatorIcEEEENS4_IS6_EEE17__annotate_deleteB8ue170006Ev, symObjAddr: 0x6E0, symBinAddr: 0x100005F54, symSize: 0xD4 }
  - { offsetInCU: 0x8B51, offset: 0x241FC, size: 0x8, addend: 0x0, symName: __ZNSt3__116allocator_traitsINS_9allocatorINS_12basic_stringIcNS_11char_traitsIcEENS1_IcEEEEEEE10deallocateB8ue170006ERS7_PS6_m, symObjAddr: 0x7B4, symBinAddr: 0x100006028, symSize: 0x34 }
  - { offsetInCU: 0x8B93, offset: 0x2423E, size: 0x8, addend: 0x0, symName: __ZNSt3__16vectorINS_12basic_stringIcNS_11char_traitsIcEENS_9allocatorIcEEEENS4_IS6_EEE7__allocB8ue170006Ev, symObjAddr: 0x7E8, symBinAddr: 0x10000605C, symSize: 0x28 }
  - { offsetInCU: 0x8BB7, offset: 0x24262, size: 0x8, addend: 0x0, symName: __ZNKSt3__16vectorINS_12basic_stringIcNS_11char_traitsIcEENS_9allocatorIcEEEENS4_IS6_EEE8capacityB8ue170006Ev, symObjAddr: 0x810, symBinAddr: 0x100006084, symSize: 0x40 }
  - { offsetInCU: 0x8BDB, offset: 0x24286, size: 0x8, addend: 0x0, symName: __ZNSt3__16vectorINS_12basic_stringIcNS_11char_traitsIcEENS_9allocatorIcEEEENS4_IS6_EEE22__base_destruct_at_endB8ue170006EPS6_, symObjAddr: 0x850, symBinAddr: 0x1000060C4, symSize: 0x8C }
  - { offsetInCU: 0x8C1D, offset: 0x242C8, size: 0x8, addend: 0x0, symName: __ZNSt3__116allocator_traitsINS_9allocatorINS_12basic_stringIcNS_11char_traitsIcEENS1_IcEEEEEEE7destroyB8ue170006IS6_vEEvRS7_PT_, symObjAddr: 0x8DC, symBinAddr: 0x100006150, symSize: 0x2C }
  - { offsetInCU: 0x8C5A, offset: 0x24305, size: 0x8, addend: 0x0, symName: __ZNSt3__19allocatorINS_12basic_stringIcNS_11char_traitsIcEENS0_IcEEEEE7destroyB8ue170006EPS5_, symObjAddr: 0x91C, symBinAddr: 0x100006190, symSize: 0x28 }
  - { offsetInCU: 0x8C8C, offset: 0x24337, size: 0x8, addend: 0x0, symName: __ZNKSt3__16vectorINS_12basic_stringIcNS_11char_traitsIcEENS_9allocatorIcEEEENS4_IS6_EEE31__annotate_contiguous_containerB8ue170006EPKvSA_SA_SA_, symObjAddr: 0x944, symBinAddr: 0x1000061B8, symSize: 0x20 }
  - { offsetInCU: 0x8CE0, offset: 0x2438B, size: 0x8, addend: 0x0, symName: __ZNKSt3__16vectorINS_12basic_stringIcNS_11char_traitsIcEENS_9allocatorIcEEEENS4_IS6_EEE4dataB8ue170006Ev, symObjAddr: 0x964, symBinAddr: 0x1000061D8, symSize: 0x28 }
  - { offsetInCU: 0x8D04, offset: 0x243AF, size: 0x8, addend: 0x0, symName: __ZNKSt3__16vectorINS_12basic_stringIcNS_11char_traitsIcEENS_9allocatorIcEEEENS4_IS6_EEE4sizeB8ue170006Ev, symObjAddr: 0x98C, symBinAddr: 0x100006200, symSize: 0x28 }
  - { offsetInCU: 0x8D28, offset: 0x243D3, size: 0x8, addend: 0x0, symName: __ZNSt3__19allocatorINS_12basic_stringIcNS_11char_traitsIcEENS0_IcEEEEE10deallocateB8ue170006EPS5_m, symObjAddr: 0x9B4, symBinAddr: 0x100006228, symSize: 0x44 }
  - { offsetInCU: 0x8D68, offset: 0x24413, size: 0x8, addend: 0x0, symName: __ZNSt3__117__compressed_pairIPNS_12basic_stringIcNS_11char_traitsIcEENS_9allocatorIcEEEENS4_IS6_EEE6secondB8ue170006Ev, symObjAddr: 0xB20, symBinAddr: 0x10000626C, symSize: 0x24 }
  - { offsetInCU: 0x8D8C, offset: 0x24437, size: 0x8, addend: 0x0, symName: __ZNSt3__122__compressed_pair_elemINS_9allocatorINS_12basic_stringIcNS_11char_traitsIcEENS1_IcEEEEEELi1ELb1EE5__getB8ue170006Ev, symObjAddr: 0xB44, symBinAddr: 0x100006290, symSize: 0x14 }
  - { offsetInCU: 0x8DB0, offset: 0x2445B, size: 0x8, addend: 0x0, symName: __ZNKSt3__16vectorINS_12basic_stringIcNS_11char_traitsIcEENS_9allocatorIcEEEENS4_IS6_EEE9__end_capB8ue170006Ev, symObjAddr: 0xB58, symBinAddr: 0x1000062A4, symSize: 0x28 }
  - { offsetInCU: 0x8DD4, offset: 0x2447F, size: 0x8, addend: 0x0, symName: __ZNKSt3__117__compressed_pairIPNS_12basic_stringIcNS_11char_traitsIcEENS_9allocatorIcEEEENS4_IS6_EEE5firstB8ue170006Ev, symObjAddr: 0xB80, symBinAddr: 0x1000062CC, symSize: 0x24 }
  - { offsetInCU: 0x8DF8, offset: 0x244A3, size: 0x8, addend: 0x0, symName: __ZNKSt3__122__compressed_pair_elemIPNS_12basic_stringIcNS_11char_traitsIcEENS_9allocatorIcEEEELi0ELb0EE5__getB8ue170006Ev, symObjAddr: 0xBA4, symBinAddr: 0x1000062F0, symSize: 0x14 }
  - { offsetInCU: 0x8E1C, offset: 0x244C7, size: 0x8, addend: 0x0, symName: __ZNSt3__16vectorINS_12basic_stringIcNS_11char_traitsIcEENS_9allocatorIcEEEENS4_IS6_EEE9__end_capB8ue170006Ev, symObjAddr: 0xBB8, symBinAddr: 0x100006304, symSize: 0x28 }
  - { offsetInCU: 0x8E45, offset: 0x244F0, size: 0x8, addend: 0x0, symName: __ZNSt3__16vectorINS_12basic_stringIcNS_11char_traitsIcEENS_9allocatorIcEEEENS4_IS6_EEE22__construct_one_at_endB8ue170006IJS6_EEEvDpOT_, symObjAddr: 0xBE0, symBinAddr: 0x10000632C, symSize: 0x90 }
  - { offsetInCU: 0x8E91, offset: 0x2453C, size: 0x8, addend: 0x0, symName: __ZNSt3__16vectorINS_12basic_stringIcNS_11char_traitsIcEENS_9allocatorIcEEEENS4_IS6_EEE21__push_back_slow_pathIS6_EEvOT_, symObjAddr: 0xC70, symBinAddr: 0x1000063BC, symSize: 0xD8 }
  - { offsetInCU: 0x8EEE, offset: 0x24599, size: 0x8, addend: 0x0, symName: __ZNSt3__117__compressed_pairIPNS_12basic_stringIcNS_11char_traitsIcEENS_9allocatorIcEEEENS4_IS6_EEE5firstB8ue170006Ev, symObjAddr: 0xD48, symBinAddr: 0x100006494, symSize: 0x24 }
  - { offsetInCU: 0x8F12, offset: 0x245BD, size: 0x8, addend: 0x0, symName: __ZNSt3__122__compressed_pair_elemIPNS_12basic_stringIcNS_11char_traitsIcEENS_9allocatorIcEEEELi0ELb0EE5__getB8ue170006Ev, symObjAddr: 0xD6C, symBinAddr: 0x1000064B8, symSize: 0x14 }
  - { offsetInCU: 0x8F4F, offset: 0x245FA, size: 0x8, addend: 0x0, symName: __ZNSt3__16vectorINS_12basic_stringIcNS_11char_traitsIcEENS_9allocatorIcEEEENS4_IS6_EEE21_ConstructTransactionC1B8ue170006ERS8_m, symObjAddr: 0xD80, symBinAddr: 0x1000064CC, symSize: 0x3C }
  - { offsetInCU: 0x8F95, offset: 0x24640, size: 0x8, addend: 0x0, symName: __ZNSt3__116allocator_traitsINS_9allocatorINS_12basic_stringIcNS_11char_traitsIcEENS1_IcEEEEEEE9constructB8ue170006IS6_JS6_EvEEvRS7_PT_DpOT0_, symObjAddr: 0xDBC, symBinAddr: 0x100006508, symSize: 0x34 }
  - { offsetInCU: 0x8FEC, offset: 0x24697, size: 0x8, addend: 0x0, symName: __ZNSt3__16vectorINS_12basic_stringIcNS_11char_traitsIcEENS_9allocatorIcEEEENS4_IS6_EEE21_ConstructTransactionD1B8ue170006Ev, symObjAddr: 0xDF0, symBinAddr: 0x10000653C, symSize: 0x2C }
  - { offsetInCU: 0x9014, offset: 0x246BF, size: 0x8, addend: 0x0, symName: __ZNSt3__16vectorINS_12basic_stringIcNS_11char_traitsIcEENS_9allocatorIcEEEENS4_IS6_EEE21_ConstructTransactionC2B8ue170006ERS8_m, symObjAddr: 0xE1C, symBinAddr: 0x100006568, symSize: 0x4C }
  - { offsetInCU: 0x905A, offset: 0x24705, size: 0x8, addend: 0x0, symName: __ZNSt3__19allocatorINS_12basic_stringIcNS_11char_traitsIcEENS0_IcEEEEE9constructB8ue170006IS5_JS5_EEEvPT_DpOT0_, symObjAddr: 0xE68, symBinAddr: 0x1000065B4, symSize: 0x30 }
  - { offsetInCU: 0x90AE, offset: 0x24759, size: 0x8, addend: 0x0, symName: __ZNSt3__112basic_stringIcNS_11char_traitsIcEENS_9allocatorIcEEEC1B8ue170006EOS5_, symObjAddr: 0xE98, symBinAddr: 0x1000065E4, symSize: 0x34 }
  - { offsetInCU: 0x90E5, offset: 0x24790, size: 0x8, addend: 0x0, symName: __ZNSt3__112basic_stringIcNS_11char_traitsIcEENS_9allocatorIcEEEC2B8ue170006EOS5_, symObjAddr: 0xECC, symBinAddr: 0x100006618, symSize: 0x50 }
  - { offsetInCU: 0x911C, offset: 0x247C7, size: 0x8, addend: 0x0, symName: __ZNSt3__112basic_stringIcNS_11char_traitsIcEENS_9allocatorIcEEE14__default_initB8ue170006Ev, symObjAddr: 0xF1C, symBinAddr: 0x100006668, symSize: 0x40 }
  - { offsetInCU: 0x9140, offset: 0x247EB, size: 0x8, addend: 0x0, symName: __ZNSt3__16vectorINS_12basic_stringIcNS_11char_traitsIcEENS_9allocatorIcEEEENS4_IS6_EEE21_ConstructTransactionD2B8ue170006Ev, symObjAddr: 0xF94, symBinAddr: 0x1000066A8, symSize: 0x20 }
  - { offsetInCU: 0x9167, offset: 0x24812, size: 0x8, addend: 0x0, symName: __ZNKSt3__16vectorINS_12basic_stringIcNS_11char_traitsIcEENS_9allocatorIcEEEENS4_IS6_EEE11__recommendB8ue170006Em, symObjAddr: 0xFB4, symBinAddr: 0x1000066C8, symSize: 0xB4 }
  - { offsetInCU: 0x91BB, offset: 0x24866, size: 0x8, addend: 0x0, symName: __ZNSt3__114__split_bufferINS_12basic_stringIcNS_11char_traitsIcEENS_9allocatorIcEEEERNS4_IS6_EEEC1EmmS8_, symObjAddr: 0x1068, symBinAddr: 0x10000677C, symSize: 0x44 }
  - { offsetInCU: 0x9210, offset: 0x248BB, size: 0x8, addend: 0x0, symName: __ZNSt3__114__split_bufferINS_12basic_stringIcNS_11char_traitsIcEENS_9allocatorIcEEEERNS4_IS6_EEED1Ev, symObjAddr: 0x11BC, symBinAddr: 0x1000068D0, symSize: 0x2C }
  - { offsetInCU: 0x923A, offset: 0x248E5, size: 0x8, addend: 0x0, symName: __ZNKSt3__16vectorINS_12basic_stringIcNS_11char_traitsIcEENS_9allocatorIcEEEENS4_IS6_EEE8max_sizeEv, symObjAddr: 0x11E8, symBinAddr: 0x1000068FC, symSize: 0x60 }
  - { offsetInCU: 0x9261, offset: 0x2490C, size: 0x8, addend: 0x0, symName: __ZNKSt3__16vectorINS_12basic_stringIcNS_11char_traitsIcEENS_9allocatorIcEEEENS4_IS6_EEE20__throw_length_errorB8ue170006Ev, symObjAddr: 0x1248, symBinAddr: 0x10000695C, symSize: 0x1C }
  - { offsetInCU: 0x928F, offset: 0x2493A, size: 0x8, addend: 0x0, symName: __ZNSt3__116allocator_traitsINS_9allocatorINS_12basic_stringIcNS_11char_traitsIcEENS1_IcEEEEEEE8max_sizeB8ue170006IS7_vEEmRKS7_, symObjAddr: 0x12BC, symBinAddr: 0x100006978, symSize: 0x24 }
  - { offsetInCU: 0x92BD, offset: 0x24968, size: 0x8, addend: 0x0, symName: __ZNKSt3__16vectorINS_12basic_stringIcNS_11char_traitsIcEENS_9allocatorIcEEEENS4_IS6_EEE7__allocB8ue170006Ev, symObjAddr: 0x12E0, symBinAddr: 0x10000699C, symSize: 0x28 }
  - { offsetInCU: 0x92E1, offset: 0x2498C, size: 0x8, addend: 0x0, symName: __ZNKSt3__19allocatorINS_12basic_stringIcNS_11char_traitsIcEENS0_IcEEEEE8max_sizeB8ue170006Ev, symObjAddr: 0x13A4, symBinAddr: 0x1000069C4, symSize: 0x18 }
  - { offsetInCU: 0x9305, offset: 0x249B0, size: 0x8, addend: 0x0, symName: __ZNKSt3__117__compressed_pairIPNS_12basic_stringIcNS_11char_traitsIcEENS_9allocatorIcEEEENS4_IS6_EEE6secondB8ue170006Ev, symObjAddr: 0x13BC, symBinAddr: 0x1000069DC, symSize: 0x24 }
  - { offsetInCU: 0x9329, offset: 0x249D4, size: 0x8, addend: 0x0, symName: __ZNKSt3__122__compressed_pair_elemINS_9allocatorINS_12basic_stringIcNS_11char_traitsIcEENS1_IcEEEEEELi1ELb1EE5__getB8ue170006Ev, symObjAddr: 0x13E0, symBinAddr: 0x100006A00, symSize: 0x14 }
  - { offsetInCU: 0x934D, offset: 0x249F8, size: 0x8, addend: 0x0, symName: __ZNSt3__114__split_bufferINS_12basic_stringIcNS_11char_traitsIcEENS_9allocatorIcEEEERNS4_IS6_EEEC2EmmS8_, symObjAddr: 0x1534, symBinAddr: 0x100006A14, symSize: 0xE0 }
  - { offsetInCU: 0x93C0, offset: 0x24A6B, size: 0x8, addend: 0x0, symName: __ZNSt3__117__compressed_pairIPNS_12basic_stringIcNS_11char_traitsIcEENS_9allocatorIcEEEERNS4_IS6_EEEC1B8ue170006IDnS9_EEOT_OT0_, symObjAddr: 0x1614, symBinAddr: 0x100006AF4, symSize: 0x3C }
  - { offsetInCU: 0x9416, offset: 0x24AC1, size: 0x8, addend: 0x0, symName: __ZNSt3__114__split_bufferINS_12basic_stringIcNS_11char_traitsIcEENS_9allocatorIcEEEERNS4_IS6_EEE7__allocB8ue170006Ev, symObjAddr: 0x1690, symBinAddr: 0x100006B70, symSize: 0x28 }
  - { offsetInCU: 0x943A, offset: 0x24AE5, size: 0x8, addend: 0x0, symName: __ZNSt3__114__split_bufferINS_12basic_stringIcNS_11char_traitsIcEENS_9allocatorIcEEEERNS4_IS6_EEE9__end_capB8ue170006Ev, symObjAddr: 0x16B8, symBinAddr: 0x100006B98, symSize: 0x28 }
  - { offsetInCU: 0x945E, offset: 0x24B09, size: 0x8, addend: 0x0, symName: __ZNSt3__117__compressed_pairIPNS_12basic_stringIcNS_11char_traitsIcEENS_9allocatorIcEEEERNS4_IS6_EEEC2B8ue170006IDnS9_EEOT_OT0_, symObjAddr: 0x16E0, symBinAddr: 0x100006BC0, symSize: 0x48 }
  - { offsetInCU: 0x94B4, offset: 0x24B5F, size: 0x8, addend: 0x0, symName: __ZNSt3__122__compressed_pair_elemIRNS_9allocatorINS_12basic_stringIcNS_11char_traitsIcEENS1_IcEEEEEELi1ELb0EEC2B8ue170006IS8_vEEOT_, symObjAddr: 0x1728, symBinAddr: 0x100006C08, symSize: 0x20 }
  - { offsetInCU: 0x94F4, offset: 0x24B9F, size: 0x8, addend: 0x0, symName: __ZNSt3__19allocatorINS_12basic_stringIcNS_11char_traitsIcEENS0_IcEEEEE8allocateB8ue170006Em, symObjAddr: 0x1748, symBinAddr: 0x100006C28, symSize: 0x5C }
  - { offsetInCU: 0x9526, offset: 0x24BD1, size: 0x8, addend: 0x0, symName: __ZNSt3__117__compressed_pairIPNS_12basic_stringIcNS_11char_traitsIcEENS_9allocatorIcEEEERNS4_IS6_EEE6secondB8ue170006Ev, symObjAddr: 0x1888, symBinAddr: 0x100006C84, symSize: 0x28 }
  - { offsetInCU: 0x954A, offset: 0x24BF5, size: 0x8, addend: 0x0, symName: __ZNSt3__122__compressed_pair_elemIRNS_9allocatorINS_12basic_stringIcNS_11char_traitsIcEENS1_IcEEEEEELi1ELb0EE5__getB8ue170006Ev, symObjAddr: 0x18B0, symBinAddr: 0x100006CAC, symSize: 0x18 }
  - { offsetInCU: 0x956E, offset: 0x24C19, size: 0x8, addend: 0x0, symName: __ZNSt3__117__compressed_pairIPNS_12basic_stringIcNS_11char_traitsIcEENS_9allocatorIcEEEERNS4_IS6_EEE5firstB8ue170006Ev, symObjAddr: 0x18C8, symBinAddr: 0x100006CC4, symSize: 0x24 }
  - { offsetInCU: 0x9592, offset: 0x24C3D, size: 0x8, addend: 0x0, symName: __ZNSt3__116reverse_iteratorIPNS_12basic_stringIcNS_11char_traitsIcEENS_9allocatorIcEEEEEC1B8ue170006ES7_, symObjAddr: 0x1A18, symBinAddr: 0x100006E14, symSize: 0x34 }
  - { offsetInCU: 0x95C8, offset: 0x24C73, size: 0x8, addend: 0x0, symName: __ZNKSt3__116reverse_iteratorIPNS_12basic_stringIcNS_11char_traitsIcEENS_9allocatorIcEEEEE4baseB8ue170006Ev, symObjAddr: 0x1A4C, symBinAddr: 0x100006E48, symSize: 0x18 }
  - { offsetInCU: 0x95EC, offset: 0x24C97, size: 0x8, addend: 0x0, symName: __ZNKSt3__16vectorINS_12basic_stringIcNS_11char_traitsIcEENS_9allocatorIcEEEENS4_IS6_EEE14__annotate_newB8ue170006Em, symObjAddr: 0x1AA0, symBinAddr: 0x100006E9C, symSize: 0xC8 }
  - { offsetInCU: 0x961F, offset: 0x24CCA, size: 0x8, addend: 0x0, symName: __ZNSt3__129_AllocatorDestroyRangeReverseINS_9allocatorINS_12basic_stringIcNS_11char_traitsIcEENS1_IcEEEEEENS_16reverse_iteratorIPS6_EEEC1B8ue170006ERS7_RSA_SD_, symObjAddr: 0x1BB4, symBinAddr: 0x100006FB0, symSize: 0x44 }
  - { offsetInCU: 0x9674, offset: 0x24D1F, size: 0x8, addend: 0x0, symName: __ZNKSt3__116reverse_iteratorIPNS_12basic_stringIcNS_11char_traitsIcEENS_9allocatorIcEEEEEdeB8ue170006Ev, symObjAddr: 0x1C64, symBinAddr: 0x100007060, symSize: 0x28 }
  - { offsetInCU: 0x96A7, offset: 0x24D52, size: 0x8, addend: 0x0, symName: __ZNSt3__116reverse_iteratorIPNS_12basic_stringIcNS_11char_traitsIcEENS_9allocatorIcEEEEEppB8ue170006Ev, symObjAddr: 0x1C8C, symBinAddr: 0x100007088, symSize: 0x20 }
  - { offsetInCU: 0x96CB, offset: 0x24D76, size: 0x8, addend: 0x0, symName: __ZNSt3__128__exception_guard_exceptionsINS_29_AllocatorDestroyRangeReverseINS_9allocatorINS_12basic_stringIcNS_11char_traitsIcEENS2_IcEEEEEENS_16reverse_iteratorIPS7_EEEEE10__completeB8ue170006Ev, symObjAddr: 0x1CAC, symBinAddr: 0x1000070A8, symSize: 0x1C }
  - { offsetInCU: 0x96EF, offset: 0x24D9A, size: 0x8, addend: 0x0, symName: __ZNSt3__128__exception_guard_exceptionsINS_29_AllocatorDestroyRangeReverseINS_9allocatorINS_12basic_stringIcNS_11char_traitsIcEENS2_IcEEEEEENS_16reverse_iteratorIPS7_EEEEED1B8ue170006Ev, symObjAddr: 0x1CC8, symBinAddr: 0x1000070C4, symSize: 0x2C }
  - { offsetInCU: 0x9717, offset: 0x24DC2, size: 0x8, addend: 0x0, symName: __ZNSt3__128__exception_guard_exceptionsINS_29_AllocatorDestroyRangeReverseINS_9allocatorINS_12basic_stringIcNS_11char_traitsIcEENS2_IcEEEEEENS_16reverse_iteratorIPS7_EEEEEC1B8ue170006ESC_, symObjAddr: 0x1CF4, symBinAddr: 0x1000070F0, symSize: 0x34 }
  - { offsetInCU: 0x974E, offset: 0x24DF9, size: 0x8, addend: 0x0, symName: __ZNSt3__128__exception_guard_exceptionsINS_29_AllocatorDestroyRangeReverseINS_9allocatorINS_12basic_stringIcNS_11char_traitsIcEENS2_IcEEEEEENS_16reverse_iteratorIPS7_EEEEEC2B8ue170006ESC_, symObjAddr: 0x1D28, symBinAddr: 0x100007124, symSize: 0x30 }
  - { offsetInCU: 0x9785, offset: 0x24E30, size: 0x8, addend: 0x0, symName: __ZNSt3__129_AllocatorDestroyRangeReverseINS_9allocatorINS_12basic_stringIcNS_11char_traitsIcEENS1_IcEEEEEENS_16reverse_iteratorIPS6_EEEC2B8ue170006ERS7_RSA_SD_, symObjAddr: 0x1D58, symBinAddr: 0x100007154, symSize: 0x38 }
  - { offsetInCU: 0x97DF, offset: 0x24E8A, size: 0x8, addend: 0x0, symName: __ZNSt3__119__to_address_helperINS_16reverse_iteratorIPNS_12basic_stringIcNS_11char_traitsIcEENS_9allocatorIcEEEEEEvE6__callB8ue170006ERKS9_, symObjAddr: 0x1D90, symBinAddr: 0x10000718C, symSize: 0x38 }
  - { offsetInCU: 0x9802, offset: 0x24EAD, size: 0x8, addend: 0x0, symName: __ZNKSt3__116reverse_iteratorIPNS_12basic_stringIcNS_11char_traitsIcEENS_9allocatorIcEEEEEptB8ue170006Ev, symObjAddr: 0x1DC8, symBinAddr: 0x1000071C4, symSize: 0x24 }
  - { offsetInCU: 0x9826, offset: 0x24ED1, size: 0x8, addend: 0x0, symName: __ZNSt3__128__exception_guard_exceptionsINS_29_AllocatorDestroyRangeReverseINS_9allocatorINS_12basic_stringIcNS_11char_traitsIcEENS2_IcEEEEEENS_16reverse_iteratorIPS7_EEEEED2B8ue170006Ev, symObjAddr: 0x1DEC, symBinAddr: 0x1000071E8, symSize: 0x50 }
  - { offsetInCU: 0x984E, offset: 0x24EF9, size: 0x8, addend: 0x0, symName: __ZNKSt3__129_AllocatorDestroyRangeReverseINS_9allocatorINS_12basic_stringIcNS_11char_traitsIcEENS1_IcEEEEEENS_16reverse_iteratorIPS6_EEEclB8ue170006Ev, symObjAddr: 0x1E3C, symBinAddr: 0x100007238, symSize: 0xB4 }
  - { offsetInCU: 0x9873, offset: 0x24F1E, size: 0x8, addend: 0x0, symName: __ZNSt3__116reverse_iteratorINS0_IPNS_12basic_stringIcNS_11char_traitsIcEENS_9allocatorIcEEEEEEEC1B8ue170006ES8_, symObjAddr: 0x1F60, symBinAddr: 0x10000735C, symSize: 0x3C }
  - { offsetInCU: 0x98A9, offset: 0x24F54, size: 0x8, addend: 0x0, symName: __ZNSt3__116reverse_iteratorINS0_IPNS_12basic_stringIcNS_11char_traitsIcEENS_9allocatorIcEEEEEEEppB8ue170006Ev, symObjAddr: 0x2020, symBinAddr: 0x10000741C, symSize: 0x30 }
  - { offsetInCU: 0x98CD, offset: 0x24F78, size: 0x8, addend: 0x0, symName: __ZNKSt3__116reverse_iteratorINS0_IPNS_12basic_stringIcNS_11char_traitsIcEENS_9allocatorIcEEEEEEE4baseB8ue170006Ev, symObjAddr: 0x2050, symBinAddr: 0x10000744C, symSize: 0x24 }
  - { offsetInCU: 0x98F6, offset: 0x24FA1, size: 0x8, addend: 0x0, symName: __ZNSt3__119__to_address_helperINS_16reverse_iteratorINS1_IPNS_12basic_stringIcNS_11char_traitsIcEENS_9allocatorIcEEEEEEEEvE6__callB8ue170006ERKSA_, symObjAddr: 0x2074, symBinAddr: 0x100007470, symSize: 0x38 }
  - { offsetInCU: 0x9919, offset: 0x24FC4, size: 0x8, addend: 0x0, symName: __ZNKSt3__116reverse_iteratorINS0_IPNS_12basic_stringIcNS_11char_traitsIcEENS_9allocatorIcEEEEEEEptB8ue170006Ev, symObjAddr: 0x20AC, symBinAddr: 0x1000074A8, symSize: 0x24 }
  - { offsetInCU: 0x993D, offset: 0x24FE8, size: 0x8, addend: 0x0, symName: __ZNKSt3__116reverse_iteratorINS0_IPNS_12basic_stringIcNS_11char_traitsIcEENS_9allocatorIcEEEEEEEdeB8ue170006Ev, symObjAddr: 0x20D0, symBinAddr: 0x1000074CC, symSize: 0x34 }
  - { offsetInCU: 0x9970, offset: 0x2501B, size: 0x8, addend: 0x0, symName: __ZNSt3__116reverse_iteratorIPNS_12basic_stringIcNS_11char_traitsIcEENS_9allocatorIcEEEEEmmB8ue170006Ev, symObjAddr: 0x2104, symBinAddr: 0x100007500, symSize: 0x20 }
  - { offsetInCU: 0x9994, offset: 0x2503F, size: 0x8, addend: 0x0, symName: __ZNSt3__116reverse_iteratorINS0_IPNS_12basic_stringIcNS_11char_traitsIcEENS_9allocatorIcEEEEEEEC2B8ue170006ES8_, symObjAddr: 0x2124, symBinAddr: 0x100007520, symSize: 0x2C }
  - { offsetInCU: 0x99CA, offset: 0x25075, size: 0x8, addend: 0x0, symName: __ZNSt3__116reverse_iteratorIPNS_12basic_stringIcNS_11char_traitsIcEENS_9allocatorIcEEEEEC2B8ue170006ES7_, symObjAddr: 0x2150, symBinAddr: 0x10000754C, symSize: 0x28 }
  - { offsetInCU: 0x9A00, offset: 0x250AB, size: 0x8, addend: 0x0, symName: __ZNSt3__114__split_bufferINS_12basic_stringIcNS_11char_traitsIcEENS_9allocatorIcEEEERNS4_IS6_EEED2Ev, symObjAddr: 0x2178, symBinAddr: 0x100007574, symSize: 0x8C }
  - { offsetInCU: 0x9A2B, offset: 0x250D6, size: 0x8, addend: 0x0, symName: __ZNSt3__114__split_bufferINS_12basic_stringIcNS_11char_traitsIcEENS_9allocatorIcEEEERNS4_IS6_EEE5clearB8ue170006Ev, symObjAddr: 0x2204, symBinAddr: 0x100007600, symSize: 0x28 }
  - { offsetInCU: 0x9A4F, offset: 0x250FA, size: 0x8, addend: 0x0, symName: __ZNKSt3__114__split_bufferINS_12basic_stringIcNS_11char_traitsIcEENS_9allocatorIcEEEERNS4_IS6_EEE8capacityB8ue170006Ev, symObjAddr: 0x222C, symBinAddr: 0x100007628, symSize: 0x40 }
  - { offsetInCU: 0x9A73, offset: 0x2511E, size: 0x8, addend: 0x0, symName: __ZNSt3__114__split_bufferINS_12basic_stringIcNS_11char_traitsIcEENS_9allocatorIcEEEERNS4_IS6_EEE17__destruct_at_endB8ue170006EPS6_, symObjAddr: 0x226C, symBinAddr: 0x100007668, symSize: 0x2C }
  - { offsetInCU: 0x9AA4, offset: 0x2514F, size: 0x8, addend: 0x0, symName: __ZNSt3__114__split_bufferINS_12basic_stringIcNS_11char_traitsIcEENS_9allocatorIcEEEERNS4_IS6_EEE17__destruct_at_endB8ue170006EPS6_NS_17integral_constantIbLb0EEE, symObjAddr: 0x2298, symBinAddr: 0x100007694, symSize: 0x80 }
  - { offsetInCU: 0x9AE3, offset: 0x2518E, size: 0x8, addend: 0x0, symName: __ZNKSt3__114__split_bufferINS_12basic_stringIcNS_11char_traitsIcEENS_9allocatorIcEEEERNS4_IS6_EEE9__end_capB8ue170006Ev, symObjAddr: 0x2318, symBinAddr: 0x100007714, symSize: 0x28 }
  - { offsetInCU: 0x9B07, offset: 0x251B2, size: 0x8, addend: 0x0, symName: __ZNKSt3__117__compressed_pairIPNS_12basic_stringIcNS_11char_traitsIcEENS_9allocatorIcEEEERNS4_IS6_EEE5firstB8ue170006Ev, symObjAddr: 0x2340, symBinAddr: 0x10000773C, symSize: 0x24 }
  - { offsetInCU: 0x9B2B, offset: 0x251D6, size: 0x8, addend: 0x0, symName: __ZNSt3__112basic_stringIcNS_11char_traitsIcEENS_9allocatorIcEEEC2B8ue170006ILi0EEEPKc, symObjAddr: 0x2364, symBinAddr: 0x100007760, symSize: 0x58 }
  - { offsetInCU: 0x9B69, offset: 0x25214, size: 0x8, addend: 0x0, symName: __ZNSt3__112basic_stringIcNS_11char_traitsIcEENS_9allocatorIcEEEC2B8ue170006Ev, symObjAddr: 0x2E9C, symBinAddr: 0x1000077B8, symSize: 0x44 }
  - { offsetInCU: 0x9C23, offset: 0x252CE, size: 0x8, addend: 0x0, symName: __ZNKSt3__113basic_istreamIcNS_11char_traitsIcEEE6sentrycvbB8ue170006Ev, symObjAddr: 0x3118, symBinAddr: 0x100007A34, symSize: 0x1C }
  - { offsetInCU: 0x9C46, offset: 0x252F1, size: 0x8, addend: 0x0, symName: __ZNSt3__112basic_stringIcNS_11char_traitsIcEENS_9allocatorIcEEE5clearB8ue170006Ev, symObjAddr: 0x3134, symBinAddr: 0x100007A50, symSize: 0x78 }
  - { offsetInCU: 0x9C6D, offset: 0x25318, size: 0x8, addend: 0x0, symName: __ZNSt3__115basic_streambufIcNS_11char_traitsIcEEE6sbumpcB8ue170006Ev, symObjAddr: 0x31AC, symBinAddr: 0x100007AC8, symSize: 0x78 }
  - { offsetInCU: 0x9C91, offset: 0x2533C, size: 0x8, addend: 0x0, symName: __ZNSt3__111char_traitsIcE12to_char_typeB8ue170006Ei, symObjAddr: 0x3224, symBinAddr: 0x100007B40, symSize: 0x18 }
  - { offsetInCU: 0x9CB3, offset: 0x2535E, size: 0x8, addend: 0x0, symName: __ZNSt3__111char_traitsIcE2eqEcc, symObjAddr: 0x323C, symBinAddr: 0x100007B58, symSize: 0x28 }
  - { offsetInCU: 0x9CE3, offset: 0x2538E, size: 0x8, addend: 0x0, symName: __ZNKSt3__112basic_stringIcNS_11char_traitsIcEENS_9allocatorIcEEE4sizeB8ue170006Ev, symObjAddr: 0x3264, symBinAddr: 0x100007B80, symSize: 0x54 }
  - { offsetInCU: 0x9D07, offset: 0x253B2, size: 0x8, addend: 0x0, symName: __ZNKSt3__112basic_stringIcNS_11char_traitsIcEENS_9allocatorIcEEE8max_sizeB8ue170006Ev, symObjAddr: 0x32B8, symBinAddr: 0x100007BD4, symSize: 0xAC }
  - { offsetInCU: 0x9D58, offset: 0x25403, size: 0x8, addend: 0x0, symName: __ZNSt3__18ios_base18__setstate_nothrowB8ue170006Ej, symObjAddr: 0x3364, symBinAddr: 0x100007C80, symSize: 0x64 }
  - { offsetInCU: 0x9D8B, offset: 0x25436, size: 0x8, addend: 0x0, symName: __ZNKSt3__19basic_iosIcNS_11char_traitsIcEEE10exceptionsB8ue170006Ev, symObjAddr: 0x33C8, symBinAddr: 0x100007CE4, symSize: 0x24 }
  - { offsetInCU: 0x9DAF, offset: 0x2545A, size: 0x8, addend: 0x0, symName: __ZNSt3__111char_traitsIcE6assignB8ue170006ERcRKc, symObjAddr: 0x33EC, symBinAddr: 0x100007D08, symSize: 0x24 }
  - { offsetInCU: 0x9DDF, offset: 0x2548A, size: 0x8, addend: 0x0, symName: __ZNSt3__112basic_stringIcNS_11char_traitsIcEENS_9allocatorIcEEE15__set_long_sizeB8ue170006Em, symObjAddr: 0x3410, symBinAddr: 0x100007D2C, symSize: 0x38 }
  - { offsetInCU: 0x9E12, offset: 0x254BD, size: 0x8, addend: 0x0, symName: __ZNSt3__112basic_stringIcNS_11char_traitsIcEENS_9allocatorIcEEE16__set_short_sizeB8ue170006Em, symObjAddr: 0x3448, symBinAddr: 0x100007D64, symSize: 0x78 }
  - { offsetInCU: 0x9E45, offset: 0x254F0, size: 0x8, addend: 0x0, symName: __ZNSt3__111char_traitsIcE11to_int_typeB8ue170006Ec, symObjAddr: 0x34C0, symBinAddr: 0x100007DDC, symSize: 0x14 }
  - { offsetInCU: 0x9E68, offset: 0x25513, size: 0x8, addend: 0x0, symName: __ZNKSt3__112basic_stringIcNS_11char_traitsIcEENS_9allocatorIcEEE15__get_long_sizeB8ue170006Ev, symObjAddr: 0x34D4, symBinAddr: 0x100007DF0, symSize: 0x28 }
  - { offsetInCU: 0x9E8C, offset: 0x25537, size: 0x8, addend: 0x0, symName: __ZNKSt3__112basic_stringIcNS_11char_traitsIcEENS_9allocatorIcEEE16__get_short_sizeB8ue170006Ev, symObjAddr: 0x34FC, symBinAddr: 0x100007E18, symSize: 0x34 }
  - { offsetInCU: 0x9EBA, offset: 0x25565, size: 0x8, addend: 0x0, symName: __ZNSt3__116allocator_traitsINS_9allocatorIcEEE8max_sizeB8ue170006IS2_vEEmRKS2_, symObjAddr: 0x3530, symBinAddr: 0x100007E4C, symSize: 0x24 }
  - { offsetInCU: 0x9EE8, offset: 0x25593, size: 0x8, addend: 0x0, symName: __ZNKSt3__112basic_stringIcNS_11char_traitsIcEENS_9allocatorIcEEE7__allocB8ue170006Ev, symObjAddr: 0x3554, symBinAddr: 0x100007E70, symSize: 0x24 }
  - { offsetInCU: 0x9F0C, offset: 0x255B7, size: 0x8, addend: 0x0, symName: __ZNSt3__114numeric_limitsImE3maxB8ue170006Ev, symObjAddr: 0x3578, symBinAddr: 0x100007E94, symSize: 0x14 }
  - { offsetInCU: 0x9F20, offset: 0x255CB, size: 0x8, addend: 0x0, symName: __ZNKSt3__19allocatorIcE8max_sizeB8ue170006Ev, symObjAddr: 0x358C, symBinAddr: 0x100007EA8, symSize: 0x14 }
  - { offsetInCU: 0x9F44, offset: 0x255EF, size: 0x8, addend: 0x0, symName: __ZNKSt3__117__compressed_pairINS_12basic_stringIcNS_11char_traitsIcEENS_9allocatorIcEEE5__repES5_E6secondB8ue170006Ev, symObjAddr: 0x35A0, symBinAddr: 0x100007EBC, symSize: 0x24 }
  - { offsetInCU: 0x9F68, offset: 0x25613, size: 0x8, addend: 0x0, symName: __ZNKSt3__122__compressed_pair_elemINS_9allocatorIcEELi1ELb1EE5__getB8ue170006Ev, symObjAddr: 0x35C4, symBinAddr: 0x100007EE0, symSize: 0x14 }
  - { offsetInCU: 0x9F8C, offset: 0x25637, size: 0x8, addend: 0x0, symName: __ZNSt3__123__libcpp_numeric_limitsImLb1EE3maxB8ue170006Ev, symObjAddr: 0x35D8, symBinAddr: 0x100007EF4, symSize: 0x8 }
  - { offsetInCU: 0x9F9F, offset: 0x2564A, size: 0x8, addend: 0x0, symName: __ZNKSt3__18ios_base10exceptionsB8ue170006Ev, symObjAddr: 0x35E0, symBinAddr: 0x100007EFC, symSize: 0x18 }
  - { offsetInCU: 0x8C, offset: 0x25791, size: 0x8, addend: 0x0, symName: __ZN12PinochleGame10meldPointsE, symObjAddr: 0xDA44, symBinAddr: 0x100034000, symSize: 0x0 }
  - { offsetInCU: 0x87C6, offset: 0x2DECB, size: 0x8, addend: 0x0, symName: __ZNSt3__119piecewise_constructE, symObjAddr: 0xDAB3, symBinAddr: 0x10002E7CD, symSize: 0x0 }
  - { offsetInCU: 0xBFF1, offset: 0x316F6, size: 0x8, addend: 0x0, symName: __ZNSt3__19__shuffleB8ue170006INS_17_ClassicAlgPolicyENS_11__wrap_iterIP4CardI12PinochleRank4SuitEEES8_RNS_23mersenne_twister_engineIjLm32ELm624ELm397ELm31ELj2567483615ELm11ELj4294967295ELm7ELj2636928640ELm15ELj4022730752ELm18ELj1812433253EEEEET0_SC_T1_OT2_, symObjAddr: 0xC6F8, symBinAddr: 0x100011680, symSize: 0x13C }
  - { offsetInCU: 0xDBC2, offset: 0x332C7, size: 0x8, addend: 0x0, symName: __ZNSt3__1neB8ue170006IP4CardI12PinochleRank4SuitEEEbRKNS_11__wrap_iterIT_EESA_, symObjAddr: 0x1224, symBinAddr: 0x1000090B8, symSize: 0x34 }
  - { offsetInCU: 0xDC05, offset: 0x3330A, size: 0x8, addend: 0x0, symName: __ZNSt3__1lsB8ue170006IcNS_11char_traitsIcEENS_9allocatorIcEEEERNS_13basic_ostreamIT_T0_EES9_RKNS_12basic_stringIS6_S7_T1_EE, symObjAddr: 0x1618, symBinAddr: 0x100009464, symSize: 0x4C }
  - { offsetInCU: 0xDC5D, offset: 0x33362, size: 0x8, addend: 0x0, symName: __ZNSt3__1neB8ue170006IP13PinochleMeldsEEbRKNS_11__wrap_iterIT_EES7_, symObjAddr: 0x1838, symBinAddr: 0x100009684, symSize: 0x34 }
  - { offsetInCU: 0xDCA0, offset: 0x333A5, size: 0x8, addend: 0x0, symName: __ZNSt3__14endlB8ue170006IcNS_11char_traitsIcEEEERNS_13basic_ostreamIT_T0_EES7_, symObjAddr: 0x1C34, symBinAddr: 0x100009A80, symSize: 0x58 }
  - { offsetInCU: 0xDCE0, offset: 0x333E5, size: 0x8, addend: 0x0, symName: __ZNSt3__122__make_exception_guardB8ue170006INS_6vectorI4CardI12PinochleRank4SuitENS_9allocatorIS5_EEE16__destroy_vectorEEENS_28__exception_guard_exceptionsIT_EESB_, symObjAddr: 0x3080, symBinAddr: 0x10000A064, symSize: 0x40 }
  - { offsetInCU: 0xDD15, offset: 0x3341A, size: 0x8, addend: 0x0, symName: __ZNSt3__130__uninitialized_allocator_copyB8ue170006INS_9allocatorI4CardI12PinochleRank4SuitEEEPS5_S7_S7_EET2_RT_T0_T1_S8_, symObjAddr: 0x37C4, symBinAddr: 0x10000A27C, symSize: 0x80 }
  - { offsetInCU: 0xDDB2, offset: 0x334B7, size: 0x8, addend: 0x0, symName: __ZNSt3__114__unwrap_rangeB8ue170006IP4CardI12PinochleRank4SuitES5_EENS_4pairIT0_S7_EET_S9_, symObjAddr: 0x38B4, symBinAddr: 0x10000A2FC, symSize: 0x60 }
  - { offsetInCU: 0xDDFE, offset: 0x33503, size: 0x8, addend: 0x0, symName: __ZNSt3__135__uninitialized_allocator_copy_implB8ue170006INS_9allocatorI4CardI12PinochleRank4SuitEEES5_S5_S5_LPv0EEEPT2_RT_PT0_SD_S9_, symObjAddr: 0x3914, symBinAddr: 0x10000A35C, symSize: 0x38 }
  - { offsetInCU: 0xDE81, offset: 0x33586, size: 0x8, addend: 0x0, symName: __ZNSt3__113__unwrap_iterB8ue170006IP4CardI12PinochleRank4SuitENS_18__unwrap_iter_implIS5_Lb1EEELi0EEEDTclsrT0_8__unwrapclsr3stdE7declvalIT_EEEES9_, symObjAddr: 0x394C, symBinAddr: 0x10000A394, symSize: 0x24 }
  - { offsetInCU: 0xDEC6, offset: 0x335CB, size: 0x8, addend: 0x0, symName: __ZNSt3__113__rewrap_iterB8ue170006IP4CardI12PinochleRank4SuitES5_NS_18__unwrap_iter_implIS5_Lb1EEEEET_S8_T0_, symObjAddr: 0x3970, symBinAddr: 0x10000A3B8, symSize: 0x3C }
  - { offsetInCU: 0xDF1B, offset: 0x33620, size: 0x8, addend: 0x0, symName: __ZNSt3__19make_pairB8ue170006IP4CardI12PinochleRank4SuitES5_EENS_4pairINS_18__unwrap_ref_decayIT_E4typeENS7_IT0_E4typeEEEOS8_OSB_, symObjAddr: 0x39AC, symBinAddr: 0x10000A3F4, symSize: 0x38 }
  - { offsetInCU: 0xE06F, offset: 0x33774, size: 0x8, addend: 0x0, symName: __ZNSt3__14copyB8ue170006IP4CardI12PinochleRank4SuitES5_EET0_T_S7_S6_, symObjAddr: 0x3A54, symBinAddr: 0x10000A49C, symSize: 0x40 }
  - { offsetInCU: 0xE0C9, offset: 0x337CE, size: 0x8, addend: 0x0, symName: __ZNSt3__16__copyB8ue170006INS_17_ClassicAlgPolicyEP4CardI12PinochleRank4SuitES6_S6_EENS_4pairIT0_T2_EES8_T1_S9_, symObjAddr: 0x3A94, symBinAddr: 0x10000A4DC, symSize: 0x44 }
  - { offsetInCU: 0xE135, offset: 0x3383A, size: 0x8, addend: 0x0, symName: __ZNSt3__123__dispatch_copy_or_moveB8ue170006INS_17_ClassicAlgPolicyENS_11__copy_loopIS1_EENS_14__copy_trivialEP4CardI12PinochleRank4SuitES9_S9_EENS_4pairIT2_T4_EESB_T3_SC_, symObjAddr: 0x3AD8, symBinAddr: 0x10000A520, symSize: 0x44 }
  - { offsetInCU: 0xE1B3, offset: 0x338B8, size: 0x8, addend: 0x0, symName: __ZNSt3__121__unwrap_and_dispatchB8ue170006INS_10__overloadINS_11__copy_loopINS_17_ClassicAlgPolicyEEENS_14__copy_trivialEEEP4CardI12PinochleRank4SuitESB_SB_Li0EEENS_4pairIT0_T2_EESD_T1_SE_, symObjAddr: 0x3B1C, symBinAddr: 0x10000A564, symSize: 0xB4 }
  - { offsetInCU: 0xE28B, offset: 0x33990, size: 0x8, addend: 0x0, symName: __ZNSt3__114__rewrap_rangeB8ue170006IP4CardI12PinochleRank4SuitES5_EET_S6_T0_, symObjAddr: 0x3C18, symBinAddr: 0x10000A660, symSize: 0x2C }
  - { offsetInCU: 0xE2D7, offset: 0x339DC, size: 0x8, addend: 0x0, symName: __ZNSt3__119__copy_trivial_implB8ue170006I4CardI12PinochleRank4SuitES4_EENS_4pairIPT_PT0_EES7_S7_S9_, symObjAddr: 0x3C44, symBinAddr: 0x10000A68C, symSize: 0x80 }
  - { offsetInCU: 0xE340, offset: 0x33A45, size: 0x8, addend: 0x0, symName: __ZNSt3__119__constexpr_memmoveB8ue170006I4CardI12PinochleRank4SuitES4_Li0EEEPT_S6_PT0_NS_15__element_countE, symObjAddr: 0x3CC4, symBinAddr: 0x10000A70C, symSize: 0x64 }
  - { offsetInCU: 0xE3B0, offset: 0x33AB5, size: 0x8, addend: 0x0, symName: __ZNSt3__19make_pairB8ue170006IRP4CardI12PinochleRank4SuitES5_EENS_4pairINS_18__unwrap_ref_decayIT_E4typeENS8_IT0_E4typeEEEOS9_OSC_, symObjAddr: 0x3D28, symBinAddr: 0x10000A770, symSize: 0x38 }
  - { offsetInCU: 0xE453, offset: 0x33B58, size: 0x8, addend: 0x0, symName: __ZNSt3__1eqB8ue170006IP4CardI12PinochleRank4SuitEEEbRKNS_11__wrap_iterIT_EESA_, symObjAddr: 0x3EAC, symBinAddr: 0x10000A8D4, symSize: 0x48 }
  - { offsetInCU: 0xE496, offset: 0x33B9B, size: 0x8, addend: 0x0, symName: __ZNSt3__1eqB8ue170006IP13PinochleMeldsEEbRKNS_11__wrap_iterIT_EES7_, symObjAddr: 0x3F0C, symBinAddr: 0x10000A934, symSize: 0x48 }
  - { offsetInCU: 0xE4D9, offset: 0x33BDE, size: 0x8, addend: 0x0, symName: __ZNSt3__112__to_addressB8ue170006I7CardSetI12PinochleRank4SuitEEEPT_S6_, symObjAddr: 0x4678, symBinAddr: 0x10000AEF8, symSize: 0x14 }
  - { offsetInCU: 0xE50E, offset: 0x33C13, size: 0x8, addend: 0x0, symName: __ZNSt3__119__allocate_at_leastB8ue170006INS_9allocatorI7CardSetI12PinochleRank4SuitEEEEENS_19__allocation_resultINS_16allocator_traitsIT_E7pointerEEERS9_m, symObjAddr: 0x4FAC, symBinAddr: 0x10000B7AC, symSize: 0x40 }
  - { offsetInCU: 0xE551, offset: 0x33C56, size: 0x8, addend: 0x0, symName: __ZNSt3__142__uninitialized_allocator_move_if_noexceptB8ue170006INS_9allocatorI7CardSetI12PinochleRank4SuitEEENS_16reverse_iteratorIPS5_EES9_S9_EET2_RT_T0_T1_SA_, symObjAddr: 0x5160, symBinAddr: 0x10000B960, symSize: 0x12C }
  - { offsetInCU: 0xE5F1, offset: 0x33CF6, size: 0x8, addend: 0x0, symName: __ZNSt3__14swapB8ue170006IP7CardSetI12PinochleRank4SuitEEENS_9enable_ifIXaasr21is_move_constructibleIT_EE5valuesr18is_move_assignableIS7_EE5valueEvE4typeERS7_SA_, symObjAddr: 0x52D8, symBinAddr: 0x10000BAD8, symSize: 0x3C }
  - { offsetInCU: 0xE643, offset: 0x33D48, size: 0x8, addend: 0x0, symName: __ZNSt3__122__make_exception_guardB8ue170006INS_29_AllocatorDestroyRangeReverseINS_9allocatorI7CardSetI12PinochleRank4SuitEEENS_16reverse_iteratorIPS6_EEEEEENS_28__exception_guard_exceptionsIT_EESD_, symObjAddr: 0x53C0, symBinAddr: 0x10000BBC0, symSize: 0x4C }
  - { offsetInCU: 0xE679, offset: 0x33D7E, size: 0x8, addend: 0x0, symName: __ZNSt3__1neB8ue170006IP7CardSetI12PinochleRank4SuitES5_EEbRKNS_16reverse_iteratorIT_EERKNS6_IT0_EE, symObjAddr: 0x5450, symBinAddr: 0x10000BC50, symSize: 0x48 }
  - { offsetInCU: 0xE6C5, offset: 0x33DCA, size: 0x8, addend: 0x0, symName: __ZNSt3__112__to_addressB8ue170006INS_16reverse_iteratorIP7CardSetI12PinochleRank4SuitEEEvEEu7__decayIDTclsr19__to_address_helperIT_EE6__callclsr3stdE7declvalIRKS8_EEEEESA_, symObjAddr: 0x54CC, symBinAddr: 0x10000BCCC, symSize: 0x24 }
  - { offsetInCU: 0xE725, offset: 0x33E2A, size: 0x8, addend: 0x0, symName: __ZNSt3__119__allocator_destroyB8ue170006INS_9allocatorI7CardSetI12PinochleRank4SuitEEENS_16reverse_iteratorINS7_IPS5_EEEESA_EEvRT_T0_T1_, symObjAddr: 0x57AC, symBinAddr: 0x10000BFAC, symSize: 0x70 }
  - { offsetInCU: 0xE78B, offset: 0x33E90, size: 0x8, addend: 0x0, symName: __ZNSt3__1neB8ue170006INS_16reverse_iteratorIP7CardSetI12PinochleRank4SuitEEES7_EEbRKNS1_IT_EERKNS1_IT0_EE, symObjAddr: 0x5858, symBinAddr: 0x10000C058, symSize: 0x60 }
  - { offsetInCU: 0xE7D7, offset: 0x33EDC, size: 0x8, addend: 0x0, symName: __ZNSt3__112__to_addressB8ue170006INS_16reverse_iteratorINS1_IP7CardSetI12PinochleRank4SuitEEEEEvEEu7__decayIDTclsr19__to_address_helperIT_EE6__callclsr3stdE7declvalIRKS9_EEEEESB_, symObjAddr: 0x58B8, symBinAddr: 0x10000C0B8, symSize: 0x24 }
  - { offsetInCU: 0xE9BF, offset: 0x340C4, size: 0x8, addend: 0x0, symName: __ZNSt3__17launderB8ue170006INS_4pairIK4SuitiEEEEPT_S6_, symObjAddr: 0x7698, symBinAddr: 0x10000D0CC, symSize: 0x24 }
  - { offsetInCU: 0xE9F6, offset: 0x340FB, size: 0x8, addend: 0x0, symName: __ZNSt3__19__launderB8ue170006INS_4pairIK4SuitiEEEEPT_S6_, symObjAddr: 0x76BC, symBinAddr: 0x10000D0F0, symSize: 0x14 }
  - { offsetInCU: 0xEA66, offset: 0x3416B, size: 0x8, addend: 0x0, symName: __ZNSt3__116forward_as_tupleB8ue170006IJRK4SuitEEENS_5tupleIJDpOT_EEES7_, symObjAddr: 0x7F28, symBinAddr: 0x10000D95C, symSize: 0x2C }
  - { offsetInCU: 0xEA9F, offset: 0x341A4, size: 0x8, addend: 0x0, symName: __ZNSt3__116forward_as_tupleB8ue170006IJEEENS_5tupleIJDpOT_EEES4_, symObjAddr: 0x7F54, symBinAddr: 0x10000D988, symSize: 0x4 }
  - { offsetInCU: 0xEAC5, offset: 0x341CA, size: 0x8, addend: 0x0, symName: __ZNSt3__116__constrain_hashB8ue170006Emm, symObjAddr: 0x8008, symBinAddr: 0x10000DA3C, symSize: 0x98 }
  - { offsetInCU: 0xEAFF, offset: 0x34204, size: 0x8, addend: 0x0, symName: __ZNSt3__116__is_hash_power2B8ue170006Em, symObjAddr: 0x8328, symBinAddr: 0x10000DD5C, symSize: 0x50 }
  - { offsetInCU: 0xEB83, offset: 0x34288, size: 0x8, addend: 0x0, symName: __ZNSt3__17launderB8ue170006IKNS_4pairIK4SuitiEEEEPT_S7_, symObjAddr: 0x86E8, symBinAddr: 0x10000E11C, symSize: 0x24 }
  - { offsetInCU: 0xEBBA, offset: 0x342BF, size: 0x8, addend: 0x0, symName: __ZNSt3__19__launderB8ue170006IKNS_4pairIK4SuitiEEEEPT_S7_, symObjAddr: 0x870C, symBinAddr: 0x10000E140, symSize: 0x14 }
  - { offsetInCU: 0xEC1C, offset: 0x34321, size: 0x8, addend: 0x0, symName: __ZNSt3__13getB8ue170006ILm0EJRK4SuitEEERNS_13tuple_elementIXT_ENS_5tupleIJDpT0_EEEE4typeERS8_, symObjAddr: 0x8B28, symBinAddr: 0x10000E55C, symSize: 0x24 }
  - { offsetInCU: 0xEC5F, offset: 0x34364, size: 0x8, addend: 0x0, symName: __ZNSt3__116__next_hash_pow2B8ue170006Em, symObjAddr: 0x902C, symBinAddr: 0x10000EA60, symSize: 0x6C }
  - { offsetInCU: 0xEC8B, offset: 0x34390, size: 0x8, addend: 0x0, symName: __ZNSt3__112__libcpp_clzB8ue170006Em, symObjAddr: 0x91F0, symBinAddr: 0x10000EC24, symSize: 0x1C }
  - { offsetInCU: 0xED0F, offset: 0x34414, size: 0x8, addend: 0x0, symName: __ZNSt3__116forward_as_tupleB8ue170006IJ4SuitEEENS_5tupleIJDpOT_EEES5_, symObjAddr: 0x99C4, symBinAddr: 0x10000F3F8, symSize: 0x2C }
  - { offsetInCU: 0xED48, offset: 0x3444D, size: 0x8, addend: 0x0, symName: __ZNSt3__13getB8ue170006ILm0EJO4SuitEEERNS_13tuple_elementIXT_ENS_5tupleIJDpT0_EEEE4typeERS7_, symObjAddr: 0x9C90, symBinAddr: 0x10000F6C4, symSize: 0x24 }
  - { offsetInCU: 0xEDA0, offset: 0x344A5, size: 0x8, addend: 0x0, symName: __ZNSt3__112__to_addressB8ue170006I13PinochleMeldsEEPT_S3_, symObjAddr: 0xA01C, symBinAddr: 0x10000FA50, symSize: 0x14 }
  - { offsetInCU: 0xEDD5, offset: 0x344DA, size: 0x8, addend: 0x0, symName: __ZNSt3__119__allocate_at_leastB8ue170006INS_9allocatorI13PinochleMeldsEEEENS_19__allocation_resultINS_16allocator_traitsIT_E7pointerEEERS6_m, symObjAddr: 0xA640, symBinAddr: 0x100010074, symSize: 0x40 }
  - { offsetInCU: 0xEE18, offset: 0x3451D, size: 0x8, addend: 0x0, symName: __ZNSt3__142__uninitialized_allocator_move_if_noexceptB8ue170006INS_9allocatorI13PinochleMeldsEENS_16reverse_iteratorIPS2_EES6_S2_vEET1_RT_T0_SA_S7_, symObjAddr: 0xA8C8, symBinAddr: 0x1000102FC, symSize: 0x78 }
  - { offsetInCU: 0xEE96, offset: 0x3459B, size: 0x8, addend: 0x0, symName: __ZNSt3__14swapB8ue170006IP13PinochleMeldsEENS_9enable_ifIXaasr21is_move_constructibleIT_EE5valuesr18is_move_assignableIS4_EE5valueEvE4typeERS4_S7_, symObjAddr: 0xA98C, symBinAddr: 0x1000103C0, symSize: 0x3C }
  - { offsetInCU: 0xEEE8, offset: 0x345ED, size: 0x8, addend: 0x0, symName: __ZNSt3__14moveB8ue170006INS_16reverse_iteratorIP13PinochleMeldsEES4_EET0_T_S6_S5_, symObjAddr: 0xAABC, symBinAddr: 0x1000104F0, symSize: 0x78 }
  - { offsetInCU: 0xEF42, offset: 0x34647, size: 0x8, addend: 0x0, symName: __ZNSt3__16__moveB8ue170006INS_17_ClassicAlgPolicyENS_16reverse_iteratorIP13PinochleMeldsEES5_S5_EENS_4pairIT0_T2_EES7_T1_S8_, symObjAddr: 0xAB34, symBinAddr: 0x100010568, symSize: 0x64 }
  - { offsetInCU: 0xEFAE, offset: 0x346B3, size: 0x8, addend: 0x0, symName: __ZNSt3__123__dispatch_copy_or_moveB8ue170006INS_17_ClassicAlgPolicyENS_11__move_loopIS1_EENS_14__move_trivialENS_16reverse_iteratorIP13PinochleMeldsEES8_S8_EENS_4pairIT2_T4_EESA_T3_SB_, symObjAddr: 0xAB98, symBinAddr: 0x1000105CC, symSize: 0x64 }
  - { offsetInCU: 0xF02C, offset: 0x34731, size: 0x8, addend: 0x0, symName: __ZNSt3__121__unwrap_and_dispatchB8ue170006INS_10__overloadINS_11__move_loopINS_17_ClassicAlgPolicyEEENS_14__move_trivialEEENS_16reverse_iteratorIP13PinochleMeldsEESA_SA_Li0EEENS_4pairIT0_T2_EESC_T1_SD_, symObjAddr: 0xABFC, symBinAddr: 0x100010630, symSize: 0x12C }
  - { offsetInCU: 0xF0BF, offset: 0x347C4, size: 0x8, addend: 0x0, symName: __ZNSt3__114__unwrap_rangeB8ue170006INS_16reverse_iteratorIP13PinochleMeldsEES4_EENS_4pairIT0_S6_EET_S8_, symObjAddr: 0xAD28, symBinAddr: 0x10001075C, symSize: 0x84 }
  - { offsetInCU: 0xF1E0, offset: 0x348E5, size: 0x8, addend: 0x0, symName: __ZNSt3__113__unwrap_iterB8ue170006INS_16reverse_iteratorIP13PinochleMeldsEENS_18__unwrap_iter_implIS4_Lb0EEELi0EEEDTclsrT0_8__unwrapclsr3stdE7declvalIT_EEEES8_, symObjAddr: 0xAE4C, symBinAddr: 0x100010880, symSize: 0x44 }
  - { offsetInCU: 0xF225, offset: 0x3492A, size: 0x8, addend: 0x0, symName: __ZNSt3__19make_pairB8ue170006INS_16reverse_iteratorIP13PinochleMeldsEES4_EENS_4pairINS_18__unwrap_ref_decayIT_E4typeENS6_IT0_E4typeEEEOS7_OSA_, symObjAddr: 0xAE90, symBinAddr: 0x1000108C4, symSize: 0x38 }
  - { offsetInCU: 0xF274, offset: 0x34979, size: 0x8, addend: 0x0, symName: __ZNSt3__114__rewrap_rangeB8ue170006INS_16reverse_iteratorIP13PinochleMeldsEES4_EET_S5_T0_, symObjAddr: 0xAEC8, symBinAddr: 0x1000108FC, symSize: 0x5C }
  - { offsetInCU: 0xF2C0, offset: 0x349C5, size: 0x8, addend: 0x0, symName: __ZNSt3__113__rewrap_iterB8ue170006INS_16reverse_iteratorIP13PinochleMeldsEES4_NS_18__unwrap_iter_implIS4_Lb0EEEEET_S7_T0_, symObjAddr: 0xAF24, symBinAddr: 0x100010958, symSize: 0x74 }
  - { offsetInCU: 0xF315, offset: 0x34A1A, size: 0x8, addend: 0x0, symName: __ZNSt3__1neB8ue170006IP13PinochleMeldsS2_EEbRKNS_16reverse_iteratorIT_EERKNS3_IT0_EE, symObjAddr: 0xAF98, symBinAddr: 0x1000109CC, symSize: 0x48 }
  - { offsetInCU: 0xF3CF, offset: 0x34AD4, size: 0x8, addend: 0x0, symName: __ZNSt3__112__to_addressB8ue170006IKcEEPT_S3_, symObjAddr: 0xBE20, symBinAddr: 0x100010E38, symSize: 0x14 }
  - { offsetInCU: 0xF437, offset: 0x34B3C, size: 0x8, addend: 0x0, symName: __ZNSt3__1neB8ue170006IPK4CardI12PinochleRank4SuitEEEbRKNS_11__wrap_iterIT_EESB_, symObjAddr: 0xBFA8, symBinAddr: 0x100010F64, symSize: 0x34 }
  - { offsetInCU: 0xF47A, offset: 0x34B7F, size: 0x8, addend: 0x0, symName: __ZNSt3__1eqB8ue170006IPK4CardI12PinochleRank4SuitEEEbRKNS_11__wrap_iterIT_EESB_, symObjAddr: 0xC104, symBinAddr: 0x10001108C, symSize: 0x48 }
  - { offsetInCU: 0xF5A3, offset: 0x34CA8, size: 0x8, addend: 0x0, symName: __ZNSt3__17shuffleB8ue170006INS_11__wrap_iterIP4CardI12PinochleRank4SuitEEERNS_23mersenne_twister_engineIjLm32ELm624ELm397ELm31ELj2567483615ELm11ELj4294967295ELm7ELj2636928640ELm15ELj4022730752ELm18ELj1812433253EEEEEvT_SB_OT0_, symObjAddr: 0xC5A0, symBinAddr: 0x100011528, symSize: 0x48 }
  - { offsetInCU: 0xF61E, offset: 0x34D23, size: 0x8, addend: 0x0, symName: __ZNSt3__1miB8ue170006IP4CardI12PinochleRank4SuitES5_EEDTmicldtfp_4baseEcldtfp0_4baseEERKNS_11__wrap_iterIT_EERKNS7_IT0_EE, symObjAddr: 0xC854, symBinAddr: 0x1000117DC, symSize: 0x48 }
  - { offsetInCU: 0xF66A, offset: 0x34D6F, size: 0x8, addend: 0x0, symName: __ZNSt3__1ltB8ue170006IP4CardI12PinochleRank4SuitEEEbRKNS_11__wrap_iterIT_EESA_, symObjAddr: 0xC8F8, symBinAddr: 0x100011880, symSize: 0x48 }
  - { offsetInCU: 0xF6AD, offset: 0x34DB2, size: 0x8, addend: 0x0, symName: __ZNSt3__113__countl_zeroB8ue170006ImEEiT_, symObjAddr: 0xCC78, symBinAddr: 0x100011C00, symSize: 0x54 }
  - { offsetInCU: 0xF6E3, offset: 0x34DE8, size: 0x8, addend: 0x0, symName: __ZNSt3__19iter_swapB8ue170006INS_11__wrap_iterIP4CardI12PinochleRank4SuitEEES7_EEvT_T0_, symObjAddr: 0xD33C, symBinAddr: 0x1000122A8, symSize: 0x50 }
  - { offsetInCU: 0xF72B, offset: 0x34E30, size: 0x8, addend: 0x0, symName: __ZNSt3__14swapB8ue170006I4CardI12PinochleRank4SuitEEENS_9enable_ifIXaasr21is_move_constructibleIT_EE5valuesr18is_move_assignableIS6_EE5valueEvE4typeERS6_S9_, symObjAddr: 0xD38C, symBinAddr: 0x1000122F8, symSize: 0x3C }
  - { offsetInCU: 0x1017C, offset: 0x35881, size: 0x8, addend: 0x0, symName: __ZlsRNSt3__113basic_ostreamIcNS_11char_traitsIcEEEERK13PinochleMelds, symObjAddr: 0x1884, symBinAddr: 0x1000096D0, symSize: 0x384 }
  - { offsetInCU: 0x101A6, offset: 0x358AB, size: 0x8, addend: 0x0, symName: __ZZlsRNSt3__113basic_ostreamIcNS_11char_traitsIcEEEERK13PinochleMeldsE9meldNames, symObjAddr: 0x7F688, symBinAddr: 0x100034040, symSize: 0x0 }
  - { offsetInCU: 0x10247, offset: 0x3594C, size: 0x8, addend: 0x0, symName: __ZNSt3__16vectorI7CardSetI12PinochleRank4SuitENS_9allocatorIS4_EEE26__swap_out_circular_bufferERNS_14__split_bufferIS4_RS6_EE, symObjAddr: 0x4BCC, symBinAddr: 0x10000B44C, symSize: 0x110 }
  - { offsetInCU: 0x1076C, offset: 0x35E71, size: 0x8, addend: 0x0, symName: __ZNKSt3__111__enum_hashI4SuitLb1EEclB8ue170006ES1_, symObjAddr: 0x851C, symBinAddr: 0x10000DF50, symSize: 0x2C }
  - { offsetInCU: 0x1085F, offset: 0x35F64, size: 0x8, addend: 0x0, symName: __ZNSt3__16vectorI13PinochleMeldsNS_9allocatorIS1_EEE26__swap_out_circular_bufferERNS_14__split_bufferIS1_RS3_EE, symObjAddr: 0xA240, symBinAddr: 0x10000FC74, symSize: 0x110 }
  - { offsetInCU: 0x108FE, offset: 0x36003, size: 0x8, addend: 0x0, symName: __ZNSt3__124uniform_int_distributionIlEclINS_23mersenne_twister_engineIjLm32ELm624ELm397ELm31ELj2567483615ELm11ELj4294967295ELm7ELj2636928640ELm15ELj4022730752ELm18ELj1812433253EEEEElRT_RKNS1_10param_typeE, symObjAddr: 0xC940, symBinAddr: 0x1000118C8, symSize: 0x174 }
  - { offsetInCU: 0x12719, offset: 0x37E1E, size: 0x8, addend: 0x0, symName: __ZN12PinochleGameC2EiPPKc, symObjAddr: 0x0, symBinAddr: 0x100007F14, symSize: 0x14C }
  - { offsetInCU: 0x12775, offset: 0x37E7A, size: 0x8, addend: 0x0, symName: __ZNSt3__16vectorI7CardSetI12PinochleRank4SuitENS_9allocatorIS4_EEEC1B8ue170006Ev, symObjAddr: 0x14C, symBinAddr: 0x100008060, symSize: 0x2C }
  - { offsetInCU: 0x1279D, offset: 0x37EA2, size: 0x8, addend: 0x0, symName: __ZNSt3__16vectorI7CardSetI12PinochleRank4SuitENS_9allocatorIS4_EEE9push_backB8ue170006EOS4_, symObjAddr: 0x1A0, symBinAddr: 0x10000808C, symSize: 0x6C }
  - { offsetInCU: 0x127D2, offset: 0x37ED7, size: 0x8, addend: 0x0, symName: __ZN7CardSetI12PinochleRank4SuitEC1Ev, symObjAddr: 0x20C, symBinAddr: 0x1000080F8, symSize: 0x2C }
  - { offsetInCU: 0x127FD, offset: 0x37F02, size: 0x8, addend: 0x0, symName: __ZNSt3__16vectorI7CardSetI12PinochleRank4SuitENS_9allocatorIS4_EEED1B8ue170006Ev, symObjAddr: 0x264, symBinAddr: 0x100008124, symSize: 0x2C }
  - { offsetInCU: 0x12825, offset: 0x37F2A, size: 0x8, addend: 0x0, symName: __ZN4GameD2Ev, symObjAddr: 0x2BC, symBinAddr: 0x100008150, symSize: 0x40 }
  - { offsetInCU: 0x1284D, offset: 0x37F52, size: 0x8, addend: 0x0, symName: __ZN12PinochleGameC1EiPPKc, symObjAddr: 0x2FC, symBinAddr: 0x100008190, symSize: 0x3C }
  - { offsetInCU: 0x12894, offset: 0x37F99, size: 0x8, addend: 0x0, symName: __ZN12PinochleGame4dealEv, symObjAddr: 0x338, symBinAddr: 0x1000081CC, symSize: 0xF4 }
  - { offsetInCU: 0x128E8, offset: 0x37FED, size: 0x8, addend: 0x0, symName: __ZNK7CardSetI12PinochleRank4SuitE8is_emptyEv, symObjAddr: 0x42C, symBinAddr: 0x1000082C0, symSize: 0x2C }
  - { offsetInCU: 0x1290F, offset: 0x38014, size: 0x8, addend: 0x0, symName: __ZN7CardSetI12PinochleRank4SuitErsERS2_, symObjAddr: 0x458, symBinAddr: 0x1000082EC, symSize: 0xC0 }
  - { offsetInCU: 0x12953, offset: 0x38058, size: 0x8, addend: 0x0, symName: __ZNSt3__16vectorI7CardSetI12PinochleRank4SuitENS_9allocatorIS4_EEEixB8ue170006Em, symObjAddr: 0x518, symBinAddr: 0x1000083AC, symSize: 0x24 }
  - { offsetInCU: 0x12988, offset: 0x3808D, size: 0x8, addend: 0x0, symName: __ZNKSt3__16vectorI7CardSetI12PinochleRank4SuitENS_9allocatorIS4_EEE4sizeB8ue170006Ev, symObjAddr: 0x53C, symBinAddr: 0x1000083D0, symSize: 0x28 }
  - { offsetInCU: 0x129AC, offset: 0x380B1, size: 0x8, addend: 0x0, symName: __ZN12PinochleGame25suitIndependentEvaluationERK7CardSetI12PinochleRank4SuitERNSt3__16vectorI13PinochleMeldsNS6_9allocatorIS8_EEEE, symObjAddr: 0x564, symBinAddr: 0x1000083F8, symSize: 0xBE8 }
  - { offsetInCU: 0x12A85, offset: 0x3818A, size: 0x8, addend: 0x0, symName: __ZN7CardSetI12PinochleRank4SuitEC1ERKS2_, symObjAddr: 0x114C, symBinAddr: 0x100008FE0, symSize: 0x34 }
  - { offsetInCU: 0x12B45, offset: 0x3824A, size: 0x8, addend: 0x0, symName: __ZNSt3__113unordered_mapI4SuitiNS_4hashIS1_EENS_8equal_toIS1_EENS_9allocatorINS_4pairIKS1_iEEEEEC1B8ue170006Ev, symObjAddr: 0x1180, symBinAddr: 0x100009014, symSize: 0x2C }
  - { offsetInCU: 0x12B6D, offset: 0x38272, size: 0x8, addend: 0x0, symName: __ZN7CardSetI12PinochleRank4SuitE8getCardsERS2_, symObjAddr: 0x11AC, symBinAddr: 0x100009040, symSize: 0x18 }
  - { offsetInCU: 0x12B92, offset: 0x38297, size: 0x8, addend: 0x0, symName: __ZNSt3__16vectorI4CardI12PinochleRank4SuitENS_9allocatorIS4_EEE5beginB8ue170006Ev, symObjAddr: 0x11C4, symBinAddr: 0x100009058, symSize: 0x30 }
  - { offsetInCU: 0x12BB8, offset: 0x382BD, size: 0x8, addend: 0x0, symName: __ZNSt3__16vectorI4CardI12PinochleRank4SuitENS_9allocatorIS4_EEE3endB8ue170006Ev, symObjAddr: 0x11F4, symBinAddr: 0x100009088, symSize: 0x30 }
  - { offsetInCU: 0x12BDE, offset: 0x382E3, size: 0x8, addend: 0x0, symName: __ZNKSt3__111__wrap_iterIP4CardI12PinochleRank4SuitEEdeB8ue170006Ev, symObjAddr: 0x1258, symBinAddr: 0x1000090EC, symSize: 0x18 }
  - { offsetInCU: 0x12C02, offset: 0x38307, size: 0x8, addend: 0x0, symName: __ZNSt3__113unordered_mapI4SuitiNS_4hashIS1_EENS_8equal_toIS1_EENS_9allocatorINS_4pairIKS1_iEEEEEixERS8_, symObjAddr: 0x1270, symBinAddr: 0x100009104, symSize: 0x80 }
  - { offsetInCU: 0x12C37, offset: 0x3833C, size: 0x8, addend: 0x0, symName: __ZNSt3__111__wrap_iterIP4CardI12PinochleRank4SuitEEppB8ue170006Ev, symObjAddr: 0x12F0, symBinAddr: 0x100009184, symSize: 0x20 }
  - { offsetInCU: 0x12C5B, offset: 0x38360, size: 0x8, addend: 0x0, symName: __ZNSt3__113unordered_mapI4SuitiNS_4hashIS1_EENS_8equal_toIS1_EENS_9allocatorINS_4pairIKS1_iEEEEEixEOS1_, symObjAddr: 0x1310, symBinAddr: 0x1000091A4, symSize: 0x80 }
  - { offsetInCU: 0x12C90, offset: 0x38395, size: 0x8, addend: 0x0, symName: __ZNSt3__16vectorI13PinochleMeldsNS_9allocatorIS1_EEE9push_backB8ue170006EOS1_, symObjAddr: 0x1390, symBinAddr: 0x100009224, symSize: 0x6C }
  - { offsetInCU: 0x12CC5, offset: 0x383CA, size: 0x8, addend: 0x0, symName: __ZNSt3__113unordered_mapI4SuitiNS_4hashIS1_EENS_8equal_toIS1_EENS_9allocatorINS_4pairIKS1_iEEEEED1B8ue170006Ev, symObjAddr: 0x13FC, symBinAddr: 0x100009290, symSize: 0x2C }
  - { offsetInCU: 0x12CED, offset: 0x383F2, size: 0x8, addend: 0x0, symName: __ZN12PinochleGame16printPlayerHandsEv, symObjAddr: 0x1428, symBinAddr: 0x1000092BC, symSize: 0x1A8 }
  - { offsetInCU: 0x12D93, offset: 0x38498, size: 0x8, addend: 0x0, symName: __ZNSt3__16vectorINS_12basic_stringIcNS_11char_traitsIcEENS_9allocatorIcEEEENS4_IS6_EEEixB8ue170006Em, symObjAddr: 0x1664, symBinAddr: 0x1000094B0, symSize: 0x2C }
  - { offsetInCU: 0x12DC8, offset: 0x384CD, size: 0x8, addend: 0x0, symName: __ZNK7CardSetI12PinochleRank4SuitE5printERNSt3__113basic_ostreamIcNS3_11char_traitsIcEEEEm, symObjAddr: 0x1690, symBinAddr: 0x1000094DC, symSize: 0x11C }
  - { offsetInCU: 0x12E6E, offset: 0x38573, size: 0x8, addend: 0x0, symName: __ZNSt3__16vectorI13PinochleMeldsNS_9allocatorIS1_EEEC1B8ue170006Ev, symObjAddr: 0x17AC, symBinAddr: 0x1000095F8, symSize: 0x2C }
  - { offsetInCU: 0x12E96, offset: 0x3859B, size: 0x8, addend: 0x0, symName: __ZNSt3__16vectorI13PinochleMeldsNS_9allocatorIS1_EEE5beginB8ue170006Ev, symObjAddr: 0x17D8, symBinAddr: 0x100009624, symSize: 0x30 }
  - { offsetInCU: 0x12EBC, offset: 0x385C1, size: 0x8, addend: 0x0, symName: __ZNSt3__16vectorI13PinochleMeldsNS_9allocatorIS1_EEE3endB8ue170006Ev, symObjAddr: 0x1808, symBinAddr: 0x100009654, symSize: 0x30 }
  - { offsetInCU: 0x12EE2, offset: 0x385E7, size: 0x8, addend: 0x0, symName: __ZNKSt3__111__wrap_iterIP13PinochleMeldsEdeB8ue170006Ev, symObjAddr: 0x186C, symBinAddr: 0x1000096B8, symSize: 0x18 }
  - { offsetInCU: 0x12F06, offset: 0x3860B, size: 0x8, addend: 0x0, symName: __ZNSt3__113basic_ostreamIcNS_11char_traitsIcEEElsB8ue170006EPFRS3_S4_E, symObjAddr: 0x1C08, symBinAddr: 0x100009A54, symSize: 0x2C }
  - { offsetInCU: 0x12F38, offset: 0x3863D, size: 0x8, addend: 0x0, symName: __ZNSt3__111__wrap_iterIP13PinochleMeldsEppB8ue170006Ev, symObjAddr: 0x1C8C, symBinAddr: 0x100009AD8, symSize: 0x20 }
  - { offsetInCU: 0x12F5C, offset: 0x38661, size: 0x8, addend: 0x0, symName: __ZNSt3__16vectorI13PinochleMeldsNS_9allocatorIS1_EEED1B8ue170006Ev, symObjAddr: 0x1CAC, symBinAddr: 0x100009AF8, symSize: 0x2C }
  - { offsetInCU: 0x12F84, offset: 0x38689, size: 0x8, addend: 0x0, symName: __ZN12PinochleGame12collectCardsEv, symObjAddr: 0x1CD8, symBinAddr: 0x100009B24, symSize: 0x90 }
  - { offsetInCU: 0x12FC9, offset: 0x386CE, size: 0x8, addend: 0x0, symName: __ZN4DeckI12PinochleRank4SuitE7collectER7CardSetIS0_S1_E, symObjAddr: 0x1D68, symBinAddr: 0x100009BB4, symSize: 0x4C }
  - { offsetInCU: 0x12FFE, offset: 0x38703, size: 0x8, addend: 0x0, symName: __ZN12PinochleGame4playEv, symObjAddr: 0x1DB4, symBinAddr: 0x100009C00, symSize: 0x6C }
  - { offsetInCU: 0x13025, offset: 0x3872A, size: 0x8, addend: 0x0, symName: __ZN4DeckI12PinochleRank4SuitE7shuffleEv, symObjAddr: 0x1E20, symBinAddr: 0x100009C6C, symSize: 0xB4 }
  - { offsetInCU: 0x1306F, offset: 0x38774, size: 0x8, addend: 0x0, symName: __ZNSt3__15arrayINS_12basic_stringIcNS_11char_traitsIcEENS_9allocatorIcEEEELm15EED1Ev, symObjAddr: 0x1F08, symBinAddr: 0x100009D20, symSize: 0x2C }
  - { offsetInCU: 0x1309A, offset: 0x3879F, size: 0x8, addend: 0x0, symName: __ZNKSt3__15arrayINS_12basic_stringIcNS_11char_traitsIcEENS_9allocatorIcEEEELm15EEixB8ue170006Em, symObjAddr: 0x1F34, symBinAddr: 0x100009D4C, symSize: 0x28 }
  - { offsetInCU: 0x130CC, offset: 0x387D1, size: 0x8, addend: 0x0, symName: __ZNSt3__15arrayIjLm15EEixB8ue170006Em, symObjAddr: 0x1F5C, symBinAddr: 0x100009D74, symSize: 0x20 }
  - { offsetInCU: 0x130FE, offset: 0x38803, size: 0x8, addend: 0x0, symName: __ZN12PinochleGameD1Ev, symObjAddr: 0x1F7C, symBinAddr: 0x100009D94, symSize: 0x2C }
  - { offsetInCU: 0x13126, offset: 0x3882B, size: 0x8, addend: 0x0, symName: __ZN12PinochleGameD0Ev, symObjAddr: 0x1FA8, symBinAddr: 0x100009DC0, symSize: 0x30 }
  - { offsetInCU: 0x13158, offset: 0x3885D, size: 0x8, addend: 0x0, symName: __ZN7CardSetI12PinochleRank4SuitEC2ERKS2_, symObjAddr: 0x2DAC, symBinAddr: 0x100009DF0, symSize: 0x4C }
  - { offsetInCU: 0x1318C, offset: 0x38891, size: 0x8, addend: 0x0, symName: __ZNSt3__16vectorI4CardI12PinochleRank4SuitENS_9allocatorIS4_EEEC1ERKS7_, symObjAddr: 0x2DF8, symBinAddr: 0x100009E3C, symSize: 0x34 }
  - { offsetInCU: 0x131C6, offset: 0x388CB, size: 0x8, addend: 0x0, symName: __ZNSt3__16vectorI4CardI12PinochleRank4SuitENS_9allocatorIS4_EEEC2ERKS7_, symObjAddr: 0x2E2C, symBinAddr: 0x100009E70, symSize: 0x94 }
  - { offsetInCU: 0x1320A, offset: 0x3890F, size: 0x8, addend: 0x0, symName: __ZNSt3__116allocator_traitsINS_9allocatorI4CardI12PinochleRank4SuitEEEE37select_on_container_copy_constructionB8ue170006IS6_vvEES6_RKS6_, symObjAddr: 0x2EC0, symBinAddr: 0x100009F04, symSize: 0x10 }
  - { offsetInCU: 0x1323D, offset: 0x38942, size: 0x8, addend: 0x0, symName: __ZNSt3__117__compressed_pairIP4CardI12PinochleRank4SuitENS_9allocatorIS4_EEEC1B8ue170006IDnS7_EEOT_OT0_, symObjAddr: 0x2EF8, symBinAddr: 0x100009F14, symSize: 0x3C }
  - { offsetInCU: 0x13293, offset: 0x38998, size: 0x8, addend: 0x0, symName: __ZNSt3__16vectorI4CardI12PinochleRank4SuitENS_9allocatorIS4_EEE16__init_with_sizeB8ue170006IPS4_S9_EEvT_T0_m, symObjAddr: 0x2F34, symBinAddr: 0x100009F50, symSize: 0xB8 }
  - { offsetInCU: 0x13305, offset: 0x38A0A, size: 0x8, addend: 0x0, symName: __ZNSt3__117__compressed_pairIP4CardI12PinochleRank4SuitENS_9allocatorIS4_EEEC2B8ue170006IDnS7_EEOT_OT0_, symObjAddr: 0x3024, symBinAddr: 0x10000A008, symSize: 0x44 }
  - { offsetInCU: 0x1335B, offset: 0x38A60, size: 0x8, addend: 0x0, symName: __ZNSt3__122__compressed_pair_elemINS_9allocatorI4CardI12PinochleRank4SuitEEELi1ELb1EEC2B8ue170006IS6_vEEOT_, symObjAddr: 0x3068, symBinAddr: 0x10000A04C, symSize: 0x18 }
  - { offsetInCU: 0x1339B, offset: 0x38AA0, size: 0x8, addend: 0x0, symName: __ZNSt3__16vectorI4CardI12PinochleRank4SuitENS_9allocatorIS4_EEE11__vallocateB8ue170006Em, symObjAddr: 0x30C0, symBinAddr: 0x10000A0A4, symSize: 0xAC }
  - { offsetInCU: 0x133DD, offset: 0x38AE2, size: 0x8, addend: 0x0, symName: __ZNSt3__16vectorI4CardI12PinochleRank4SuitENS_9allocatorIS4_EEE18__construct_at_endIPS4_S9_EEvT_T0_m, symObjAddr: 0x316C, symBinAddr: 0x10000A150, symSize: 0x8C }
  - { offsetInCU: 0x13451, offset: 0x38B56, size: 0x8, addend: 0x0, symName: __ZNSt3__128__exception_guard_exceptionsINS_6vectorI4CardI12PinochleRank4SuitENS_9allocatorIS5_EEE16__destroy_vectorEE10__completeB8ue170006Ev, symObjAddr: 0x31F8, symBinAddr: 0x10000A1DC, symSize: 0x1C }
  - { offsetInCU: 0x13475, offset: 0x38B7A, size: 0x8, addend: 0x0, symName: __ZNSt3__128__exception_guard_exceptionsINS_6vectorI4CardI12PinochleRank4SuitENS_9allocatorIS5_EEE16__destroy_vectorEED1B8ue170006Ev, symObjAddr: 0x3214, symBinAddr: 0x10000A1F8, symSize: 0x2C }
  - { offsetInCU: 0x1349D, offset: 0x38BA2, size: 0x8, addend: 0x0, symName: __ZNSt3__128__exception_guard_exceptionsINS_6vectorI4CardI12PinochleRank4SuitENS_9allocatorIS5_EEE16__destroy_vectorEEC1B8ue170006ES9_, symObjAddr: 0x3240, symBinAddr: 0x10000A224, symSize: 0x34 }
  - { offsetInCU: 0x134D3, offset: 0x38BD8, size: 0x8, addend: 0x0, symName: __ZNSt3__128__exception_guard_exceptionsINS_6vectorI4CardI12PinochleRank4SuitENS_9allocatorIS5_EEE16__destroy_vectorEEC2B8ue170006ES9_, symObjAddr: 0x3274, symBinAddr: 0x10000A258, symSize: 0x24 }
  - { offsetInCU: 0x13540, offset: 0x38C45, size: 0x8, addend: 0x0, symName: __ZNSt3__14pairIP4CardI12PinochleRank4SuitES5_EC1B8ue170006IS5_S5_LPv0EEEOT_OT0_, symObjAddr: 0x39E4, symBinAddr: 0x10000A42C, symSize: 0x3C }
  - { offsetInCU: 0x1359D, offset: 0x38CA2, size: 0x8, addend: 0x0, symName: __ZNSt3__14pairIP4CardI12PinochleRank4SuitES5_EC2B8ue170006IS5_S5_LPv0EEEOT_OT0_, symObjAddr: 0x3A20, symBinAddr: 0x10000A468, symSize: 0x34 }
  - { offsetInCU: 0x13604, offset: 0x38D09, size: 0x8, addend: 0x0, symName: __ZNKSt3__114__copy_trivialclB8ue170006I4CardI12PinochleRank4SuitES5_Li0EEENS_4pairIPT_PT0_EES8_S8_SA_, symObjAddr: 0x3BD0, symBinAddr: 0x10000A618, symSize: 0x48 }
  - { offsetInCU: 0x1366B, offset: 0x38D70, size: 0x8, addend: 0x0, symName: __ZNSt3__14pairIP4CardI12PinochleRank4SuitES5_EC1B8ue170006IRS5_S5_LPv0EEEOT_OT0_, symObjAddr: 0x3D60, symBinAddr: 0x10000A7A8, symSize: 0x3C }
  - { offsetInCU: 0x136C8, offset: 0x38DCD, size: 0x8, addend: 0x0, symName: __ZNSt3__14pairIP4CardI12PinochleRank4SuitES5_EC2B8ue170006IRS5_S5_LPv0EEEOT_OT0_, symObjAddr: 0x3D9C, symBinAddr: 0x10000A7E4, symSize: 0x34 }
  - { offsetInCU: 0x13725, offset: 0x38E2A, size: 0x8, addend: 0x0, symName: __ZNSt3__118__unwrap_iter_implIP4CardI12PinochleRank4SuitELb1EE8__unwrapB8ue170006ES5_, symObjAddr: 0x3DD0, symBinAddr: 0x10000A818, symSize: 0x24 }
  - { offsetInCU: 0x13748, offset: 0x38E4D, size: 0x8, addend: 0x0, symName: __ZNSt3__118__unwrap_iter_implIP4CardI12PinochleRank4SuitELb1EE8__rewrapB8ue170006ES5_S5_, symObjAddr: 0x3DF4, symBinAddr: 0x10000A83C, symSize: 0x50 }
  - { offsetInCU: 0x13779, offset: 0x38E7E, size: 0x8, addend: 0x0, symName: __ZNSt3__128__exception_guard_exceptionsINS_6vectorI4CardI12PinochleRank4SuitENS_9allocatorIS5_EEE16__destroy_vectorEED2B8ue170006Ev, symObjAddr: 0x3E64, symBinAddr: 0x10000A88C, symSize: 0x48 }
  - { offsetInCU: 0x137A1, offset: 0x38EA6, size: 0x8, addend: 0x0, symName: __ZNKSt3__111__wrap_iterIP4CardI12PinochleRank4SuitEE4baseB8ue170006Ev, symObjAddr: 0x3EF4, symBinAddr: 0x10000A91C, symSize: 0x18 }
  - { offsetInCU: 0x137C5, offset: 0x38ECA, size: 0x8, addend: 0x0, symName: __ZNKSt3__111__wrap_iterIP13PinochleMeldsE4baseB8ue170006Ev, symObjAddr: 0x3F54, symBinAddr: 0x10000A97C, symSize: 0x18 }
  - { offsetInCU: 0x137E9, offset: 0x38EEE, size: 0x8, addend: 0x0, symName: __ZNSt3__15arrayINS_12basic_stringIcNS_11char_traitsIcEENS_9allocatorIcEEEELm15EED2Ev, symObjAddr: 0x3F6C, symBinAddr: 0x10000A994, symSize: 0x64 }
  - { offsetInCU: 0x13814, offset: 0x38F19, size: 0x8, addend: 0x0, symName: __ZN12PinochleGameD2Ev, symObjAddr: 0x3FD0, symBinAddr: 0x10000A9F8, symSize: 0x54 }
  - { offsetInCU: 0x1383C, offset: 0x38F41, size: 0x8, addend: 0x0, symName: __ZNSt3__16vectorI7CardSetI12PinochleRank4SuitENS_9allocatorIS4_EEEC2B8ue170006Ev, symObjAddr: 0x41CC, symBinAddr: 0x10000AA4C, symSize: 0x4C }
  - { offsetInCU: 0x13864, offset: 0x38F69, size: 0x8, addend: 0x0, symName: __ZNSt3__117__compressed_pairIP7CardSetI12PinochleRank4SuitENS_9allocatorIS4_EEEC1B8ue170006IDnNS_18__default_init_tagEEEOT_OT0_, symObjAddr: 0x4218, symBinAddr: 0x10000AA98, symSize: 0x3C }
  - { offsetInCU: 0x138BA, offset: 0x38FBF, size: 0x8, addend: 0x0, symName: __ZNSt3__117__compressed_pairIP7CardSetI12PinochleRank4SuitENS_9allocatorIS4_EEEC2B8ue170006IDnNS_18__default_init_tagEEEOT_OT0_, symObjAddr: 0x4254, symBinAddr: 0x10000AAD4, symSize: 0x40 }
  - { offsetInCU: 0x13910, offset: 0x39015, size: 0x8, addend: 0x0, symName: __ZNSt3__122__compressed_pair_elemIP7CardSetI12PinochleRank4SuitELi0ELb0EEC2B8ue170006IDnvEEOT_, symObjAddr: 0x4294, symBinAddr: 0x10000AB14, symSize: 0x1C }
  - { offsetInCU: 0x13950, offset: 0x39055, size: 0x8, addend: 0x0, symName: __ZNSt3__122__compressed_pair_elemINS_9allocatorI7CardSetI12PinochleRank4SuitEEELi1ELb1EEC2B8ue170006ENS_18__default_init_tagE, symObjAddr: 0x42B0, symBinAddr: 0x10000AB30, symSize: 0x2C }
  - { offsetInCU: 0x13982, offset: 0x39087, size: 0x8, addend: 0x0, symName: __ZNSt3__19allocatorI7CardSetI12PinochleRank4SuitEEC2B8ue170006Ev, symObjAddr: 0x42DC, symBinAddr: 0x10000AB5C, symSize: 0x2C }
  - { offsetInCU: 0x139AA, offset: 0x390AF, size: 0x8, addend: 0x0, symName: __ZNSt3__116__non_trivial_ifILb1ENS_9allocatorI7CardSetI12PinochleRank4SuitEEEEC2B8ue170006Ev, symObjAddr: 0x4308, symBinAddr: 0x10000AB88, symSize: 0x14 }
  - { offsetInCU: 0x139D2, offset: 0x390D7, size: 0x8, addend: 0x0, symName: __ZNSt3__16vectorI7CardSetI12PinochleRank4SuitENS_9allocatorIS4_EEED2B8ue170006Ev, symObjAddr: 0x431C, symBinAddr: 0x10000AB9C, symSize: 0x44 }
  - { offsetInCU: 0x139FA, offset: 0x390FF, size: 0x8, addend: 0x0, symName: __ZNSt3__16vectorI7CardSetI12PinochleRank4SuitENS_9allocatorIS4_EEE16__destroy_vectorC1B8ue170006ERS7_, symObjAddr: 0x4360, symBinAddr: 0x10000ABE0, symSize: 0x34 }
  - { offsetInCU: 0x13A31, offset: 0x39136, size: 0x8, addend: 0x0, symName: __ZNSt3__16vectorI7CardSetI12PinochleRank4SuitENS_9allocatorIS4_EEE16__destroy_vectorclB8ue170006Ev, symObjAddr: 0x4394, symBinAddr: 0x10000AC14, symSize: 0x90 }
  - { offsetInCU: 0x13A55, offset: 0x3915A, size: 0x8, addend: 0x0, symName: __ZNSt3__16vectorI7CardSetI12PinochleRank4SuitENS_9allocatorIS4_EEE16__destroy_vectorC2B8ue170006ERS7_, symObjAddr: 0x4424, symBinAddr: 0x10000ACA4, symSize: 0x20 }
  - { offsetInCU: 0x13A8C, offset: 0x39191, size: 0x8, addend: 0x0, symName: __ZNSt3__16vectorI7CardSetI12PinochleRank4SuitENS_9allocatorIS4_EEE7__clearB8ue170006Ev, symObjAddr: 0x4444, symBinAddr: 0x10000ACC4, symSize: 0x28 }
  - { offsetInCU: 0x13AB0, offset: 0x391B5, size: 0x8, addend: 0x0, symName: __ZNKSt3__16vectorI7CardSetI12PinochleRank4SuitENS_9allocatorIS4_EEE17__annotate_deleteB8ue170006Ev, symObjAddr: 0x446C, symBinAddr: 0x10000ACEC, symSize: 0xB8 }
  - { offsetInCU: 0x13AD4, offset: 0x391D9, size: 0x8, addend: 0x0, symName: __ZNSt3__116allocator_traitsINS_9allocatorI7CardSetI12PinochleRank4SuitEEEE10deallocateB8ue170006ERS6_PS5_m, symObjAddr: 0x4524, symBinAddr: 0x10000ADA4, symSize: 0x34 }
  - { offsetInCU: 0x13B16, offset: 0x3921B, size: 0x8, addend: 0x0, symName: __ZNSt3__16vectorI7CardSetI12PinochleRank4SuitENS_9allocatorIS4_EEE7__allocB8ue170006Ev, symObjAddr: 0x4558, symBinAddr: 0x10000ADD8, symSize: 0x28 }
  - { offsetInCU: 0x13B3A, offset: 0x3923F, size: 0x8, addend: 0x0, symName: __ZNKSt3__16vectorI7CardSetI12PinochleRank4SuitENS_9allocatorIS4_EEE8capacityB8ue170006Ev, symObjAddr: 0x4580, symBinAddr: 0x10000AE00, symSize: 0x40 }
  - { offsetInCU: 0x13B5E, offset: 0x39263, size: 0x8, addend: 0x0, symName: __ZNSt3__16vectorI7CardSetI12PinochleRank4SuitENS_9allocatorIS4_EEE22__base_destruct_at_endB8ue170006EPS4_, symObjAddr: 0x45C0, symBinAddr: 0x10000AE40, symSize: 0x8C }
  - { offsetInCU: 0x13BA0, offset: 0x392A5, size: 0x8, addend: 0x0, symName: __ZNSt3__116allocator_traitsINS_9allocatorI7CardSetI12PinochleRank4SuitEEEE7destroyB8ue170006IS5_vEEvRS6_PT_, symObjAddr: 0x464C, symBinAddr: 0x10000AECC, symSize: 0x2C }
  - { offsetInCU: 0x13BDD, offset: 0x392E2, size: 0x8, addend: 0x0, symName: __ZNSt3__19allocatorI7CardSetI12PinochleRank4SuitEE7destroyB8ue170006EPS4_, symObjAddr: 0x468C, symBinAddr: 0x10000AF0C, symSize: 0x30 }
  - { offsetInCU: 0x13C0F, offset: 0x39314, size: 0x8, addend: 0x0, symName: __ZNKSt3__16vectorI7CardSetI12PinochleRank4SuitENS_9allocatorIS4_EEE31__annotate_contiguous_containerB8ue170006EPKvS9_S9_S9_, symObjAddr: 0x46BC, symBinAddr: 0x10000AF3C, symSize: 0x20 }
  - { offsetInCU: 0x13C63, offset: 0x39368, size: 0x8, addend: 0x0, symName: __ZNKSt3__16vectorI7CardSetI12PinochleRank4SuitENS_9allocatorIS4_EEE4dataB8ue170006Ev, symObjAddr: 0x46DC, symBinAddr: 0x10000AF5C, symSize: 0x28 }
  - { offsetInCU: 0x13C87, offset: 0x3938C, size: 0x8, addend: 0x0, symName: __ZNSt3__19allocatorI7CardSetI12PinochleRank4SuitEE10deallocateB8ue170006EPS4_m, symObjAddr: 0x4704, symBinAddr: 0x10000AF84, symSize: 0x40 }
  - { offsetInCU: 0x13CC7, offset: 0x393CC, size: 0x8, addend: 0x0, symName: __ZNSt3__117__compressed_pairIP7CardSetI12PinochleRank4SuitENS_9allocatorIS4_EEE6secondB8ue170006Ev, symObjAddr: 0x4744, symBinAddr: 0x10000AFC4, symSize: 0x24 }
  - { offsetInCU: 0x13CEB, offset: 0x393F0, size: 0x8, addend: 0x0, symName: __ZNSt3__122__compressed_pair_elemINS_9allocatorI7CardSetI12PinochleRank4SuitEEELi1ELb1EE5__getB8ue170006Ev, symObjAddr: 0x4768, symBinAddr: 0x10000AFE8, symSize: 0x14 }
  - { offsetInCU: 0x13D0F, offset: 0x39414, size: 0x8, addend: 0x0, symName: __ZNKSt3__16vectorI7CardSetI12PinochleRank4SuitENS_9allocatorIS4_EEE9__end_capB8ue170006Ev, symObjAddr: 0x477C, symBinAddr: 0x10000AFFC, symSize: 0x28 }
  - { offsetInCU: 0x13D33, offset: 0x39438, size: 0x8, addend: 0x0, symName: __ZNKSt3__117__compressed_pairIP7CardSetI12PinochleRank4SuitENS_9allocatorIS4_EEE5firstB8ue170006Ev, symObjAddr: 0x47A4, symBinAddr: 0x10000B024, symSize: 0x24 }
  - { offsetInCU: 0x13D57, offset: 0x3945C, size: 0x8, addend: 0x0, symName: __ZNKSt3__122__compressed_pair_elemIP7CardSetI12PinochleRank4SuitELi0ELb0EE5__getB8ue170006Ev, symObjAddr: 0x47C8, symBinAddr: 0x10000B048, symSize: 0x14 }
  - { offsetInCU: 0x13D7B, offset: 0x39480, size: 0x8, addend: 0x0, symName: __ZNSt3__16vectorI7CardSetI12PinochleRank4SuitENS_9allocatorIS4_EEE9__end_capB8ue170006Ev, symObjAddr: 0x47DC, symBinAddr: 0x10000B05C, symSize: 0x28 }
  - { offsetInCU: 0x13DA4, offset: 0x394A9, size: 0x8, addend: 0x0, symName: __ZNSt3__16vectorI7CardSetI12PinochleRank4SuitENS_9allocatorIS4_EEE22__construct_one_at_endB8ue170006IJS4_EEEvDpOT_, symObjAddr: 0x4804, symBinAddr: 0x10000B084, symSize: 0x90 }
  - { offsetInCU: 0x13DF1, offset: 0x394F6, size: 0x8, addend: 0x0, symName: __ZNSt3__16vectorI7CardSetI12PinochleRank4SuitENS_9allocatorIS4_EEE21__push_back_slow_pathIS4_EEvOT_, symObjAddr: 0x4894, symBinAddr: 0x10000B114, symSize: 0xD8 }
  - { offsetInCU: 0x13E4D, offset: 0x39552, size: 0x8, addend: 0x0, symName: __ZNSt3__117__compressed_pairIP7CardSetI12PinochleRank4SuitENS_9allocatorIS4_EEE5firstB8ue170006Ev, symObjAddr: 0x496C, symBinAddr: 0x10000B1EC, symSize: 0x24 }
  - { offsetInCU: 0x13E71, offset: 0x39576, size: 0x8, addend: 0x0, symName: __ZNSt3__122__compressed_pair_elemIP7CardSetI12PinochleRank4SuitELi0ELb0EE5__getB8ue170006Ev, symObjAddr: 0x4990, symBinAddr: 0x10000B210, symSize: 0x14 }
  - { offsetInCU: 0x13EAE, offset: 0x395B3, size: 0x8, addend: 0x0, symName: __ZNSt3__16vectorI7CardSetI12PinochleRank4SuitENS_9allocatorIS4_EEE21_ConstructTransactionC1B8ue170006ERS7_m, symObjAddr: 0x49A4, symBinAddr: 0x10000B224, symSize: 0x3C }
  - { offsetInCU: 0x13EF4, offset: 0x395F9, size: 0x8, addend: 0x0, symName: __ZNSt3__116allocator_traitsINS_9allocatorI7CardSetI12PinochleRank4SuitEEEE9constructB8ue170006IS5_JS5_EvEEvRS6_PT_DpOT0_, symObjAddr: 0x49E0, symBinAddr: 0x10000B260, symSize: 0x34 }
  - { offsetInCU: 0x13F4B, offset: 0x39650, size: 0x8, addend: 0x0, symName: __ZNSt3__16vectorI7CardSetI12PinochleRank4SuitENS_9allocatorIS4_EEE21_ConstructTransactionD1B8ue170006Ev, symObjAddr: 0x4A14, symBinAddr: 0x10000B294, symSize: 0x2C }
  - { offsetInCU: 0x13F73, offset: 0x39678, size: 0x8, addend: 0x0, symName: __ZNSt3__16vectorI7CardSetI12PinochleRank4SuitENS_9allocatorIS4_EEE21_ConstructTransactionC2B8ue170006ERS7_m, symObjAddr: 0x4A40, symBinAddr: 0x10000B2C0, symSize: 0x44 }
  - { offsetInCU: 0x13FB9, offset: 0x396BE, size: 0x8, addend: 0x0, symName: __ZNSt3__19allocatorI7CardSetI12PinochleRank4SuitEE9constructB8ue170006IS4_JS4_EEEvPT_DpOT0_, symObjAddr: 0x4A84, symBinAddr: 0x10000B304, symSize: 0x30 }
  - { offsetInCU: 0x1400D, offset: 0x39712, size: 0x8, addend: 0x0, symName: __ZNSt3__16vectorI7CardSetI12PinochleRank4SuitENS_9allocatorIS4_EEE21_ConstructTransactionD2B8ue170006Ev, symObjAddr: 0x4AB4, symBinAddr: 0x10000B334, symSize: 0x20 }
  - { offsetInCU: 0x14035, offset: 0x3973A, size: 0x8, addend: 0x0, symName: __ZNKSt3__16vectorI7CardSetI12PinochleRank4SuitENS_9allocatorIS4_EEE11__recommendB8ue170006Em, symObjAddr: 0x4AD4, symBinAddr: 0x10000B354, symSize: 0xB4 }
  - { offsetInCU: 0x14088, offset: 0x3978D, size: 0x8, addend: 0x0, symName: __ZNSt3__114__split_bufferI7CardSetI12PinochleRank4SuitERNS_9allocatorIS4_EEEC1EmmS7_, symObjAddr: 0x4B88, symBinAddr: 0x10000B408, symSize: 0x44 }
  - { offsetInCU: 0x140DD, offset: 0x397E2, size: 0x8, addend: 0x0, symName: __ZNSt3__114__split_bufferI7CardSetI12PinochleRank4SuitERNS_9allocatorIS4_EEED1Ev, symObjAddr: 0x4CDC, symBinAddr: 0x10000B55C, symSize: 0x2C }
  - { offsetInCU: 0x14108, offset: 0x3980D, size: 0x8, addend: 0x0, symName: __ZNKSt3__16vectorI7CardSetI12PinochleRank4SuitENS_9allocatorIS4_EEE8max_sizeEv, symObjAddr: 0x4D08, symBinAddr: 0x10000B588, symSize: 0x60 }
  - { offsetInCU: 0x1412E, offset: 0x39833, size: 0x8, addend: 0x0, symName: __ZNKSt3__16vectorI7CardSetI12PinochleRank4SuitENS_9allocatorIS4_EEE20__throw_length_errorB8ue170006Ev, symObjAddr: 0x4D68, symBinAddr: 0x10000B5E8, symSize: 0x1C }
  - { offsetInCU: 0x1415C, offset: 0x39861, size: 0x8, addend: 0x0, symName: __ZNSt3__116allocator_traitsINS_9allocatorI7CardSetI12PinochleRank4SuitEEEE8max_sizeB8ue170006IS6_vEEmRKS6_, symObjAddr: 0x4DB0, symBinAddr: 0x10000B604, symSize: 0x24 }
  - { offsetInCU: 0x1418A, offset: 0x3988F, size: 0x8, addend: 0x0, symName: __ZNKSt3__16vectorI7CardSetI12PinochleRank4SuitENS_9allocatorIS4_EEE7__allocB8ue170006Ev, symObjAddr: 0x4DD4, symBinAddr: 0x10000B628, symSize: 0x28 }
  - { offsetInCU: 0x141AE, offset: 0x398B3, size: 0x8, addend: 0x0, symName: __ZNKSt3__19allocatorI7CardSetI12PinochleRank4SuitEE8max_sizeB8ue170006Ev, symObjAddr: 0x4DFC, symBinAddr: 0x10000B650, symSize: 0x14 }
  - { offsetInCU: 0x141D2, offset: 0x398D7, size: 0x8, addend: 0x0, symName: __ZNKSt3__117__compressed_pairIP7CardSetI12PinochleRank4SuitENS_9allocatorIS4_EEE6secondB8ue170006Ev, symObjAddr: 0x4E10, symBinAddr: 0x10000B664, symSize: 0x24 }
  - { offsetInCU: 0x141F6, offset: 0x398FB, size: 0x8, addend: 0x0, symName: __ZNKSt3__122__compressed_pair_elemINS_9allocatorI7CardSetI12PinochleRank4SuitEEELi1ELb1EE5__getB8ue170006Ev, symObjAddr: 0x4E34, symBinAddr: 0x10000B688, symSize: 0x14 }
  - { offsetInCU: 0x1421A, offset: 0x3991F, size: 0x8, addend: 0x0, symName: __ZNSt3__114__split_bufferI7CardSetI12PinochleRank4SuitERNS_9allocatorIS4_EEEC2EmmS7_, symObjAddr: 0x4E9C, symBinAddr: 0x10000B69C, symSize: 0xD4 }
  - { offsetInCU: 0x1428D, offset: 0x39992, size: 0x8, addend: 0x0, symName: __ZNSt3__117__compressed_pairIP7CardSetI12PinochleRank4SuitERNS_9allocatorIS4_EEEC1B8ue170006IDnS8_EEOT_OT0_, symObjAddr: 0x4F70, symBinAddr: 0x10000B770, symSize: 0x3C }
  - { offsetInCU: 0x142E3, offset: 0x399E8, size: 0x8, addend: 0x0, symName: __ZNSt3__114__split_bufferI7CardSetI12PinochleRank4SuitERNS_9allocatorIS4_EEE7__allocB8ue170006Ev, symObjAddr: 0x4FEC, symBinAddr: 0x10000B7EC, symSize: 0x28 }
  - { offsetInCU: 0x14307, offset: 0x39A0C, size: 0x8, addend: 0x0, symName: __ZNSt3__114__split_bufferI7CardSetI12PinochleRank4SuitERNS_9allocatorIS4_EEE9__end_capB8ue170006Ev, symObjAddr: 0x5014, symBinAddr: 0x10000B814, symSize: 0x28 }
  - { offsetInCU: 0x1432B, offset: 0x39A30, size: 0x8, addend: 0x0, symName: __ZNSt3__117__compressed_pairIP7CardSetI12PinochleRank4SuitERNS_9allocatorIS4_EEEC2B8ue170006IDnS8_EEOT_OT0_, symObjAddr: 0x503C, symBinAddr: 0x10000B83C, symSize: 0x48 }
  - { offsetInCU: 0x14381, offset: 0x39A86, size: 0x8, addend: 0x0, symName: __ZNSt3__122__compressed_pair_elemIRNS_9allocatorI7CardSetI12PinochleRank4SuitEEELi1ELb0EEC2B8ue170006IS7_vEEOT_, symObjAddr: 0x5084, symBinAddr: 0x10000B884, symSize: 0x20 }
  - { offsetInCU: 0x143C1, offset: 0x39AC6, size: 0x8, addend: 0x0, symName: __ZNSt3__19allocatorI7CardSetI12PinochleRank4SuitEE8allocateB8ue170006Em, symObjAddr: 0x50A4, symBinAddr: 0x10000B8A4, symSize: 0x58 }
  - { offsetInCU: 0x143F3, offset: 0x39AF8, size: 0x8, addend: 0x0, symName: __ZNSt3__117__compressed_pairIP7CardSetI12PinochleRank4SuitERNS_9allocatorIS4_EEE6secondB8ue170006Ev, symObjAddr: 0x50FC, symBinAddr: 0x10000B8FC, symSize: 0x28 }
  - { offsetInCU: 0x14417, offset: 0x39B1C, size: 0x8, addend: 0x0, symName: __ZNSt3__122__compressed_pair_elemIRNS_9allocatorI7CardSetI12PinochleRank4SuitEEELi1ELb0EE5__getB8ue170006Ev, symObjAddr: 0x5124, symBinAddr: 0x10000B924, symSize: 0x18 }
  - { offsetInCU: 0x1443B, offset: 0x39B40, size: 0x8, addend: 0x0, symName: __ZNSt3__117__compressed_pairIP7CardSetI12PinochleRank4SuitERNS_9allocatorIS4_EEE5firstB8ue170006Ev, symObjAddr: 0x513C, symBinAddr: 0x10000B93C, symSize: 0x24 }
  - { offsetInCU: 0x1445F, offset: 0x39B64, size: 0x8, addend: 0x0, symName: __ZNSt3__116reverse_iteratorIP7CardSetI12PinochleRank4SuitEEC1B8ue170006ES5_, symObjAddr: 0x528C, symBinAddr: 0x10000BA8C, symSize: 0x34 }
  - { offsetInCU: 0x14495, offset: 0x39B9A, size: 0x8, addend: 0x0, symName: __ZNKSt3__116reverse_iteratorIP7CardSetI12PinochleRank4SuitEE4baseB8ue170006Ev, symObjAddr: 0x52C0, symBinAddr: 0x10000BAC0, symSize: 0x18 }
  - { offsetInCU: 0x144B9, offset: 0x39BBE, size: 0x8, addend: 0x0, symName: __ZNKSt3__16vectorI7CardSetI12PinochleRank4SuitENS_9allocatorIS4_EEE14__annotate_newB8ue170006Em, symObjAddr: 0x5314, symBinAddr: 0x10000BB14, symSize: 0xAC }
  - { offsetInCU: 0x144EC, offset: 0x39BF1, size: 0x8, addend: 0x0, symName: __ZNSt3__129_AllocatorDestroyRangeReverseINS_9allocatorI7CardSetI12PinochleRank4SuitEEENS_16reverse_iteratorIPS5_EEEC1B8ue170006ERS6_RS9_SC_, symObjAddr: 0x540C, symBinAddr: 0x10000BC0C, symSize: 0x44 }
  - { offsetInCU: 0x14541, offset: 0x39C46, size: 0x8, addend: 0x0, symName: __ZNSt3__116allocator_traitsINS_9allocatorI7CardSetI12PinochleRank4SuitEEEE9constructB8ue170006IS5_JRKS5_EvEEvRS6_PT_DpOT0_, symObjAddr: 0x5498, symBinAddr: 0x10000BC98, symSize: 0x34 }
  - { offsetInCU: 0x14598, offset: 0x39C9D, size: 0x8, addend: 0x0, symName: __ZNKSt3__116reverse_iteratorIP7CardSetI12PinochleRank4SuitEEdeB8ue170006Ev, symObjAddr: 0x54F0, symBinAddr: 0x10000BCF0, symSize: 0x28 }
  - { offsetInCU: 0x145CB, offset: 0x39CD0, size: 0x8, addend: 0x0, symName: __ZNSt3__116reverse_iteratorIP7CardSetI12PinochleRank4SuitEEppB8ue170006Ev, symObjAddr: 0x5518, symBinAddr: 0x10000BD18, symSize: 0x20 }
  - { offsetInCU: 0x145EF, offset: 0x39CF4, size: 0x8, addend: 0x0, symName: __ZNSt3__128__exception_guard_exceptionsINS_29_AllocatorDestroyRangeReverseINS_9allocatorI7CardSetI12PinochleRank4SuitEEENS_16reverse_iteratorIPS6_EEEEE10__completeB8ue170006Ev, symObjAddr: 0x5538, symBinAddr: 0x10000BD38, symSize: 0x1C }
  - { offsetInCU: 0x14613, offset: 0x39D18, size: 0x8, addend: 0x0, symName: __ZNSt3__128__exception_guard_exceptionsINS_29_AllocatorDestroyRangeReverseINS_9allocatorI7CardSetI12PinochleRank4SuitEEENS_16reverse_iteratorIPS6_EEEEED1B8ue170006Ev, symObjAddr: 0x5554, symBinAddr: 0x10000BD54, symSize: 0x2C }
  - { offsetInCU: 0x1463B, offset: 0x39D40, size: 0x8, addend: 0x0, symName: __ZNSt3__128__exception_guard_exceptionsINS_29_AllocatorDestroyRangeReverseINS_9allocatorI7CardSetI12PinochleRank4SuitEEENS_16reverse_iteratorIPS6_EEEEEC1B8ue170006ESB_, symObjAddr: 0x5580, symBinAddr: 0x10000BD80, symSize: 0x34 }
  - { offsetInCU: 0x14672, offset: 0x39D77, size: 0x8, addend: 0x0, symName: __ZNSt3__128__exception_guard_exceptionsINS_29_AllocatorDestroyRangeReverseINS_9allocatorI7CardSetI12PinochleRank4SuitEEENS_16reverse_iteratorIPS6_EEEEEC2B8ue170006ESB_, symObjAddr: 0x55B4, symBinAddr: 0x10000BDB4, symSize: 0x30 }
  - { offsetInCU: 0x146A9, offset: 0x39DAE, size: 0x8, addend: 0x0, symName: __ZNSt3__129_AllocatorDestroyRangeReverseINS_9allocatorI7CardSetI12PinochleRank4SuitEEENS_16reverse_iteratorIPS5_EEEC2B8ue170006ERS6_RS9_SC_, symObjAddr: 0x55E4, symBinAddr: 0x10000BDE4, symSize: 0x38 }
  - { offsetInCU: 0x146FE, offset: 0x39E03, size: 0x8, addend: 0x0, symName: __ZNSt3__19allocatorI7CardSetI12PinochleRank4SuitEE9constructB8ue170006IS4_JRKS4_EEEvPT_DpOT0_, symObjAddr: 0x561C, symBinAddr: 0x10000BE1C, symSize: 0x30 }
  - { offsetInCU: 0x14757, offset: 0x39E5C, size: 0x8, addend: 0x0, symName: __ZNSt3__119__to_address_helperINS_16reverse_iteratorIP7CardSetI12PinochleRank4SuitEEEvE6__callB8ue170006ERKS7_, symObjAddr: 0x564C, symBinAddr: 0x10000BE4C, symSize: 0x38 }
  - { offsetInCU: 0x1477A, offset: 0x39E7F, size: 0x8, addend: 0x0, symName: __ZNKSt3__116reverse_iteratorIP7CardSetI12PinochleRank4SuitEEptB8ue170006Ev, symObjAddr: 0x5684, symBinAddr: 0x10000BE84, symSize: 0x24 }
  - { offsetInCU: 0x1479E, offset: 0x39EA3, size: 0x8, addend: 0x0, symName: __ZNSt3__128__exception_guard_exceptionsINS_29_AllocatorDestroyRangeReverseINS_9allocatorI7CardSetI12PinochleRank4SuitEEENS_16reverse_iteratorIPS6_EEEEED2B8ue170006Ev, symObjAddr: 0x56A8, symBinAddr: 0x10000BEA8, symSize: 0x50 }
  - { offsetInCU: 0x147C6, offset: 0x39ECB, size: 0x8, addend: 0x0, symName: __ZNKSt3__129_AllocatorDestroyRangeReverseINS_9allocatorI7CardSetI12PinochleRank4SuitEEENS_16reverse_iteratorIPS5_EEEclB8ue170006Ev, symObjAddr: 0x56F8, symBinAddr: 0x10000BEF8, symSize: 0xB4 }
  - { offsetInCU: 0x147EB, offset: 0x39EF0, size: 0x8, addend: 0x0, symName: __ZNSt3__116reverse_iteratorINS0_IP7CardSetI12PinochleRank4SuitEEEEC1B8ue170006ES6_, symObjAddr: 0x581C, symBinAddr: 0x10000C01C, symSize: 0x3C }
  - { offsetInCU: 0x14821, offset: 0x39F26, size: 0x8, addend: 0x0, symName: __ZNSt3__116reverse_iteratorINS0_IP7CardSetI12PinochleRank4SuitEEEEppB8ue170006Ev, symObjAddr: 0x58DC, symBinAddr: 0x10000C0DC, symSize: 0x30 }
  - { offsetInCU: 0x14845, offset: 0x39F4A, size: 0x8, addend: 0x0, symName: __ZNKSt3__116reverse_iteratorINS0_IP7CardSetI12PinochleRank4SuitEEEE4baseB8ue170006Ev, symObjAddr: 0x590C, symBinAddr: 0x10000C10C, symSize: 0x24 }
  - { offsetInCU: 0x1486E, offset: 0x39F73, size: 0x8, addend: 0x0, symName: __ZNSt3__119__to_address_helperINS_16reverse_iteratorINS1_IP7CardSetI12PinochleRank4SuitEEEEEvE6__callB8ue170006ERKS8_, symObjAddr: 0x5930, symBinAddr: 0x10000C130, symSize: 0x38 }
  - { offsetInCU: 0x14891, offset: 0x39F96, size: 0x8, addend: 0x0, symName: __ZNKSt3__116reverse_iteratorINS0_IP7CardSetI12PinochleRank4SuitEEEEptB8ue170006Ev, symObjAddr: 0x5968, symBinAddr: 0x10000C168, symSize: 0x24 }
  - { offsetInCU: 0x148B5, offset: 0x39FBA, size: 0x8, addend: 0x0, symName: __ZNKSt3__116reverse_iteratorINS0_IP7CardSetI12PinochleRank4SuitEEEEdeB8ue170006Ev, symObjAddr: 0x598C, symBinAddr: 0x10000C18C, symSize: 0x34 }
  - { offsetInCU: 0x148E8, offset: 0x39FED, size: 0x8, addend: 0x0, symName: __ZNSt3__116reverse_iteratorIP7CardSetI12PinochleRank4SuitEEmmB8ue170006Ev, symObjAddr: 0x59C0, symBinAddr: 0x10000C1C0, symSize: 0x20 }
  - { offsetInCU: 0x1490C, offset: 0x3A011, size: 0x8, addend: 0x0, symName: __ZNSt3__116reverse_iteratorINS0_IP7CardSetI12PinochleRank4SuitEEEEC2B8ue170006ES6_, symObjAddr: 0x59E0, symBinAddr: 0x10000C1E0, symSize: 0x2C }
  - { offsetInCU: 0x14942, offset: 0x3A047, size: 0x8, addend: 0x0, symName: __ZNSt3__116reverse_iteratorIP7CardSetI12PinochleRank4SuitEEC2B8ue170006ES5_, symObjAddr: 0x5A0C, symBinAddr: 0x10000C20C, symSize: 0x28 }
  - { offsetInCU: 0x14978, offset: 0x3A07D, size: 0x8, addend: 0x0, symName: __ZNSt3__114__split_bufferI7CardSetI12PinochleRank4SuitERNS_9allocatorIS4_EEED2Ev, symObjAddr: 0x5A34, symBinAddr: 0x10000C234, symSize: 0x8C }
  - { offsetInCU: 0x149A3, offset: 0x3A0A8, size: 0x8, addend: 0x0, symName: __ZNSt3__114__split_bufferI7CardSetI12PinochleRank4SuitERNS_9allocatorIS4_EEE5clearB8ue170006Ev, symObjAddr: 0x5AC0, symBinAddr: 0x10000C2C0, symSize: 0x28 }
  - { offsetInCU: 0x149C7, offset: 0x3A0CC, size: 0x8, addend: 0x0, symName: __ZNKSt3__114__split_bufferI7CardSetI12PinochleRank4SuitERNS_9allocatorIS4_EEE8capacityB8ue170006Ev, symObjAddr: 0x5AE8, symBinAddr: 0x10000C2E8, symSize: 0x40 }
  - { offsetInCU: 0x149EB, offset: 0x3A0F0, size: 0x8, addend: 0x0, symName: __ZNSt3__114__split_bufferI7CardSetI12PinochleRank4SuitERNS_9allocatorIS4_EEE17__destruct_at_endB8ue170006EPS4_, symObjAddr: 0x5B28, symBinAddr: 0x10000C328, symSize: 0x2C }
  - { offsetInCU: 0x14A1D, offset: 0x3A122, size: 0x8, addend: 0x0, symName: __ZNSt3__114__split_bufferI7CardSetI12PinochleRank4SuitERNS_9allocatorIS4_EEE17__destruct_at_endB8ue170006EPS4_NS_17integral_constantIbLb0EEE, symObjAddr: 0x5B54, symBinAddr: 0x10000C354, symSize: 0x80 }
  - { offsetInCU: 0x14A5B, offset: 0x3A160, size: 0x8, addend: 0x0, symName: __ZNKSt3__114__split_bufferI7CardSetI12PinochleRank4SuitERNS_9allocatorIS4_EEE9__end_capB8ue170006Ev, symObjAddr: 0x5BD4, symBinAddr: 0x10000C3D4, symSize: 0x28 }
  - { offsetInCU: 0x14A7F, offset: 0x3A184, size: 0x8, addend: 0x0, symName: __ZNKSt3__117__compressed_pairIP7CardSetI12PinochleRank4SuitERNS_9allocatorIS4_EEE5firstB8ue170006Ev, symObjAddr: 0x5BFC, symBinAddr: 0x10000C3FC, symSize: 0x24 }
  - { offsetInCU: 0x14AA3, offset: 0x3A1A8, size: 0x8, addend: 0x0, symName: __ZNKSt3__16vectorI4CardI12PinochleRank4SuitENS_9allocatorIS4_EEE5emptyB8ue170006Ev, symObjAddr: 0x5C20, symBinAddr: 0x10000C420, symSize: 0x28 }
  - { offsetInCU: 0x14AC7, offset: 0x3A1CC, size: 0x8, addend: 0x0, symName: __ZNSt3__16vectorI4CardI12PinochleRank4SuitENS_9allocatorIS4_EEE4backB8ue170006Ev, symObjAddr: 0x5C48, symBinAddr: 0x10000C448, symSize: 0x1C }
  - { offsetInCU: 0x14AEB, offset: 0x3A1F0, size: 0x8, addend: 0x0, symName: __ZNSt3__16vectorI4CardI12PinochleRank4SuitENS_9allocatorIS4_EEE9push_backB8ue170006ERKS4_, symObjAddr: 0x5C64, symBinAddr: 0x10000C464, symSize: 0x6C }
  - { offsetInCU: 0x14B20, offset: 0x3A225, size: 0x8, addend: 0x0, symName: __ZNSt3__16vectorI4CardI12PinochleRank4SuitENS_9allocatorIS4_EEE8pop_backEv, symObjAddr: 0x5CD0, symBinAddr: 0x10000C4D0, symSize: 0x2C }
  - { offsetInCU: 0x14B46, offset: 0x3A24B, size: 0x8, addend: 0x0, symName: __ZNSt3__16vectorI4CardI12PinochleRank4SuitENS_9allocatorIS4_EEE22__construct_one_at_endB8ue170006IJRKS4_EEEvDpOT_, symObjAddr: 0x5CFC, symBinAddr: 0x10000C4FC, symSize: 0x90 }
  - { offsetInCU: 0x14B93, offset: 0x3A298, size: 0x8, addend: 0x0, symName: __ZNSt3__16vectorI4CardI12PinochleRank4SuitENS_9allocatorIS4_EEE21__push_back_slow_pathIRKS4_EEvOT_, symObjAddr: 0x5D8C, symBinAddr: 0x10000C58C, symSize: 0xD8 }
  - { offsetInCU: 0x14BEF, offset: 0x3A2F4, size: 0x8, addend: 0x0, symName: __ZNSt3__116allocator_traitsINS_9allocatorI4CardI12PinochleRank4SuitEEEE9constructB8ue170006IS5_JRKS5_EvEEvRS6_PT_DpOT0_, symObjAddr: 0x5E64, symBinAddr: 0x10000C664, symSize: 0x34 }
  - { offsetInCU: 0x14C46, offset: 0x3A34B, size: 0x8, addend: 0x0, symName: __ZNSt3__19allocatorI4CardI12PinochleRank4SuitEE9constructB8ue170006IS4_JRKS4_EEEvPT_DpOT0_, symObjAddr: 0x5E98, symBinAddr: 0x10000C698, symSize: 0x28 }
  - { offsetInCU: 0x14CA4, offset: 0x3A3A9, size: 0x8, addend: 0x0, symName: __ZNSt3__16vectorI4CardI12PinochleRank4SuitENS_9allocatorIS4_EEE17__destruct_at_endB8ue170006EPS4_, symObjAddr: 0x6C8C, symBinAddr: 0x10000C6C0, symSize: 0x4C }
  - { offsetInCU: 0x14CE6, offset: 0x3A3EB, size: 0x8, addend: 0x0, symName: __ZNKSt3__16vectorI4CardI12PinochleRank4SuitENS_9allocatorIS4_EEE17__annotate_shrinkB8ue170006Em, symObjAddr: 0x6CD8, symBinAddr: 0x10000C70C, symSize: 0xB4 }
  - { offsetInCU: 0x14D19, offset: 0x3A41E, size: 0x8, addend: 0x0, symName: __ZNSt3__113unordered_mapI4SuitiNS_4hashIS1_EENS_8equal_toIS1_EENS_9allocatorINS_4pairIKS1_iEEEEEC2B8ue170006Ev, symObjAddr: 0x6D8C, symBinAddr: 0x10000C7C0, symSize: 0x2C }
  - { offsetInCU: 0x14D41, offset: 0x3A446, size: 0x8, addend: 0x0, symName: __ZNSt3__112__hash_tableINS_17__hash_value_typeI4SuitiEENS_22__unordered_map_hasherIS2_S3_NS_4hashIS2_EENS_8equal_toIS2_EELb1EEENS_21__unordered_map_equalIS2_S3_S8_S6_Lb1EEENS_9allocatorIS3_EEEC1Ev, symObjAddr: 0x6DB8, symBinAddr: 0x10000C7EC, symSize: 0x2C }
  - { offsetInCU: 0x14D6C, offset: 0x3A471, size: 0x8, addend: 0x0, symName: __ZNSt3__112__hash_tableINS_17__hash_value_typeI4SuitiEENS_22__unordered_map_hasherIS2_S3_NS_4hashIS2_EENS_8equal_toIS2_EELb1EEENS_21__unordered_map_equalIS2_S3_S8_S6_Lb1EEENS_9allocatorIS3_EEEC2Ev, symObjAddr: 0x6DE4, symBinAddr: 0x10000C818, symSize: 0x7C }
  - { offsetInCU: 0x14D97, offset: 0x3A49C, size: 0x8, addend: 0x0, symName: __ZNSt3__110unique_ptrIA_PNS_16__hash_node_baseIPNS_11__hash_nodeINS_17__hash_value_typeI4SuitiEEPvEEEENS_25__bucket_list_deallocatorINS_9allocatorISA_EEEEEC1B8ue170006ILb1EvEEv, symObjAddr: 0x6E60, symBinAddr: 0x10000C894, symSize: 0x2C }
  - { offsetInCU: 0x14DCA, offset: 0x3A4CF, size: 0x8, addend: 0x0, symName: __ZNSt3__117__compressed_pairINS_16__hash_node_baseIPNS_11__hash_nodeINS_17__hash_value_typeI4SuitiEEPvEEEENS_9allocatorIS7_EEEC1B8ue170006ILb1EvEEv, symObjAddr: 0x6E8C, symBinAddr: 0x10000C8C0, symSize: 0x2C }
  - { offsetInCU: 0x14E02, offset: 0x3A507, size: 0x8, addend: 0x0, symName: __ZNSt3__117__compressed_pairImNS_22__unordered_map_hasherI4SuitNS_17__hash_value_typeIS2_iEENS_4hashIS2_EENS_8equal_toIS2_EELb1EEEEC1B8ue170006IiNS_18__default_init_tagEEEOT_OT0_, symObjAddr: 0x6EB8, symBinAddr: 0x10000C8EC, symSize: 0x3C }
  - { offsetInCU: 0x14E5D, offset: 0x3A562, size: 0x8, addend: 0x0, symName: __ZNSt3__117__compressed_pairIfNS_21__unordered_map_equalI4SuitNS_17__hash_value_typeIS2_iEENS_8equal_toIS2_EENS_4hashIS2_EELb1EEEEC1B8ue170006IfNS_18__default_init_tagEEEOT_OT0_, symObjAddr: 0x6EF4, symBinAddr: 0x10000C928, symSize: 0x3C }
  - { offsetInCU: 0x14EB3, offset: 0x3A5B8, size: 0x8, addend: 0x0, symName: __ZNSt3__110unique_ptrIA_PNS_16__hash_node_baseIPNS_11__hash_nodeINS_17__hash_value_typeI4SuitiEEPvEEEENS_25__bucket_list_deallocatorINS_9allocatorISA_EEEEEC2B8ue170006ILb1EvEEv, symObjAddr: 0x6F30, symBinAddr: 0x10000C964, symSize: 0x3C }
  - { offsetInCU: 0x14EEB, offset: 0x3A5F0, size: 0x8, addend: 0x0, symName: __ZNSt3__117__compressed_pairIPPNS_16__hash_node_baseIPNS_11__hash_nodeINS_17__hash_value_typeI4SuitiEEPvEEEENS_25__bucket_list_deallocatorINS_9allocatorISA_EEEEEC1B8ue170006INS_16__value_init_tagESI_EEOT_OT0_, symObjAddr: 0x6F6C, symBinAddr: 0x10000C9A0, symSize: 0x3C }
  - { offsetInCU: 0x14F41, offset: 0x3A646, size: 0x8, addend: 0x0, symName: __ZNSt3__117__compressed_pairIPPNS_16__hash_node_baseIPNS_11__hash_nodeINS_17__hash_value_typeI4SuitiEEPvEEEENS_25__bucket_list_deallocatorINS_9allocatorISA_EEEEEC2B8ue170006INS_16__value_init_tagESI_EEOT_OT0_, symObjAddr: 0x6FA8, symBinAddr: 0x10000C9DC, symSize: 0x40 }
  - { offsetInCU: 0x14F97, offset: 0x3A69C, size: 0x8, addend: 0x0, symName: __ZNSt3__122__compressed_pair_elemIPPNS_16__hash_node_baseIPNS_11__hash_nodeINS_17__hash_value_typeI4SuitiEEPvEEEELi0ELb0EEC2B8ue170006ENS_16__value_init_tagE, symObjAddr: 0x6FE8, symBinAddr: 0x10000CA1C, symSize: 0x18 }
  - { offsetInCU: 0x14FC9, offset: 0x3A6CE, size: 0x8, addend: 0x0, symName: __ZNSt3__122__compressed_pair_elemINS_25__bucket_list_deallocatorINS_9allocatorIPNS_16__hash_node_baseIPNS_11__hash_nodeINS_17__hash_value_typeI4SuitiEEPvEEEEEEEELi1ELb0EEC2B8ue170006ENS_16__value_init_tagE, symObjAddr: 0x7000, symBinAddr: 0x10000CA34, symSize: 0x2C }
  - { offsetInCU: 0x14FFB, offset: 0x3A700, size: 0x8, addend: 0x0, symName: __ZNSt3__125__bucket_list_deallocatorINS_9allocatorIPNS_16__hash_node_baseIPNS_11__hash_nodeINS_17__hash_value_typeI4SuitiEEPvEEEEEEEC1B8ue170006Ev, symObjAddr: 0x702C, symBinAddr: 0x10000CA60, symSize: 0x2C }
  - { offsetInCU: 0x15023, offset: 0x3A728, size: 0x8, addend: 0x0, symName: __ZNSt3__125__bucket_list_deallocatorINS_9allocatorIPNS_16__hash_node_baseIPNS_11__hash_nodeINS_17__hash_value_typeI4SuitiEEPvEEEEEEEC2B8ue170006Ev, symObjAddr: 0x7058, symBinAddr: 0x10000CA8C, symSize: 0x40 }
  - { offsetInCU: 0x1504B, offset: 0x3A750, size: 0x8, addend: 0x0, symName: __ZNSt3__117__compressed_pairImNS_9allocatorIPNS_16__hash_node_baseIPNS_11__hash_nodeINS_17__hash_value_typeI4SuitiEEPvEEEEEEEC1B8ue170006IiNS_18__default_init_tagEEEOT_OT0_, symObjAddr: 0x7098, symBinAddr: 0x10000CACC, symSize: 0x3C }
  - { offsetInCU: 0x150A1, offset: 0x3A7A6, size: 0x8, addend: 0x0, symName: __ZNSt3__117__compressed_pairImNS_9allocatorIPNS_16__hash_node_baseIPNS_11__hash_nodeINS_17__hash_value_typeI4SuitiEEPvEEEEEEEC2B8ue170006IiNS_18__default_init_tagEEEOT_OT0_, symObjAddr: 0x70D4, symBinAddr: 0x10000CB08, symSize: 0x40 }
  - { offsetInCU: 0x150F7, offset: 0x3A7FC, size: 0x8, addend: 0x0, symName: __ZNSt3__122__compressed_pair_elemImLi0ELb0EEC2B8ue170006IivEEOT_, symObjAddr: 0x7114, symBinAddr: 0x10000CB48, symSize: 0x24 }
  - { offsetInCU: 0x15137, offset: 0x3A83C, size: 0x8, addend: 0x0, symName: __ZNSt3__122__compressed_pair_elemINS_9allocatorIPNS_16__hash_node_baseIPNS_11__hash_nodeINS_17__hash_value_typeI4SuitiEEPvEEEEEELi1ELb1EEC2B8ue170006ENS_18__default_init_tagE, symObjAddr: 0x7138, symBinAddr: 0x10000CB6C, symSize: 0x2C }
  - { offsetInCU: 0x15169, offset: 0x3A86E, size: 0x8, addend: 0x0, symName: __ZNSt3__19allocatorIPNS_16__hash_node_baseIPNS_11__hash_nodeINS_17__hash_value_typeI4SuitiEEPvEEEEEC2B8ue170006Ev, symObjAddr: 0x7164, symBinAddr: 0x10000CB98, symSize: 0x2C }
  - { offsetInCU: 0x15191, offset: 0x3A896, size: 0x8, addend: 0x0, symName: __ZNSt3__116__non_trivial_ifILb1ENS_9allocatorIPNS_16__hash_node_baseIPNS_11__hash_nodeINS_17__hash_value_typeI4SuitiEEPvEEEEEEEC2B8ue170006Ev, symObjAddr: 0x7190, symBinAddr: 0x10000CBC4, symSize: 0x14 }
  - { offsetInCU: 0x151B9, offset: 0x3A8BE, size: 0x8, addend: 0x0, symName: __ZNSt3__117__compressed_pairINS_16__hash_node_baseIPNS_11__hash_nodeINS_17__hash_value_typeI4SuitiEEPvEEEENS_9allocatorIS7_EEEC2B8ue170006ILb1EvEEv, symObjAddr: 0x71A4, symBinAddr: 0x10000CBD8, symSize: 0x34 }
  - { offsetInCU: 0x151EC, offset: 0x3A8F1, size: 0x8, addend: 0x0, symName: __ZNSt3__122__compressed_pair_elemINS_16__hash_node_baseIPNS_11__hash_nodeINS_17__hash_value_typeI4SuitiEEPvEEEELi0ELb0EEC2B8ue170006ENS_16__value_init_tagE, symObjAddr: 0x71D8, symBinAddr: 0x10000CC0C, symSize: 0x2C }
  - { offsetInCU: 0x1521E, offset: 0x3A923, size: 0x8, addend: 0x0, symName: __ZNSt3__122__compressed_pair_elemINS_9allocatorINS_11__hash_nodeINS_17__hash_value_typeI4SuitiEEPvEEEELi1ELb1EEC2B8ue170006ENS_16__value_init_tagE, symObjAddr: 0x7204, symBinAddr: 0x10000CC38, symSize: 0x2C }
  - { offsetInCU: 0x15250, offset: 0x3A955, size: 0x8, addend: 0x0, symName: __ZNSt3__116__hash_node_baseIPNS_11__hash_nodeINS_17__hash_value_typeI4SuitiEEPvEEEC1B8ue170006Ev, symObjAddr: 0x7230, symBinAddr: 0x10000CC64, symSize: 0x2C }
  - { offsetInCU: 0x15278, offset: 0x3A97D, size: 0x8, addend: 0x0, symName: __ZNSt3__116__hash_node_baseIPNS_11__hash_nodeINS_17__hash_value_typeI4SuitiEEPvEEEC2B8ue170006Ev, symObjAddr: 0x725C, symBinAddr: 0x10000CC90, symSize: 0x18 }
  - { offsetInCU: 0x152A0, offset: 0x3A9A5, size: 0x8, addend: 0x0, symName: __ZNSt3__19allocatorINS_11__hash_nodeINS_17__hash_value_typeI4SuitiEEPvEEEC2B8ue170006Ev, symObjAddr: 0x7274, symBinAddr: 0x10000CCA8, symSize: 0x2C }
  - { offsetInCU: 0x152C8, offset: 0x3A9CD, size: 0x8, addend: 0x0, symName: __ZNSt3__116__non_trivial_ifILb1ENS_9allocatorINS_11__hash_nodeINS_17__hash_value_typeI4SuitiEEPvEEEEEC2B8ue170006Ev, symObjAddr: 0x72A0, symBinAddr: 0x10000CCD4, symSize: 0x14 }
  - { offsetInCU: 0x152F0, offset: 0x3A9F5, size: 0x8, addend: 0x0, symName: __ZNSt3__117__compressed_pairImNS_22__unordered_map_hasherI4SuitNS_17__hash_value_typeIS2_iEENS_4hashIS2_EENS_8equal_toIS2_EELb1EEEEC2B8ue170006IiNS_18__default_init_tagEEEOT_OT0_, symObjAddr: 0x72B4, symBinAddr: 0x10000CCE8, symSize: 0x40 }
  - { offsetInCU: 0x15346, offset: 0x3AA4B, size: 0x8, addend: 0x0, symName: __ZNSt3__122__compressed_pair_elemINS_22__unordered_map_hasherI4SuitNS_17__hash_value_typeIS2_iEENS_4hashIS2_EENS_8equal_toIS2_EELb1EEELi1ELb1EEC2B8ue170006ENS_18__default_init_tagE, symObjAddr: 0x72F4, symBinAddr: 0x10000CD28, symSize: 0x2C }
  - { offsetInCU: 0x15378, offset: 0x3AA7D, size: 0x8, addend: 0x0, symName: __ZNSt3__122__unordered_map_hasherI4SuitNS_17__hash_value_typeIS1_iEENS_4hashIS1_EENS_8equal_toIS1_EELb1EEC2B8ue170006Ev, symObjAddr: 0x7320, symBinAddr: 0x10000CD54, symSize: 0x14 }
  - { offsetInCU: 0x153A0, offset: 0x3AAA5, size: 0x8, addend: 0x0, symName: __ZNSt3__117__compressed_pairIfNS_21__unordered_map_equalI4SuitNS_17__hash_value_typeIS2_iEENS_8equal_toIS2_EENS_4hashIS2_EELb1EEEEC2B8ue170006IfNS_18__default_init_tagEEEOT_OT0_, symObjAddr: 0x7334, symBinAddr: 0x10000CD68, symSize: 0x40 }
  - { offsetInCU: 0x153F6, offset: 0x3AAFB, size: 0x8, addend: 0x0, symName: __ZNSt3__122__compressed_pair_elemIfLi0ELb0EEC2B8ue170006IfvEEOT_, symObjAddr: 0x7374, symBinAddr: 0x10000CDA8, symSize: 0x24 }
  - { offsetInCU: 0x15436, offset: 0x3AB3B, size: 0x8, addend: 0x0, symName: __ZNSt3__122__compressed_pair_elemINS_21__unordered_map_equalI4SuitNS_17__hash_value_typeIS2_iEENS_8equal_toIS2_EENS_4hashIS2_EELb1EEELi1ELb1EEC2B8ue170006ENS_18__default_init_tagE, symObjAddr: 0x7398, symBinAddr: 0x10000CDCC, symSize: 0x2C }
  - { offsetInCU: 0x15468, offset: 0x3AB6D, size: 0x8, addend: 0x0, symName: __ZNSt3__121__unordered_map_equalI4SuitNS_17__hash_value_typeIS1_iEENS_8equal_toIS1_EENS_4hashIS1_EELb1EEC2B8ue170006Ev, symObjAddr: 0x73C4, symBinAddr: 0x10000CDF8, symSize: 0x14 }
  - { offsetInCU: 0x15490, offset: 0x3AB95, size: 0x8, addend: 0x0, symName: __ZNSt3__113unordered_mapI4SuitiNS_4hashIS1_EENS_8equal_toIS1_EENS_9allocatorINS_4pairIKS1_iEEEEED2B8ue170006Ev, symObjAddr: 0x73D8, symBinAddr: 0x10000CE0C, symSize: 0x2C }
  - { offsetInCU: 0x154B8, offset: 0x3ABBD, size: 0x8, addend: 0x0, symName: __ZNSt3__112__hash_tableINS_17__hash_value_typeI4SuitiEENS_22__unordered_map_hasherIS2_S3_NS_4hashIS2_EENS_8equal_toIS2_EELb1EEENS_21__unordered_map_equalIS2_S3_S8_S6_Lb1EEENS_9allocatorIS3_EEED1Ev, symObjAddr: 0x7404, symBinAddr: 0x10000CE38, symSize: 0x2C }
  - { offsetInCU: 0x154E3, offset: 0x3ABE8, size: 0x8, addend: 0x0, symName: __ZNSt3__112__hash_tableINS_17__hash_value_typeI4SuitiEENS_22__unordered_map_hasherIS2_S3_NS_4hashIS2_EENS_8equal_toIS2_EELb1EEENS_21__unordered_map_equalIS2_S3_S8_S6_Lb1EEENS_9allocatorIS3_EEED2Ev, symObjAddr: 0x7430, symBinAddr: 0x10000CE64, symSize: 0x48 }
  - { offsetInCU: 0x1550E, offset: 0x3AC13, size: 0x8, addend: 0x0, symName: __ZNSt3__112__hash_tableINS_17__hash_value_typeI4SuitiEENS_22__unordered_map_hasherIS2_S3_NS_4hashIS2_EENS_8equal_toIS2_EELb1EEENS_21__unordered_map_equalIS2_S3_S8_S6_Lb1EEENS_9allocatorIS3_EEE17__deallocate_nodeEPNS_16__hash_node_baseIPNS_11__hash_nodeIS3_PvEEEE, symObjAddr: 0x7478, symBinAddr: 0x10000CEAC, symSize: 0xA8 }
  - { offsetInCU: 0x15576, offset: 0x3AC7B, size: 0x8, addend: 0x0, symName: __ZNSt3__117__compressed_pairINS_16__hash_node_baseIPNS_11__hash_nodeINS_17__hash_value_typeI4SuitiEEPvEEEENS_9allocatorIS7_EEE5firstB8ue170006Ev, symObjAddr: 0x7520, symBinAddr: 0x10000CF54, symSize: 0x24 }
  - { offsetInCU: 0x1559A, offset: 0x3AC9F, size: 0x8, addend: 0x0, symName: __ZNSt3__110unique_ptrIA_PNS_16__hash_node_baseIPNS_11__hash_nodeINS_17__hash_value_typeI4SuitiEEPvEEEENS_25__bucket_list_deallocatorINS_9allocatorISA_EEEEED1B8ue170006Ev, symObjAddr: 0x7544, symBinAddr: 0x10000CF78, symSize: 0x2C }
  - { offsetInCU: 0x155C2, offset: 0x3ACC7, size: 0x8, addend: 0x0, symName: __ZNSt3__112__hash_tableINS_17__hash_value_typeI4SuitiEENS_22__unordered_map_hasherIS2_S3_NS_4hashIS2_EENS_8equal_toIS2_EELb1EEENS_21__unordered_map_equalIS2_S3_S8_S6_Lb1EEENS_9allocatorIS3_EEE12__node_allocB8ue170006Ev, symObjAddr: 0x7570, symBinAddr: 0x10000CFA4, symSize: 0x28 }
  - { offsetInCU: 0x155E6, offset: 0x3ACEB, size: 0x8, addend: 0x0, symName: __ZNSt3__116__hash_node_baseIPNS_11__hash_nodeINS_17__hash_value_typeI4SuitiEEPvEEE8__upcastB8ue170006Ev, symObjAddr: 0x7598, symBinAddr: 0x10000CFCC, symSize: 0x24 }
  - { offsetInCU: 0x1560A, offset: 0x3AD0F, size: 0x8, addend: 0x0, symName: __ZNSt3__116allocator_traitsINS_9allocatorINS_11__hash_nodeINS_17__hash_value_typeI4SuitiEEPvEEEEE7destroyB8ue170006INS_4pairIKS4_iEEvvEEvRS8_PT_, symObjAddr: 0x75BC, symBinAddr: 0x10000CFF0, symSize: 0x14 }
  - { offsetInCU: 0x15644, offset: 0x3AD49, size: 0x8, addend: 0x0, symName: __ZNSt3__122__hash_key_value_typesINS_17__hash_value_typeI4SuitiEEE9__get_ptrB8ue170006ERS3_, symObjAddr: 0x75D0, symBinAddr: 0x10000D004, symSize: 0x24 }
  - { offsetInCU: 0x15667, offset: 0x3AD6C, size: 0x8, addend: 0x0, symName: __ZNSt3__116allocator_traitsINS_9allocatorINS_11__hash_nodeINS_17__hash_value_typeI4SuitiEEPvEEEEE10deallocateB8ue170006ERS8_PS7_m, symObjAddr: 0x75F4, symBinAddr: 0x10000D028, symSize: 0x34 }
  - { offsetInCU: 0x156A9, offset: 0x3ADAE, size: 0x8, addend: 0x0, symName: __ZNSt3__117__compressed_pairINS_16__hash_node_baseIPNS_11__hash_nodeINS_17__hash_value_typeI4SuitiEEPvEEEENS_9allocatorIS7_EEE6secondB8ue170006Ev, symObjAddr: 0x7628, symBinAddr: 0x10000D05C, symSize: 0x24 }
  - { offsetInCU: 0x156CD, offset: 0x3ADD2, size: 0x8, addend: 0x0, symName: __ZNSt3__122__compressed_pair_elemINS_9allocatorINS_11__hash_nodeINS_17__hash_value_typeI4SuitiEEPvEEEELi1ELb1EE5__getB8ue170006Ev, symObjAddr: 0x764C, symBinAddr: 0x10000D080, symSize: 0x14 }
  - { offsetInCU: 0x156F1, offset: 0x3ADF6, size: 0x8, addend: 0x0, symName: __ZNSt3__114pointer_traitsIPNS_16__hash_node_baseIPNS_11__hash_nodeINS_17__hash_value_typeI4SuitiEEPvEEEEE10pointer_toB8ue170006ERS9_, symObjAddr: 0x7660, symBinAddr: 0x10000D094, symSize: 0x14 }
  - { offsetInCU: 0x15713, offset: 0x3AE18, size: 0x8, addend: 0x0, symName: __ZNSt3__117__hash_value_typeI4SuitiE11__get_valueB8ue170006Ev, symObjAddr: 0x7674, symBinAddr: 0x10000D0A8, symSize: 0x24 }
  - { offsetInCU: 0x15737, offset: 0x3AE3C, size: 0x8, addend: 0x0, symName: __ZNSt3__19allocatorINS_11__hash_nodeINS_17__hash_value_typeI4SuitiEEPvEEE10deallocateB8ue170006EPS6_m, symObjAddr: 0x76D0, symBinAddr: 0x10000D104, symSize: 0x44 }
  - { offsetInCU: 0x15777, offset: 0x3AE7C, size: 0x8, addend: 0x0, symName: __ZNSt3__122__compressed_pair_elemINS_16__hash_node_baseIPNS_11__hash_nodeINS_17__hash_value_typeI4SuitiEEPvEEEELi0ELb0EE5__getB8ue170006Ev, symObjAddr: 0x7714, symBinAddr: 0x10000D148, symSize: 0x14 }
  - { offsetInCU: 0x1579B, offset: 0x3AEA0, size: 0x8, addend: 0x0, symName: __ZNSt3__110unique_ptrIA_PNS_16__hash_node_baseIPNS_11__hash_nodeINS_17__hash_value_typeI4SuitiEEPvEEEENS_25__bucket_list_deallocatorINS_9allocatorISA_EEEEED2B8ue170006Ev, symObjAddr: 0x7728, symBinAddr: 0x10000D15C, symSize: 0x30 }
  - { offsetInCU: 0x157C3, offset: 0x3AEC8, size: 0x8, addend: 0x0, symName: __ZNSt3__110unique_ptrIA_PNS_16__hash_node_baseIPNS_11__hash_nodeINS_17__hash_value_typeI4SuitiEEPvEEEENS_25__bucket_list_deallocatorINS_9allocatorISA_EEEEE5resetB8ue170006EDn, symObjAddr: 0x7758, symBinAddr: 0x10000D18C, symSize: 0x6C }
  - { offsetInCU: 0x15802, offset: 0x3AF07, size: 0x8, addend: 0x0, symName: __ZNSt3__117__compressed_pairIPPNS_16__hash_node_baseIPNS_11__hash_nodeINS_17__hash_value_typeI4SuitiEEPvEEEENS_25__bucket_list_deallocatorINS_9allocatorISA_EEEEE5firstB8ue170006Ev, symObjAddr: 0x77C4, symBinAddr: 0x10000D1F8, symSize: 0x24 }
  - { offsetInCU: 0x15826, offset: 0x3AF2B, size: 0x8, addend: 0x0, symName: __ZNSt3__117__compressed_pairIPPNS_16__hash_node_baseIPNS_11__hash_nodeINS_17__hash_value_typeI4SuitiEEPvEEEENS_25__bucket_list_deallocatorINS_9allocatorISA_EEEEE6secondB8ue170006Ev, symObjAddr: 0x77E8, symBinAddr: 0x10000D21C, symSize: 0x28 }
  - { offsetInCU: 0x1584A, offset: 0x3AF4F, size: 0x8, addend: 0x0, symName: __ZNSt3__125__bucket_list_deallocatorINS_9allocatorIPNS_16__hash_node_baseIPNS_11__hash_nodeINS_17__hash_value_typeI4SuitiEEPvEEEEEEEclB8ue170006EPSB_, symObjAddr: 0x7810, symBinAddr: 0x10000D244, symSize: 0x58 }
  - { offsetInCU: 0x1587D, offset: 0x3AF82, size: 0x8, addend: 0x0, symName: __ZNSt3__122__compressed_pair_elemIPPNS_16__hash_node_baseIPNS_11__hash_nodeINS_17__hash_value_typeI4SuitiEEPvEEEELi0ELb0EE5__getB8ue170006Ev, symObjAddr: 0x7868, symBinAddr: 0x10000D29C, symSize: 0x14 }
  - { offsetInCU: 0x158A1, offset: 0x3AFA6, size: 0x8, addend: 0x0, symName: __ZNSt3__122__compressed_pair_elemINS_25__bucket_list_deallocatorINS_9allocatorIPNS_16__hash_node_baseIPNS_11__hash_nodeINS_17__hash_value_typeI4SuitiEEPvEEEEEEEELi1ELb0EE5__getB8ue170006Ev, symObjAddr: 0x787C, symBinAddr: 0x10000D2B0, symSize: 0x14 }
  - { offsetInCU: 0x158C5, offset: 0x3AFCA, size: 0x8, addend: 0x0, symName: __ZNSt3__116allocator_traitsINS_9allocatorIPNS_16__hash_node_baseIPNS_11__hash_nodeINS_17__hash_value_typeI4SuitiEEPvEEEEEEE10deallocateB8ue170006ERSC_PSB_m, symObjAddr: 0x7890, symBinAddr: 0x10000D2C4, symSize: 0x34 }
  - { offsetInCU: 0x15907, offset: 0x3B00C, size: 0x8, addend: 0x0, symName: __ZNSt3__125__bucket_list_deallocatorINS_9allocatorIPNS_16__hash_node_baseIPNS_11__hash_nodeINS_17__hash_value_typeI4SuitiEEPvEEEEEEE7__allocB8ue170006Ev, symObjAddr: 0x78C4, symBinAddr: 0x10000D2F8, symSize: 0x24 }
  - { offsetInCU: 0x1592B, offset: 0x3B030, size: 0x8, addend: 0x0, symName: __ZNSt3__125__bucket_list_deallocatorINS_9allocatorIPNS_16__hash_node_baseIPNS_11__hash_nodeINS_17__hash_value_typeI4SuitiEEPvEEEEEEE4sizeB8ue170006Ev, symObjAddr: 0x78E8, symBinAddr: 0x10000D31C, symSize: 0x24 }
  - { offsetInCU: 0x1594F, offset: 0x3B054, size: 0x8, addend: 0x0, symName: __ZNSt3__19allocatorIPNS_16__hash_node_baseIPNS_11__hash_nodeINS_17__hash_value_typeI4SuitiEEPvEEEEE10deallocateB8ue170006EPSA_m, symObjAddr: 0x790C, symBinAddr: 0x10000D340, symSize: 0x40 }
  - { offsetInCU: 0x1598F, offset: 0x3B094, size: 0x8, addend: 0x0, symName: __ZNSt3__117__compressed_pairImNS_9allocatorIPNS_16__hash_node_baseIPNS_11__hash_nodeINS_17__hash_value_typeI4SuitiEEPvEEEEEEE6secondB8ue170006Ev, symObjAddr: 0x794C, symBinAddr: 0x10000D380, symSize: 0x24 }
  - { offsetInCU: 0x159B3, offset: 0x3B0B8, size: 0x8, addend: 0x0, symName: __ZNSt3__122__compressed_pair_elemINS_9allocatorIPNS_16__hash_node_baseIPNS_11__hash_nodeINS_17__hash_value_typeI4SuitiEEPvEEEEEELi1ELb1EE5__getB8ue170006Ev, symObjAddr: 0x7970, symBinAddr: 0x10000D3A4, symSize: 0x14 }
  - { offsetInCU: 0x159D7, offset: 0x3B0DC, size: 0x8, addend: 0x0, symName: __ZNSt3__117__compressed_pairImNS_9allocatorIPNS_16__hash_node_baseIPNS_11__hash_nodeINS_17__hash_value_typeI4SuitiEEPvEEEEEEE5firstB8ue170006Ev, symObjAddr: 0x7984, symBinAddr: 0x10000D3B8, symSize: 0x24 }
  - { offsetInCU: 0x159FB, offset: 0x3B100, size: 0x8, addend: 0x0, symName: __ZNSt3__122__compressed_pair_elemImLi0ELb0EE5__getB8ue170006Ev, symObjAddr: 0x79A8, symBinAddr: 0x10000D3DC, symSize: 0x14 }
  - { offsetInCU: 0x15A1F, offset: 0x3B124, size: 0x8, addend: 0x0, symName: __ZNSt3__16vectorI4CardI12PinochleRank4SuitENS_9allocatorIS4_EEE11__make_iterB8ue170006EPS4_, symObjAddr: 0x79BC, symBinAddr: 0x10000D3F0, symSize: 0x30 }
  - { offsetInCU: 0x15A52, offset: 0x3B157, size: 0x8, addend: 0x0, symName: __ZNSt3__111__wrap_iterIP4CardI12PinochleRank4SuitEEC1B8ue170006ES5_, symObjAddr: 0x79EC, symBinAddr: 0x10000D420, symSize: 0x34 }
  - { offsetInCU: 0x15A88, offset: 0x3B18D, size: 0x8, addend: 0x0, symName: __ZNSt3__111__wrap_iterIP4CardI12PinochleRank4SuitEEC2B8ue170006ES5_, symObjAddr: 0x7A20, symBinAddr: 0x10000D454, symSize: 0x20 }
  - { offsetInCU: 0x15AD2, offset: 0x3B1D7, size: 0x8, addend: 0x0, symName: __ZNSt3__112__hash_tableINS_17__hash_value_typeI4SuitiEENS_22__unordered_map_hasherIS2_S3_NS_4hashIS2_EENS_8equal_toIS2_EELb1EEENS_21__unordered_map_equalIS2_S3_S8_S6_Lb1EEENS_9allocatorIS3_EEE25__emplace_unique_key_argsIS2_JRKNS_21piecewise_construct_tENS_5tupleIJRKS2_EEENSJ_IJEEEEEENS_4pairINS_15__hash_iteratorIPNS_11__hash_nodeIS3_PvEEEEbEERKT_DpOT0_, symObjAddr: 0x7A40, symBinAddr: 0x10000D474, symSize: 0x4E8 }
  - { offsetInCU: 0x15BDA, offset: 0x3B2DF, size: 0x8, addend: 0x0, symName: __ZNKSt3__115__hash_iteratorIPNS_11__hash_nodeINS_17__hash_value_typeI4SuitiEEPvEEEptB8ue170006Ev, symObjAddr: 0x7F58, symBinAddr: 0x10000D98C, symSize: 0x30 }
  - { offsetInCU: 0x15BFE, offset: 0x3B303, size: 0x8, addend: 0x0, symName: __ZNSt3__112__hash_tableINS_17__hash_value_typeI4SuitiEENS_22__unordered_map_hasherIS2_S3_NS_4hashIS2_EENS_8equal_toIS2_EELb1EEENS_21__unordered_map_equalIS2_S3_S8_S6_Lb1EEENS_9allocatorIS3_EEE13hash_functionB8ue170006Ev, symObjAddr: 0x7F88, symBinAddr: 0x10000D9BC, symSize: 0x28 }
  - { offsetInCU: 0x15C22, offset: 0x3B327, size: 0x8, addend: 0x0, symName: __ZNKSt3__122__unordered_map_hasherI4SuitNS_17__hash_value_typeIS1_iEENS_4hashIS1_EENS_8equal_toIS1_EELb1EEclB8ue170006ERKS1_, symObjAddr: 0x7FB0, symBinAddr: 0x10000D9E4, symSize: 0x30 }
  - { offsetInCU: 0x15C55, offset: 0x3B35A, size: 0x8, addend: 0x0, symName: __ZNKSt3__112__hash_tableINS_17__hash_value_typeI4SuitiEENS_22__unordered_map_hasherIS2_S3_NS_4hashIS2_EENS_8equal_toIS2_EELb1EEENS_21__unordered_map_equalIS2_S3_S8_S6_Lb1EEENS_9allocatorIS3_EEE12bucket_countB8ue170006Ev, symObjAddr: 0x7FE0, symBinAddr: 0x10000DA14, symSize: 0x28 }
  - { offsetInCU: 0x15C79, offset: 0x3B37E, size: 0x8, addend: 0x0, symName: __ZNKSt3__110unique_ptrIA_PNS_16__hash_node_baseIPNS_11__hash_nodeINS_17__hash_value_typeI4SuitiEEPvEEEENS_25__bucket_list_deallocatorINS_9allocatorISA_EEEEEixB8ue170006Em, symObjAddr: 0x80A0, symBinAddr: 0x10000DAD4, symSize: 0x34 }
  - { offsetInCU: 0x15CAC, offset: 0x3B3B1, size: 0x8, addend: 0x0, symName: __ZNKSt3__116__hash_node_baseIPNS_11__hash_nodeINS_17__hash_value_typeI4SuitiEEPvEEE6__hashB8ue170006Ev, symObjAddr: 0x80D4, symBinAddr: 0x10000DB08, symSize: 0x18 }
  - { offsetInCU: 0x15CD0, offset: 0x3B3D5, size: 0x8, addend: 0x0, symName: __ZNSt3__112__hash_tableINS_17__hash_value_typeI4SuitiEENS_22__unordered_map_hasherIS2_S3_NS_4hashIS2_EENS_8equal_toIS2_EELb1EEENS_21__unordered_map_equalIS2_S3_S8_S6_Lb1EEENS_9allocatorIS3_EEE6key_eqB8ue170006Ev, symObjAddr: 0x80EC, symBinAddr: 0x10000DB20, symSize: 0x28 }
  - { offsetInCU: 0x15CF4, offset: 0x3B3F9, size: 0x8, addend: 0x0, symName: __ZNKSt3__121__unordered_map_equalI4SuitNS_17__hash_value_typeIS1_iEENS_8equal_toIS1_EENS_4hashIS1_EELb1EEclB8ue170006ERKS3_RKS1_, symObjAddr: 0x8114, symBinAddr: 0x10000DB48, symSize: 0x48 }
  - { offsetInCU: 0x15D36, offset: 0x3B43B, size: 0x8, addend: 0x0, symName: __ZNSt3__112__hash_tableINS_17__hash_value_typeI4SuitiEENS_22__unordered_map_hasherIS2_S3_NS_4hashIS2_EENS_8equal_toIS2_EELb1EEENS_21__unordered_map_equalIS2_S3_S8_S6_Lb1EEENS_9allocatorIS3_EEE21__construct_node_hashIRKNS_21piecewise_construct_tEJNS_5tupleIJRKS2_EEENSJ_IJEEEEEENS_10unique_ptrINS_11__hash_nodeIS3_PvEENS_22__hash_node_destructorINSC_ISR_EEEEEEmOT_DpOT0_, symObjAddr: 0x815C, symBinAddr: 0x10000DB90, symSize: 0x150 }
  - { offsetInCU: 0x15DD0, offset: 0x3B4D5, size: 0x8, addend: 0x0, symName: __ZNSt3__112__hash_tableINS_17__hash_value_typeI4SuitiEENS_22__unordered_map_hasherIS2_S3_NS_4hashIS2_EENS_8equal_toIS2_EELb1EEENS_21__unordered_map_equalIS2_S3_S8_S6_Lb1EEENS_9allocatorIS3_EEE4sizeB8ue170006Ev, symObjAddr: 0x82AC, symBinAddr: 0x10000DCE0, symSize: 0x28 }
  - { offsetInCU: 0x15DF4, offset: 0x3B4F9, size: 0x8, addend: 0x0, symName: __ZNSt3__112__hash_tableINS_17__hash_value_typeI4SuitiEENS_22__unordered_map_hasherIS2_S3_NS_4hashIS2_EENS_8equal_toIS2_EELb1EEENS_21__unordered_map_equalIS2_S3_S8_S6_Lb1EEENS_9allocatorIS3_EEE15max_load_factorB8ue170006Ev, symObjAddr: 0x82D4, symBinAddr: 0x10000DD08, symSize: 0x28 }
  - { offsetInCU: 0x15E18, offset: 0x3B51D, size: 0x8, addend: 0x0, symName: __ZNSt3__112__hash_tableINS_17__hash_value_typeI4SuitiEENS_22__unordered_map_hasherIS2_S3_NS_4hashIS2_EENS_8equal_toIS2_EELb1EEENS_21__unordered_map_equalIS2_S3_S8_S6_Lb1EEENS_9allocatorIS3_EEE15__rehash_uniqueB8ue170006Em, symObjAddr: 0x82FC, symBinAddr: 0x10000DD30, symSize: 0x2C }
  - { offsetInCU: 0x15E4A, offset: 0x3B54F, size: 0x8, addend: 0x0, symName: __Z4ceilB8ue170006f, symObjAddr: 0x8378, symBinAddr: 0x10000DDAC, symSize: 0x18 }
  - { offsetInCU: 0x15E7A, offset: 0x3B57F, size: 0x8, addend: 0x0, symName: __ZNSt3__116__hash_node_baseIPNS_11__hash_nodeINS_17__hash_value_typeI4SuitiEEPvEEE5__ptrB8ue170006Ev, symObjAddr: 0x8390, symBinAddr: 0x10000DDC4, symSize: 0x24 }
  - { offsetInCU: 0x15E9E, offset: 0x3B5A3, size: 0x8, addend: 0x0, symName: __ZNKSt3__110unique_ptrINS_11__hash_nodeINS_17__hash_value_typeI4SuitiEEPvEENS_22__hash_node_destructorINS_9allocatorIS6_EEEEEptB8ue170006Ev, symObjAddr: 0x83B4, symBinAddr: 0x10000DDE8, symSize: 0x28 }
  - { offsetInCU: 0x15EC2, offset: 0x3B5C7, size: 0x8, addend: 0x0, symName: __ZNKSt3__110unique_ptrINS_11__hash_nodeINS_17__hash_value_typeI4SuitiEEPvEENS_22__hash_node_destructorINS_9allocatorIS6_EEEEE3getB8ue170006Ev, symObjAddr: 0x83DC, symBinAddr: 0x10000DE10, symSize: 0x28 }
  - { offsetInCU: 0x15EE6, offset: 0x3B5EB, size: 0x8, addend: 0x0, symName: __ZNSt3__110unique_ptrINS_11__hash_nodeINS_17__hash_value_typeI4SuitiEEPvEENS_22__hash_node_destructorINS_9allocatorIS6_EEEEE7releaseB8ue170006Ev, symObjAddr: 0x8404, symBinAddr: 0x10000DE38, symSize: 0x44 }
  - { offsetInCU: 0x15F19, offset: 0x3B61E, size: 0x8, addend: 0x0, symName: __ZNSt3__110unique_ptrINS_11__hash_nodeINS_17__hash_value_typeI4SuitiEEPvEENS_22__hash_node_destructorINS_9allocatorIS6_EEEEED1B8ue170006Ev, symObjAddr: 0x8448, symBinAddr: 0x10000DE7C, symSize: 0x2C }
  - { offsetInCU: 0x15F41, offset: 0x3B646, size: 0x8, addend: 0x0, symName: __ZNSt3__115__hash_iteratorIPNS_11__hash_nodeINS_17__hash_value_typeI4SuitiEEPvEEEC1B8ue170006EPNS_16__hash_node_baseIS7_EE, symObjAddr: 0x8474, symBinAddr: 0x10000DEA8, symSize: 0x34 }
  - { offsetInCU: 0x15F82, offset: 0x3B687, size: 0x8, addend: 0x0, symName: __ZNSt3__14pairINS_15__hash_iteratorIPNS_11__hash_nodeINS_17__hash_value_typeI4SuitiEEPvEEEEbEC1B8ue170006IS9_RbLS6_0EEEOT_OT0_, symObjAddr: 0x84A8, symBinAddr: 0x10000DEDC, symSize: 0x3C }
  - { offsetInCU: 0x15FDF, offset: 0x3B6E4, size: 0x8, addend: 0x0, symName: __ZNSt3__117__compressed_pairImNS_22__unordered_map_hasherI4SuitNS_17__hash_value_typeIS2_iEENS_4hashIS2_EENS_8equal_toIS2_EELb1EEEE6secondB8ue170006Ev, symObjAddr: 0x84E4, symBinAddr: 0x10000DF18, symSize: 0x24 }
  - { offsetInCU: 0x16003, offset: 0x3B708, size: 0x8, addend: 0x0, symName: __ZNSt3__122__compressed_pair_elemINS_22__unordered_map_hasherI4SuitNS_17__hash_value_typeIS2_iEENS_4hashIS2_EENS_8equal_toIS2_EELb1EEELi1ELb1EE5__getB8ue170006Ev, symObjAddr: 0x8508, symBinAddr: 0x10000DF3C, symSize: 0x14 }
  - { offsetInCU: 0x16031, offset: 0x3B736, size: 0x8, addend: 0x0, symName: __ZNKSt3__14hashIiEclB8ue170006Ei, symObjAddr: 0x8548, symBinAddr: 0x10000DF7C, symSize: 0x18 }
  - { offsetInCU: 0x16064, offset: 0x3B769, size: 0x8, addend: 0x0, symName: __ZNKSt3__110unique_ptrIA_PNS_16__hash_node_baseIPNS_11__hash_nodeINS_17__hash_value_typeI4SuitiEEPvEEEENS_25__bucket_list_deallocatorINS_9allocatorISA_EEEEE11get_deleterB8ue170006Ev, symObjAddr: 0x8560, symBinAddr: 0x10000DF94, symSize: 0x24 }
  - { offsetInCU: 0x16088, offset: 0x3B78D, size: 0x8, addend: 0x0, symName: __ZNKSt3__125__bucket_list_deallocatorINS_9allocatorIPNS_16__hash_node_baseIPNS_11__hash_nodeINS_17__hash_value_typeI4SuitiEEPvEEEEEEE4sizeB8ue170006Ev, symObjAddr: 0x8584, symBinAddr: 0x10000DFB8, symSize: 0x28 }
  - { offsetInCU: 0x160AC, offset: 0x3B7B1, size: 0x8, addend: 0x0, symName: __ZNKSt3__117__compressed_pairIPPNS_16__hash_node_baseIPNS_11__hash_nodeINS_17__hash_value_typeI4SuitiEEPvEEEENS_25__bucket_list_deallocatorINS_9allocatorISA_EEEEE6secondB8ue170006Ev, symObjAddr: 0x85AC, symBinAddr: 0x10000DFE0, symSize: 0x28 }
  - { offsetInCU: 0x160D0, offset: 0x3B7D5, size: 0x8, addend: 0x0, symName: __ZNKSt3__122__compressed_pair_elemINS_25__bucket_list_deallocatorINS_9allocatorIPNS_16__hash_node_baseIPNS_11__hash_nodeINS_17__hash_value_typeI4SuitiEEPvEEEEEEEELi1ELb0EE5__getB8ue170006Ev, symObjAddr: 0x85D4, symBinAddr: 0x10000E008, symSize: 0x14 }
  - { offsetInCU: 0x160F4, offset: 0x3B7F9, size: 0x8, addend: 0x0, symName: __ZNKSt3__117__compressed_pairImNS_9allocatorIPNS_16__hash_node_baseIPNS_11__hash_nodeINS_17__hash_value_typeI4SuitiEEPvEEEEEEE5firstB8ue170006Ev, symObjAddr: 0x85E8, symBinAddr: 0x10000E01C, symSize: 0x24 }
  - { offsetInCU: 0x16118, offset: 0x3B81D, size: 0x8, addend: 0x0, symName: __ZNKSt3__122__compressed_pair_elemImLi0ELb0EE5__getB8ue170006Ev, symObjAddr: 0x860C, symBinAddr: 0x10000E040, symSize: 0x14 }
  - { offsetInCU: 0x1613C, offset: 0x3B841, size: 0x8, addend: 0x0, symName: __ZNKSt3__117__compressed_pairIPPNS_16__hash_node_baseIPNS_11__hash_nodeINS_17__hash_value_typeI4SuitiEEPvEEEENS_25__bucket_list_deallocatorINS_9allocatorISA_EEEEE5firstB8ue170006Ev, symObjAddr: 0x8620, symBinAddr: 0x10000E054, symSize: 0x24 }
  - { offsetInCU: 0x16160, offset: 0x3B865, size: 0x8, addend: 0x0, symName: __ZNKSt3__122__compressed_pair_elemIPPNS_16__hash_node_baseIPNS_11__hash_nodeINS_17__hash_value_typeI4SuitiEEPvEEEELi0ELb0EE5__getB8ue170006Ev, symObjAddr: 0x8644, symBinAddr: 0x10000E078, symSize: 0x14 }
  - { offsetInCU: 0x16184, offset: 0x3B889, size: 0x8, addend: 0x0, symName: __ZNSt3__117__compressed_pairIfNS_21__unordered_map_equalI4SuitNS_17__hash_value_typeIS2_iEENS_8equal_toIS2_EENS_4hashIS2_EELb1EEEE6secondB8ue170006Ev, symObjAddr: 0x8658, symBinAddr: 0x10000E08C, symSize: 0x24 }
  - { offsetInCU: 0x161A8, offset: 0x3B8AD, size: 0x8, addend: 0x0, symName: __ZNSt3__122__compressed_pair_elemINS_21__unordered_map_equalI4SuitNS_17__hash_value_typeIS2_iEENS_8equal_toIS2_EENS_4hashIS2_EELb1EEELi1ELb1EE5__getB8ue170006Ev, symObjAddr: 0x867C, symBinAddr: 0x10000E0B0, symSize: 0x14 }
  - { offsetInCU: 0x161CC, offset: 0x3B8D1, size: 0x8, addend: 0x0, symName: __ZNKSt3__18equal_toI4SuitEclB8ue170006ERKS1_S4_, symObjAddr: 0x8690, symBinAddr: 0x10000E0C4, symSize: 0x34 }
  - { offsetInCU: 0x1620E, offset: 0x3B913, size: 0x8, addend: 0x0, symName: __ZNKSt3__117__hash_value_typeI4SuitiE11__get_valueB8ue170006Ev, symObjAddr: 0x86C4, symBinAddr: 0x10000E0F8, symSize: 0x24 }
  - { offsetInCU: 0x16232, offset: 0x3B937, size: 0x8, addend: 0x0, symName: __ZNSt3__116allocator_traitsINS_9allocatorINS_11__hash_nodeINS_17__hash_value_typeI4SuitiEEPvEEEEE8allocateB8ue170006ERS8_m, symObjAddr: 0x8720, symBinAddr: 0x10000E154, symSize: 0x2C }
  - { offsetInCU: 0x16265, offset: 0x3B96A, size: 0x8, addend: 0x0, symName: __ZNSt3__122__hash_node_destructorINS_9allocatorINS_11__hash_nodeINS_17__hash_value_typeI4SuitiEEPvEEEEEC1B8ue170006ERS8_b, symObjAddr: 0x874C, symBinAddr: 0x10000E180, symSize: 0x48 }
  - { offsetInCU: 0x162B0, offset: 0x3B9B5, size: 0x8, addend: 0x0, symName: __ZNSt3__110unique_ptrINS_11__hash_nodeINS_17__hash_value_typeI4SuitiEEPvEENS_22__hash_node_destructorINS_9allocatorIS6_EEEEEC1B8ue170006ILb1EvEEPS6_NS_16__dependent_typeINS_27__unique_ptr_deleter_sfinaeISA_EEXT_EE20__good_rval_ref_typeE, symObjAddr: 0x8794, symBinAddr: 0x10000E1C8, symSize: 0x3C }
  - { offsetInCU: 0x162FF, offset: 0x3BA04, size: 0x8, addend: 0x0, symName: __ZNSt3__116allocator_traitsINS_9allocatorINS_11__hash_nodeINS_17__hash_value_typeI4SuitiEEPvEEEEE9constructB8ue170006INS_4pairIKS4_iEEJRKNS_21piecewise_construct_tENS_5tupleIJRSC_EEENSH_IJEEEEvEEvRS8_PT_DpOT0_, symObjAddr: 0x87D0, symBinAddr: 0x10000E204, symSize: 0x44 }
  - { offsetInCU: 0x1637E, offset: 0x3BA83, size: 0x8, addend: 0x0, symName: __ZNSt3__110unique_ptrINS_11__hash_nodeINS_17__hash_value_typeI4SuitiEEPvEENS_22__hash_node_destructorINS_9allocatorIS6_EEEEE11get_deleterB8ue170006Ev, symObjAddr: 0x8814, symBinAddr: 0x10000E248, symSize: 0x24 }
  - { offsetInCU: 0x163A2, offset: 0x3BAA7, size: 0x8, addend: 0x0, symName: __ZNSt3__19allocatorINS_11__hash_nodeINS_17__hash_value_typeI4SuitiEEPvEEE8allocateB8ue170006Em, symObjAddr: 0x8838, symBinAddr: 0x10000E26C, symSize: 0x5C }
  - { offsetInCU: 0x163DE, offset: 0x3BAE3, size: 0x8, addend: 0x0, symName: __ZNSt3__116allocator_traitsINS_9allocatorINS_11__hash_nodeINS_17__hash_value_typeI4SuitiEEPvEEEEE8max_sizeB8ue170006IS8_vEEmRKS8_, symObjAddr: 0x8894, symBinAddr: 0x10000E2C8, symSize: 0x24 }
  - { offsetInCU: 0x1640C, offset: 0x3BB11, size: 0x8, addend: 0x0, symName: __ZNKSt3__19allocatorINS_11__hash_nodeINS_17__hash_value_typeI4SuitiEEPvEEE8max_sizeB8ue170006Ev, symObjAddr: 0x88B8, symBinAddr: 0x10000E2EC, symSize: 0x18 }
  - { offsetInCU: 0x16430, offset: 0x3BB35, size: 0x8, addend: 0x0, symName: __ZNSt3__122__hash_node_destructorINS_9allocatorINS_11__hash_nodeINS_17__hash_value_typeI4SuitiEEPvEEEEEC2B8ue170006ERS8_b, symObjAddr: 0x88D0, symBinAddr: 0x10000E304, symSize: 0x38 }
  - { offsetInCU: 0x16476, offset: 0x3BB7B, size: 0x8, addend: 0x0, symName: __ZNSt3__110unique_ptrINS_11__hash_nodeINS_17__hash_value_typeI4SuitiEEPvEENS_22__hash_node_destructorINS_9allocatorIS6_EEEEEC2B8ue170006ILb1EvEEPS6_NS_16__dependent_typeINS_27__unique_ptr_deleter_sfinaeISA_EEXT_EE20__good_rval_ref_typeE, symObjAddr: 0x8908, symBinAddr: 0x10000E33C, symSize: 0x48 }
  - { offsetInCU: 0x164C5, offset: 0x3BBCA, size: 0x8, addend: 0x0, symName: __ZNSt3__117__compressed_pairIPNS_11__hash_nodeINS_17__hash_value_typeI4SuitiEEPvEENS_22__hash_node_destructorINS_9allocatorIS6_EEEEEC1B8ue170006IRS7_SB_EEOT_OT0_, symObjAddr: 0x8950, symBinAddr: 0x10000E384, symSize: 0x3C }
  - { offsetInCU: 0x1651B, offset: 0x3BC20, size: 0x8, addend: 0x0, symName: __ZNSt3__117__compressed_pairIPNS_11__hash_nodeINS_17__hash_value_typeI4SuitiEEPvEENS_22__hash_node_destructorINS_9allocatorIS6_EEEEEC2B8ue170006IRS7_SB_EEOT_OT0_, symObjAddr: 0x898C, symBinAddr: 0x10000E3C0, symSize: 0x48 }
  - { offsetInCU: 0x16571, offset: 0x3BC76, size: 0x8, addend: 0x0, symName: __ZNSt3__122__compressed_pair_elemIPNS_11__hash_nodeINS_17__hash_value_typeI4SuitiEEPvEELi0ELb0EEC2B8ue170006IRS7_vEEOT_, symObjAddr: 0x89D4, symBinAddr: 0x10000E408, symSize: 0x24 }
  - { offsetInCU: 0x165B1, offset: 0x3BCB6, size: 0x8, addend: 0x0, symName: __ZNSt3__122__compressed_pair_elemINS_22__hash_node_destructorINS_9allocatorINS_11__hash_nodeINS_17__hash_value_typeI4SuitiEEPvEEEEEELi1ELb0EEC2B8ue170006ISA_vEEOT_, symObjAddr: 0x89F8, symBinAddr: 0x10000E42C, symSize: 0x24 }
  - { offsetInCU: 0x165F1, offset: 0x3BCF6, size: 0x8, addend: 0x0, symName: __ZNSt3__19allocatorINS_11__hash_nodeINS_17__hash_value_typeI4SuitiEEPvEEE9constructB8ue170006INS_4pairIKS3_iEEJRKNS_21piecewise_construct_tENS_5tupleIJRSA_EEENSF_IJEEEEEEvPT_DpOT0_, symObjAddr: 0x8A1C, symBinAddr: 0x10000E450, symSize: 0x44 }
  - { offsetInCU: 0x1666B, offset: 0x3BD70, size: 0x8, addend: 0x0, symName: __ZNSt3__14pairIK4SuitiEC1B8ue170006IJRS2_EJEEENS_21piecewise_construct_tENS_5tupleIJDpT_EEENS7_IJDpT0_EEE, symObjAddr: 0x8A60, symBinAddr: 0x10000E494, symSize: 0x44 }
  - { offsetInCU: 0x166D1, offset: 0x3BDD6, size: 0x8, addend: 0x0, symName: __ZNSt3__14pairIK4SuitiEC1B8ue170006IJRS2_EJEJLm0EEJEEENS_21piecewise_construct_tERNS_5tupleIJDpT_EEERNS7_IJDpT0_EEENS_15__tuple_indicesIJXspT1_EEEENSG_IJXspT2_EEEE, symObjAddr: 0x8AA4, symBinAddr: 0x10000E4D8, symSize: 0x3C }
  - { offsetInCU: 0x16763, offset: 0x3BE68, size: 0x8, addend: 0x0, symName: __ZNSt3__14pairIK4SuitiEC2B8ue170006IJRS2_EJEJLm0EEJEEENS_21piecewise_construct_tERNS_5tupleIJDpT_EEERNS7_IJDpT0_EEENS_15__tuple_indicesIJXspT1_EEEENSG_IJXspT2_EEEE, symObjAddr: 0x8AE0, symBinAddr: 0x10000E514, symSize: 0x48 }
  - { offsetInCU: 0x167F5, offset: 0x3BEFA, size: 0x8, addend: 0x0, symName: __ZNSt3__112__tuple_leafILm0ERK4SuitLb0EE3getB8ue170006Ev, symObjAddr: 0x8B4C, symBinAddr: 0x10000E580, symSize: 0x18 }
  - { offsetInCU: 0x16819, offset: 0x3BF1E, size: 0x8, addend: 0x0, symName: __ZNSt3__117__compressed_pairIPNS_11__hash_nodeINS_17__hash_value_typeI4SuitiEEPvEENS_22__hash_node_destructorINS_9allocatorIS6_EEEEE6secondB8ue170006Ev, symObjAddr: 0x8B64, symBinAddr: 0x10000E598, symSize: 0x28 }
  - { offsetInCU: 0x1683D, offset: 0x3BF42, size: 0x8, addend: 0x0, symName: __ZNSt3__122__compressed_pair_elemINS_22__hash_node_destructorINS_9allocatorINS_11__hash_nodeINS_17__hash_value_typeI4SuitiEEPvEEEEEELi1ELb0EE5__getB8ue170006Ev, symObjAddr: 0x8B8C, symBinAddr: 0x10000E5C0, symSize: 0x14 }
  - { offsetInCU: 0x16861, offset: 0x3BF66, size: 0x8, addend: 0x0, symName: __ZNSt3__117__compressed_pairImNS_22__unordered_map_hasherI4SuitNS_17__hash_value_typeIS2_iEENS_4hashIS2_EENS_8equal_toIS2_EELb1EEEE5firstB8ue170006Ev, symObjAddr: 0x8BA0, symBinAddr: 0x10000E5D4, symSize: 0x24 }
  - { offsetInCU: 0x16885, offset: 0x3BF8A, size: 0x8, addend: 0x0, symName: __ZNSt3__117__compressed_pairIfNS_21__unordered_map_equalI4SuitNS_17__hash_value_typeIS2_iEENS_8equal_toIS2_EENS_4hashIS2_EELb1EEEE5firstB8ue170006Ev, symObjAddr: 0x8BC4, symBinAddr: 0x10000E5F8, symSize: 0x24 }
  - { offsetInCU: 0x168A9, offset: 0x3BFAE, size: 0x8, addend: 0x0, symName: __ZNSt3__122__compressed_pair_elemIfLi0ELb0EE5__getB8ue170006Ev, symObjAddr: 0x8BE8, symBinAddr: 0x10000E61C, symSize: 0x14 }
  - { offsetInCU: 0x168CD, offset: 0x3BFD2, size: 0x8, addend: 0x0, symName: __ZNSt3__112__hash_tableINS_17__hash_value_typeI4SuitiEENS_22__unordered_map_hasherIS2_S3_NS_4hashIS2_EENS_8equal_toIS2_EELb1EEENS_21__unordered_map_equalIS2_S3_S8_S6_Lb1EEENS_9allocatorIS3_EEE8__rehashILb1EEEvm, symObjAddr: 0x8BFC, symBinAddr: 0x10000E630, symSize: 0x1A8 }
  - { offsetInCU: 0x1691B, offset: 0x3C020, size: 0x8, addend: 0x0, symName: __ZNSt3__112__hash_tableINS_17__hash_value_typeI4SuitiEENS_22__unordered_map_hasherIS2_S3_NS_4hashIS2_EENS_8equal_toIS2_EELb1EEENS_21__unordered_map_equalIS2_S3_S8_S6_Lb1EEENS_9allocatorIS3_EEE11__do_rehashILb1EEEvm, symObjAddr: 0x8DA4, symBinAddr: 0x10000E7D8, symSize: 0x288 }
  - { offsetInCU: 0x16A00, offset: 0x3C105, size: 0x8, addend: 0x0, symName: __ZNSt3__110unique_ptrIA_PNS_16__hash_node_baseIPNS_11__hash_nodeINS_17__hash_value_typeI4SuitiEEPvEEEENS_25__bucket_list_deallocatorINS_9allocatorISA_EEEEE11get_deleterB8ue170006Ev, symObjAddr: 0x9098, symBinAddr: 0x10000EACC, symSize: 0x24 }
  - { offsetInCU: 0x16A24, offset: 0x3C129, size: 0x8, addend: 0x0, symName: __ZNSt3__110unique_ptrIA_PNS_16__hash_node_baseIPNS_11__hash_nodeINS_17__hash_value_typeI4SuitiEEPvEEEENS_25__bucket_list_deallocatorINS_9allocatorISA_EEEEE5resetB8ue170006IPSA_EENS_9enable_ifIXsr28_CheckArrayPointerConversionIT_EE5valueEvE4typeESK_, symObjAddr: 0x90BC, symBinAddr: 0x10000EAF0, symSize: 0x78 }
  - { offsetInCU: 0x16A6F, offset: 0x3C174, size: 0x8, addend: 0x0, symName: __ZNSt3__116allocator_traitsINS_9allocatorIPNS_16__hash_node_baseIPNS_11__hash_nodeINS_17__hash_value_typeI4SuitiEEPvEEEEEEE8allocateB8ue170006ERSC_m, symObjAddr: 0x9134, symBinAddr: 0x10000EB68, symSize: 0x2C }
  - { offsetInCU: 0x16AA2, offset: 0x3C1A7, size: 0x8, addend: 0x0, symName: __ZNSt3__19allocatorIPNS_16__hash_node_baseIPNS_11__hash_nodeINS_17__hash_value_typeI4SuitiEEPvEEEEE8allocateB8ue170006Em, symObjAddr: 0x9160, symBinAddr: 0x10000EB94, symSize: 0x58 }
  - { offsetInCU: 0x16ADE, offset: 0x3C1E3, size: 0x8, addend: 0x0, symName: __ZNSt3__116allocator_traitsINS_9allocatorIPNS_16__hash_node_baseIPNS_11__hash_nodeINS_17__hash_value_typeI4SuitiEEPvEEEEEEE8max_sizeB8ue170006ISC_vEEmRKSC_, symObjAddr: 0x91B8, symBinAddr: 0x10000EBEC, symSize: 0x24 }
  - { offsetInCU: 0x16B0C, offset: 0x3C211, size: 0x8, addend: 0x0, symName: __ZNKSt3__19allocatorIPNS_16__hash_node_baseIPNS_11__hash_nodeINS_17__hash_value_typeI4SuitiEEPvEEEEE8max_sizeB8ue170006Ev, symObjAddr: 0x91DC, symBinAddr: 0x10000EC10, symSize: 0x14 }
  - { offsetInCU: 0x16B30, offset: 0x3C235, size: 0x8, addend: 0x0, symName: __ZNKSt3__117__compressed_pairIPNS_11__hash_nodeINS_17__hash_value_typeI4SuitiEEPvEENS_22__hash_node_destructorINS_9allocatorIS6_EEEEE5firstB8ue170006Ev, symObjAddr: 0x920C, symBinAddr: 0x10000EC40, symSize: 0x24 }
  - { offsetInCU: 0x16B54, offset: 0x3C259, size: 0x8, addend: 0x0, symName: __ZNKSt3__122__compressed_pair_elemIPNS_11__hash_nodeINS_17__hash_value_typeI4SuitiEEPvEELi0ELb0EE5__getB8ue170006Ev, symObjAddr: 0x9230, symBinAddr: 0x10000EC64, symSize: 0x14 }
  - { offsetInCU: 0x16B78, offset: 0x3C27D, size: 0x8, addend: 0x0, symName: __ZNSt3__117__compressed_pairIPNS_11__hash_nodeINS_17__hash_value_typeI4SuitiEEPvEENS_22__hash_node_destructorINS_9allocatorIS6_EEEEE5firstB8ue170006Ev, symObjAddr: 0x9244, symBinAddr: 0x10000EC78, symSize: 0x24 }
  - { offsetInCU: 0x16B9C, offset: 0x3C2A1, size: 0x8, addend: 0x0, symName: __ZNSt3__122__compressed_pair_elemIPNS_11__hash_nodeINS_17__hash_value_typeI4SuitiEEPvEELi0ELb0EE5__getB8ue170006Ev, symObjAddr: 0x9268, symBinAddr: 0x10000EC9C, symSize: 0x14 }
  - { offsetInCU: 0x16BC0, offset: 0x3C2C5, size: 0x8, addend: 0x0, symName: __ZNSt3__110unique_ptrINS_11__hash_nodeINS_17__hash_value_typeI4SuitiEEPvEENS_22__hash_node_destructorINS_9allocatorIS6_EEEEED2B8ue170006Ev, symObjAddr: 0x927C, symBinAddr: 0x10000ECB0, symSize: 0x30 }
  - { offsetInCU: 0x16BE8, offset: 0x3C2ED, size: 0x8, addend: 0x0, symName: __ZNSt3__110unique_ptrINS_11__hash_nodeINS_17__hash_value_typeI4SuitiEEPvEENS_22__hash_node_destructorINS_9allocatorIS6_EEEEE5resetB8ue170006EPS6_, symObjAddr: 0x92AC, symBinAddr: 0x10000ECE0, symSize: 0x78 }
  - { offsetInCU: 0x16C2A, offset: 0x3C32F, size: 0x8, addend: 0x0, symName: __ZNSt3__122__hash_node_destructorINS_9allocatorINS_11__hash_nodeINS_17__hash_value_typeI4SuitiEEPvEEEEEclB8ue170006EPS7_, symObjAddr: 0x9324, symBinAddr: 0x10000ED58, symSize: 0x94 }
  - { offsetInCU: 0x16C5D, offset: 0x3C362, size: 0x8, addend: 0x0, symName: __ZNSt3__115__hash_iteratorIPNS_11__hash_nodeINS_17__hash_value_typeI4SuitiEEPvEEEC2B8ue170006EPNS_16__hash_node_baseIS7_EE, symObjAddr: 0x93B8, symBinAddr: 0x10000EDEC, symSize: 0x20 }
  - { offsetInCU: 0x16C94, offset: 0x3C399, size: 0x8, addend: 0x0, symName: __ZNSt3__14pairINS_15__hash_iteratorIPNS_11__hash_nodeINS_17__hash_value_typeI4SuitiEEPvEEEEbEC2B8ue170006IS9_RbLS6_0EEEOT_OT0_, symObjAddr: 0x93D8, symBinAddr: 0x10000EE0C, symSize: 0x38 }
  - { offsetInCU: 0x16CF1, offset: 0x3C3F6, size: 0x8, addend: 0x0, symName: __ZNSt3__15tupleIJRK4SuitEEC1B8ue170006INS_4_AndELi0EEES3_, symObjAddr: 0x9410, symBinAddr: 0x10000EE44, symSize: 0x34 }
  - { offsetInCU: 0x16D39, offset: 0x3C43E, size: 0x8, addend: 0x0, symName: __ZNSt3__15tupleIJRK4SuitEEC2B8ue170006INS_4_AndELi0EEES3_, symObjAddr: 0x9444, symBinAddr: 0x10000EE78, symSize: 0x34 }
  - { offsetInCU: 0x16D81, offset: 0x3C486, size: 0x8, addend: 0x0, symName: __ZNSt3__112__tuple_implINS_15__tuple_indicesIJLm0EEEEJRK4SuitEEC1B8ue170006IJLm0EEJS5_EJEJEJS5_EEENS1_IJXspT_EEEENS_13__tuple_typesIJDpT0_EEENS1_IJXspT1_EEEENS9_IJDpT2_EEEDpOT3_, symObjAddr: 0x9478, symBinAddr: 0x10000EEAC, symSize: 0x34 }
  - { offsetInCU: 0x16E17, offset: 0x3C51C, size: 0x8, addend: 0x0, symName: __ZNSt3__112__tuple_implINS_15__tuple_indicesIJLm0EEEEJRK4SuitEEC2B8ue170006IJLm0EEJS5_EJEJEJS5_EEENS1_IJXspT_EEEENS_13__tuple_typesIJDpT0_EEENS1_IJXspT1_EEEENS9_IJDpT2_EEEDpOT3_, symObjAddr: 0x94AC, symBinAddr: 0x10000EEE0, symSize: 0x34 }
  - { offsetInCU: 0x16EAD, offset: 0x3C5B2, size: 0x8, addend: 0x0, symName: __ZNSt3__112__tuple_leafILm0ERK4SuitLb0EEC2B8ue170006IS3_vEEOT_, symObjAddr: 0x94E0, symBinAddr: 0x10000EF14, symSize: 0x20 }
  - { offsetInCU: 0x16EEE, offset: 0x3C5F3, size: 0x8, addend: 0x0, symName: __ZNSt3__114pointer_traitsIPNS_17__hash_value_typeI4SuitiEEE10pointer_toB8ue170006ERS3_, symObjAddr: 0x9500, symBinAddr: 0x10000EF34, symSize: 0x14 }
  - { offsetInCU: 0x16F10, offset: 0x3C615, size: 0x8, addend: 0x0, symName: __ZNSt3__112__hash_tableINS_17__hash_value_typeI4SuitiEENS_22__unordered_map_hasherIS2_S3_NS_4hashIS2_EENS_8equal_toIS2_EELb1EEENS_21__unordered_map_equalIS2_S3_S8_S6_Lb1EEENS_9allocatorIS3_EEE25__emplace_unique_key_argsIS2_JRKNS_21piecewise_construct_tENS_5tupleIJOS2_EEENSJ_IJEEEEEENS_4pairINS_15__hash_iteratorIPNS_11__hash_nodeIS3_PvEEEEbEERKT_DpOT0_, symObjAddr: 0x9514, symBinAddr: 0x10000EF48, symSize: 0x4B0 }
  - { offsetInCU: 0x17018, offset: 0x3C71D, size: 0x8, addend: 0x0, symName: __ZNSt3__112__hash_tableINS_17__hash_value_typeI4SuitiEENS_22__unordered_map_hasherIS2_S3_NS_4hashIS2_EENS_8equal_toIS2_EELb1EEENS_21__unordered_map_equalIS2_S3_S8_S6_Lb1EEENS_9allocatorIS3_EEE21__construct_node_hashIRKNS_21piecewise_construct_tEJNS_5tupleIJOS2_EEENSJ_IJEEEEEENS_10unique_ptrINS_11__hash_nodeIS3_PvEENS_22__hash_node_destructorINSC_ISQ_EEEEEEmOT_DpOT0_, symObjAddr: 0x99F0, symBinAddr: 0x10000F424, symSize: 0x150 }
  - { offsetInCU: 0x170B2, offset: 0x3C7B7, size: 0x8, addend: 0x0, symName: __ZNSt3__116allocator_traitsINS_9allocatorINS_11__hash_nodeINS_17__hash_value_typeI4SuitiEEPvEEEEE9constructB8ue170006INS_4pairIKS4_iEEJRKNS_21piecewise_construct_tENS_5tupleIJOS4_EEENSH_IJEEEEvEEvRS8_PT_DpOT0_, symObjAddr: 0x9B40, symBinAddr: 0x10000F574, symSize: 0x44 }
  - { offsetInCU: 0x17131, offset: 0x3C836, size: 0x8, addend: 0x0, symName: __ZNSt3__19allocatorINS_11__hash_nodeINS_17__hash_value_typeI4SuitiEEPvEEE9constructB8ue170006INS_4pairIKS3_iEEJRKNS_21piecewise_construct_tENS_5tupleIJOS3_EEENSF_IJEEEEEEvPT_DpOT0_, symObjAddr: 0x9B84, symBinAddr: 0x10000F5B8, symSize: 0x44 }
  - { offsetInCU: 0x171AB, offset: 0x3C8B0, size: 0x8, addend: 0x0, symName: __ZNSt3__14pairIK4SuitiEC1B8ue170006IJOS1_EJEEENS_21piecewise_construct_tENS_5tupleIJDpT_EEENS7_IJDpT0_EEE, symObjAddr: 0x9BC8, symBinAddr: 0x10000F5FC, symSize: 0x44 }
  - { offsetInCU: 0x17211, offset: 0x3C916, size: 0x8, addend: 0x0, symName: __ZNSt3__14pairIK4SuitiEC1B8ue170006IJOS1_EJEJLm0EEJEEENS_21piecewise_construct_tERNS_5tupleIJDpT_EEERNS7_IJDpT0_EEENS_15__tuple_indicesIJXspT1_EEEENSG_IJXspT2_EEEE, symObjAddr: 0x9C0C, symBinAddr: 0x10000F640, symSize: 0x3C }
  - { offsetInCU: 0x172A3, offset: 0x3C9A8, size: 0x8, addend: 0x0, symName: __ZNSt3__14pairIK4SuitiEC2B8ue170006IJOS1_EJEJLm0EEJEEENS_21piecewise_construct_tERNS_5tupleIJDpT_EEERNS7_IJDpT0_EEENS_15__tuple_indicesIJXspT1_EEEENSG_IJXspT2_EEEE, symObjAddr: 0x9C48, symBinAddr: 0x10000F67C, symSize: 0x48 }
  - { offsetInCU: 0x17335, offset: 0x3CA3A, size: 0x8, addend: 0x0, symName: __ZNSt3__112__tuple_leafILm0EO4SuitLb0EE3getB8ue170006Ev, symObjAddr: 0x9CB4, symBinAddr: 0x10000F6E8, symSize: 0x18 }
  - { offsetInCU: 0x17359, offset: 0x3CA5E, size: 0x8, addend: 0x0, symName: __ZNSt3__15tupleIJO4SuitEEC1B8ue170006IJS1_ELi0EEEDpOT_, symObjAddr: 0x9CCC, symBinAddr: 0x10000F700, symSize: 0x34 }
  - { offsetInCU: 0x173A2, offset: 0x3CAA7, size: 0x8, addend: 0x0, symName: __ZNSt3__15tupleIJO4SuitEEC2B8ue170006IJS1_ELi0EEEDpOT_, symObjAddr: 0x9D00, symBinAddr: 0x10000F734, symSize: 0x34 }
  - { offsetInCU: 0x173EB, offset: 0x3CAF0, size: 0x8, addend: 0x0, symName: __ZNSt3__112__tuple_implINS_15__tuple_indicesIJLm0EEEEJO4SuitEEC1B8ue170006IJLm0EEJS4_EJEJEJS3_EEENS1_IJXspT_EEEENS_13__tuple_typesIJDpT0_EEENS1_IJXspT1_EEEENS8_IJDpT2_EEEDpOT3_, symObjAddr: 0x9D34, symBinAddr: 0x10000F768, symSize: 0x34 }
  - { offsetInCU: 0x17481, offset: 0x3CB86, size: 0x8, addend: 0x0, symName: __ZNSt3__112__tuple_implINS_15__tuple_indicesIJLm0EEEEJO4SuitEEC2B8ue170006IJLm0EEJS4_EJEJEJS3_EEENS1_IJXspT_EEEENS_13__tuple_typesIJDpT0_EEENS1_IJXspT1_EEEENS8_IJDpT2_EEEDpOT3_, symObjAddr: 0x9D68, symBinAddr: 0x10000F79C, symSize: 0x34 }
  - { offsetInCU: 0x17517, offset: 0x3CC1C, size: 0x8, addend: 0x0, symName: __ZNSt3__112__tuple_leafILm0EO4SuitLb0EEC2B8ue170006IS1_vEEOT_, symObjAddr: 0x9D9C, symBinAddr: 0x10000F7D0, symSize: 0x20 }
  - { offsetInCU: 0x17558, offset: 0x3CC5D, size: 0x8, addend: 0x0, symName: __ZNSt3__16vectorI13PinochleMeldsNS_9allocatorIS1_EEE9__end_capB8ue170006Ev, symObjAddr: 0x9DBC, symBinAddr: 0x10000F7F0, symSize: 0x28 }
  - { offsetInCU: 0x17581, offset: 0x3CC86, size: 0x8, addend: 0x0, symName: __ZNSt3__16vectorI13PinochleMeldsNS_9allocatorIS1_EEE22__construct_one_at_endB8ue170006IJS1_EEEvDpOT_, symObjAddr: 0x9DE4, symBinAddr: 0x10000F818, symSize: 0x90 }
  - { offsetInCU: 0x175CE, offset: 0x3CCD3, size: 0x8, addend: 0x0, symName: __ZNSt3__16vectorI13PinochleMeldsNS_9allocatorIS1_EEE21__push_back_slow_pathIS1_EEvOT_, symObjAddr: 0x9E74, symBinAddr: 0x10000F8A8, symSize: 0xD8 }
  - { offsetInCU: 0x1762A, offset: 0x3CD2F, size: 0x8, addend: 0x0, symName: __ZNSt3__117__compressed_pairIP13PinochleMeldsNS_9allocatorIS1_EEE5firstB8ue170006Ev, symObjAddr: 0x9F4C, symBinAddr: 0x10000F980, symSize: 0x24 }
  - { offsetInCU: 0x1764E, offset: 0x3CD53, size: 0x8, addend: 0x0, symName: __ZNSt3__122__compressed_pair_elemIP13PinochleMeldsLi0ELb0EE5__getB8ue170006Ev, symObjAddr: 0x9F70, symBinAddr: 0x10000F9A4, symSize: 0x14 }
  - { offsetInCU: 0x1768B, offset: 0x3CD90, size: 0x8, addend: 0x0, symName: __ZNSt3__16vectorI13PinochleMeldsNS_9allocatorIS1_EEE21_ConstructTransactionC1B8ue170006ERS4_m, symObjAddr: 0x9F84, symBinAddr: 0x10000F9B8, symSize: 0x3C }
  - { offsetInCU: 0x176D1, offset: 0x3CDD6, size: 0x8, addend: 0x0, symName: __ZNSt3__116allocator_traitsINS_9allocatorI13PinochleMeldsEEE9constructB8ue170006IS2_JS2_EvEEvRS3_PT_DpOT0_, symObjAddr: 0x9FC0, symBinAddr: 0x10000F9F4, symSize: 0x34 }
  - { offsetInCU: 0x17728, offset: 0x3CE2D, size: 0x8, addend: 0x0, symName: __ZNSt3__16vectorI13PinochleMeldsNS_9allocatorIS1_EEE7__allocB8ue170006Ev, symObjAddr: 0x9FF4, symBinAddr: 0x10000FA28, symSize: 0x28 }
  - { offsetInCU: 0x1774C, offset: 0x3CE51, size: 0x8, addend: 0x0, symName: __ZNSt3__16vectorI13PinochleMeldsNS_9allocatorIS1_EEE21_ConstructTransactionD1B8ue170006Ev, symObjAddr: 0xA030, symBinAddr: 0x10000FA64, symSize: 0x2C }
  - { offsetInCU: 0x17774, offset: 0x3CE79, size: 0x8, addend: 0x0, symName: __ZNSt3__16vectorI13PinochleMeldsNS_9allocatorIS1_EEE21_ConstructTransactionC2B8ue170006ERS4_m, symObjAddr: 0xA05C, symBinAddr: 0x10000FA90, symSize: 0x44 }
  - { offsetInCU: 0x177BA, offset: 0x3CEBF, size: 0x8, addend: 0x0, symName: __ZNSt3__19allocatorI13PinochleMeldsE9constructB8ue170006IS1_JS1_EEEvPT_DpOT0_, symObjAddr: 0xA0A0, symBinAddr: 0x10000FAD4, symSize: 0x28 }
  - { offsetInCU: 0x1780E, offset: 0x3CF13, size: 0x8, addend: 0x0, symName: __ZNSt3__117__compressed_pairIP13PinochleMeldsNS_9allocatorIS1_EEE6secondB8ue170006Ev, symObjAddr: 0xA0C8, symBinAddr: 0x10000FAFC, symSize: 0x24 }
  - { offsetInCU: 0x17832, offset: 0x3CF37, size: 0x8, addend: 0x0, symName: __ZNSt3__122__compressed_pair_elemINS_9allocatorI13PinochleMeldsEELi1ELb1EE5__getB8ue170006Ev, symObjAddr: 0xA0EC, symBinAddr: 0x10000FB20, symSize: 0x14 }
  - { offsetInCU: 0x17856, offset: 0x3CF5B, size: 0x8, addend: 0x0, symName: __ZNSt3__16vectorI13PinochleMeldsNS_9allocatorIS1_EEE21_ConstructTransactionD2B8ue170006Ev, symObjAddr: 0xA100, symBinAddr: 0x10000FB34, symSize: 0x20 }
  - { offsetInCU: 0x1787E, offset: 0x3CF83, size: 0x8, addend: 0x0, symName: __ZNKSt3__16vectorI13PinochleMeldsNS_9allocatorIS1_EEE11__recommendB8ue170006Em, symObjAddr: 0xA120, symBinAddr: 0x10000FB54, symSize: 0xB4 }
  - { offsetInCU: 0x178D1, offset: 0x3CFD6, size: 0x8, addend: 0x0, symName: __ZNKSt3__16vectorI13PinochleMeldsNS_9allocatorIS1_EEE4sizeB8ue170006Ev, symObjAddr: 0xA1D4, symBinAddr: 0x10000FC08, symSize: 0x28 }
  - { offsetInCU: 0x178F5, offset: 0x3CFFA, size: 0x8, addend: 0x0, symName: __ZNSt3__114__split_bufferI13PinochleMeldsRNS_9allocatorIS1_EEEC1EmmS4_, symObjAddr: 0xA1FC, symBinAddr: 0x10000FC30, symSize: 0x44 }
  - { offsetInCU: 0x1794A, offset: 0x3D04F, size: 0x8, addend: 0x0, symName: __ZNSt3__114__split_bufferI13PinochleMeldsRNS_9allocatorIS1_EEED1Ev, symObjAddr: 0xA350, symBinAddr: 0x10000FD84, symSize: 0x2C }
  - { offsetInCU: 0x17975, offset: 0x3D07A, size: 0x8, addend: 0x0, symName: __ZNKSt3__16vectorI13PinochleMeldsNS_9allocatorIS1_EEE8max_sizeEv, symObjAddr: 0xA37C, symBinAddr: 0x10000FDB0, symSize: 0x60 }
  - { offsetInCU: 0x1799B, offset: 0x3D0A0, size: 0x8, addend: 0x0, symName: __ZNKSt3__16vectorI13PinochleMeldsNS_9allocatorIS1_EEE20__throw_length_errorB8ue170006Ev, symObjAddr: 0xA3DC, symBinAddr: 0x10000FE10, symSize: 0x1C }
  - { offsetInCU: 0x179BF, offset: 0x3D0C4, size: 0x8, addend: 0x0, symName: __ZNKSt3__16vectorI13PinochleMeldsNS_9allocatorIS1_EEE8capacityB8ue170006Ev, symObjAddr: 0xA3F8, symBinAddr: 0x10000FE2C, symSize: 0x40 }
  - { offsetInCU: 0x179ED, offset: 0x3D0F2, size: 0x8, addend: 0x0, symName: __ZNSt3__116allocator_traitsINS_9allocatorI13PinochleMeldsEEE8max_sizeB8ue170006IS3_vEEmRKS3_, symObjAddr: 0xA438, symBinAddr: 0x10000FE6C, symSize: 0x24 }
  - { offsetInCU: 0x17A1B, offset: 0x3D120, size: 0x8, addend: 0x0, symName: __ZNKSt3__16vectorI13PinochleMeldsNS_9allocatorIS1_EEE7__allocB8ue170006Ev, symObjAddr: 0xA45C, symBinAddr: 0x10000FE90, symSize: 0x28 }
  - { offsetInCU: 0x17A3F, offset: 0x3D144, size: 0x8, addend: 0x0, symName: __ZNKSt3__19allocatorI13PinochleMeldsE8max_sizeB8ue170006Ev, symObjAddr: 0xA484, symBinAddr: 0x10000FEB8, symSize: 0x14 }
  - { offsetInCU: 0x17A63, offset: 0x3D168, size: 0x8, addend: 0x0, symName: __ZNKSt3__117__compressed_pairIP13PinochleMeldsNS_9allocatorIS1_EEE6secondB8ue170006Ev, symObjAddr: 0xA498, symBinAddr: 0x10000FECC, symSize: 0x24 }
  - { offsetInCU: 0x17A87, offset: 0x3D18C, size: 0x8, addend: 0x0, symName: __ZNKSt3__122__compressed_pair_elemINS_9allocatorI13PinochleMeldsEELi1ELb1EE5__getB8ue170006Ev, symObjAddr: 0xA4BC, symBinAddr: 0x10000FEF0, symSize: 0x14 }
  - { offsetInCU: 0x17AAB, offset: 0x3D1B0, size: 0x8, addend: 0x0, symName: __ZNKSt3__16vectorI13PinochleMeldsNS_9allocatorIS1_EEE9__end_capB8ue170006Ev, symObjAddr: 0xA4D0, symBinAddr: 0x10000FF04, symSize: 0x28 }
  - { offsetInCU: 0x17ACF, offset: 0x3D1D4, size: 0x8, addend: 0x0, symName: __ZNKSt3__117__compressed_pairIP13PinochleMeldsNS_9allocatorIS1_EEE5firstB8ue170006Ev, symObjAddr: 0xA4F8, symBinAddr: 0x10000FF2C, symSize: 0x24 }
  - { offsetInCU: 0x17AF3, offset: 0x3D1F8, size: 0x8, addend: 0x0, symName: __ZNKSt3__122__compressed_pair_elemIP13PinochleMeldsLi0ELb0EE5__getB8ue170006Ev, symObjAddr: 0xA51C, symBinAddr: 0x10000FF50, symSize: 0x14 }
  - { offsetInCU: 0x17B17, offset: 0x3D21C, size: 0x8, addend: 0x0, symName: __ZNSt3__114__split_bufferI13PinochleMeldsRNS_9allocatorIS1_EEEC2EmmS4_, symObjAddr: 0xA530, symBinAddr: 0x10000FF64, symSize: 0xD4 }
  - { offsetInCU: 0x17B8A, offset: 0x3D28F, size: 0x8, addend: 0x0, symName: __ZNSt3__117__compressed_pairIP13PinochleMeldsRNS_9allocatorIS1_EEEC1B8ue170006IDnS5_EEOT_OT0_, symObjAddr: 0xA604, symBinAddr: 0x100010038, symSize: 0x3C }
  - { offsetInCU: 0x17BE0, offset: 0x3D2E5, size: 0x8, addend: 0x0, symName: __ZNSt3__114__split_bufferI13PinochleMeldsRNS_9allocatorIS1_EEE7__allocB8ue170006Ev, symObjAddr: 0xA680, symBinAddr: 0x1000100B4, symSize: 0x28 }
  - { offsetInCU: 0x17C04, offset: 0x3D309, size: 0x8, addend: 0x0, symName: __ZNSt3__114__split_bufferI13PinochleMeldsRNS_9allocatorIS1_EEE9__end_capB8ue170006Ev, symObjAddr: 0xA6A8, symBinAddr: 0x1000100DC, symSize: 0x28 }
  - { offsetInCU: 0x17C28, offset: 0x3D32D, size: 0x8, addend: 0x0, symName: __ZNSt3__117__compressed_pairIP13PinochleMeldsRNS_9allocatorIS1_EEEC2B8ue170006IDnS5_EEOT_OT0_, symObjAddr: 0xA6D0, symBinAddr: 0x100010104, symSize: 0x48 }
  - { offsetInCU: 0x17C7E, offset: 0x3D383, size: 0x8, addend: 0x0, symName: __ZNSt3__122__compressed_pair_elemIP13PinochleMeldsLi0ELb0EEC2B8ue170006IDnvEEOT_, symObjAddr: 0xA718, symBinAddr: 0x10001014C, symSize: 0x1C }
  - { offsetInCU: 0x17CBE, offset: 0x3D3C3, size: 0x8, addend: 0x0, symName: __ZNSt3__122__compressed_pair_elemIRNS_9allocatorI13PinochleMeldsEELi1ELb0EEC2B8ue170006IS4_vEEOT_, symObjAddr: 0xA734, symBinAddr: 0x100010168, symSize: 0x20 }
  - { offsetInCU: 0x17CFE, offset: 0x3D403, size: 0x8, addend: 0x0, symName: __ZNSt3__19allocatorI13PinochleMeldsE8allocateB8ue170006Em, symObjAddr: 0xA754, symBinAddr: 0x100010188, symSize: 0x58 }
  - { offsetInCU: 0x17D30, offset: 0x3D435, size: 0x8, addend: 0x0, symName: __ZNSt3__117__compressed_pairIP13PinochleMeldsRNS_9allocatorIS1_EEE6secondB8ue170006Ev, symObjAddr: 0xA7AC, symBinAddr: 0x1000101E0, symSize: 0x28 }
  - { offsetInCU: 0x17D54, offset: 0x3D459, size: 0x8, addend: 0x0, symName: __ZNSt3__122__compressed_pair_elemIRNS_9allocatorI13PinochleMeldsEELi1ELb0EE5__getB8ue170006Ev, symObjAddr: 0xA7D4, symBinAddr: 0x100010208, symSize: 0x18 }
  - { offsetInCU: 0x17D78, offset: 0x3D47D, size: 0x8, addend: 0x0, symName: __ZNSt3__117__compressed_pairIP13PinochleMeldsRNS_9allocatorIS1_EEE5firstB8ue170006Ev, symObjAddr: 0xA7EC, symBinAddr: 0x100010220, symSize: 0x24 }
  - { offsetInCU: 0x17D9C, offset: 0x3D4A1, size: 0x8, addend: 0x0, symName: __ZNKSt3__16vectorI13PinochleMeldsNS_9allocatorIS1_EEE17__annotate_deleteB8ue170006Ev, symObjAddr: 0xA810, symBinAddr: 0x100010244, symSize: 0xB8 }
  - { offsetInCU: 0x17DC0, offset: 0x3D4C5, size: 0x8, addend: 0x0, symName: __ZNSt3__116reverse_iteratorIP13PinochleMeldsEC1B8ue170006ES2_, symObjAddr: 0xA940, symBinAddr: 0x100010374, symSize: 0x34 }
  - { offsetInCU: 0x17DF6, offset: 0x3D4FB, size: 0x8, addend: 0x0, symName: __ZNKSt3__116reverse_iteratorIP13PinochleMeldsE4baseB8ue170006Ev, symObjAddr: 0xA974, symBinAddr: 0x1000103A8, symSize: 0x18 }
  - { offsetInCU: 0x17E1A, offset: 0x3D51F, size: 0x8, addend: 0x0, symName: __ZNKSt3__16vectorI13PinochleMeldsNS_9allocatorIS1_EEE14__annotate_newB8ue170006Em, symObjAddr: 0xA9C8, symBinAddr: 0x1000103FC, symSize: 0xAC }
  - { offsetInCU: 0x17E4D, offset: 0x3D552, size: 0x8, addend: 0x0, symName: __ZNKSt3__16vectorI13PinochleMeldsNS_9allocatorIS1_EEE31__annotate_contiguous_containerB8ue170006EPKvS6_S6_S6_, symObjAddr: 0xAA74, symBinAddr: 0x1000104A8, symSize: 0x20 }
  - { offsetInCU: 0x17EA1, offset: 0x3D5A6, size: 0x8, addend: 0x0, symName: __ZNKSt3__16vectorI13PinochleMeldsNS_9allocatorIS1_EEE4dataB8ue170006Ev, symObjAddr: 0xAA94, symBinAddr: 0x1000104C8, symSize: 0x28 }
  - { offsetInCU: 0x17EDE, offset: 0x3D5E3, size: 0x8, addend: 0x0, symName: __ZNKSt3__111__move_loopINS_17_ClassicAlgPolicyEEclB8ue170006INS_16reverse_iteratorIP13PinochleMeldsEES7_S7_EENS_4pairIT_T1_EES9_T0_SA_, symObjAddr: 0xADAC, symBinAddr: 0x1000107E0, symSize: 0xA0 }
  - { offsetInCU: 0x17F47, offset: 0x3D64C, size: 0x8, addend: 0x0, symName: __ZNSt3__18_IterOpsINS_17_ClassicAlgPolicyEE11__iter_moveB8ue170006IRNS_16reverse_iteratorIP13PinochleMeldsEEEENS_9enable_ifIXsr12is_referenceIDTdeclsr3stdE7declvalIRT_EEEEE5valueEDTclsr3stdE4movedeclsr3stdE7declvalISB_EEEEE4typeEOSA_, symObjAddr: 0xAFE0, symBinAddr: 0x100010A14, symSize: 0x28 }
  - { offsetInCU: 0x17F73, offset: 0x3D678, size: 0x8, addend: 0x0, symName: __ZNKSt3__116reverse_iteratorIP13PinochleMeldsEdeB8ue170006Ev, symObjAddr: 0xB008, symBinAddr: 0x100010A3C, symSize: 0x28 }
  - { offsetInCU: 0x17FA6, offset: 0x3D6AB, size: 0x8, addend: 0x0, symName: __ZNSt3__116reverse_iteratorIP13PinochleMeldsEppB8ue170006Ev, symObjAddr: 0xB030, symBinAddr: 0x100010A64, symSize: 0x20 }
  - { offsetInCU: 0x17FCA, offset: 0x3D6CF, size: 0x8, addend: 0x0, symName: __ZNSt3__18_IterOpsINS_17_ClassicAlgPolicyEE25__validate_iter_referenceB8ue170006IRNS_16reverse_iteratorIP13PinochleMeldsEEEEvv, symObjAddr: 0xB050, symBinAddr: 0x100010A84, symSize: 0x4 }
  - { offsetInCU: 0x17FE7, offset: 0x3D6EC, size: 0x8, addend: 0x0, symName: __ZNSt3__118__unwrap_iter_implINS_16reverse_iteratorIP13PinochleMeldsEELb0EE8__unwrapB8ue170006ES4_, symObjAddr: 0xB054, symBinAddr: 0x100010A88, symSize: 0x24 }
  - { offsetInCU: 0x1800E, offset: 0x3D713, size: 0x8, addend: 0x0, symName: __ZNSt3__14pairINS_16reverse_iteratorIP13PinochleMeldsEES4_EC1B8ue170006IS4_S4_LPv0EEEOT_OT0_, symObjAddr: 0xB078, symBinAddr: 0x100010AAC, symSize: 0x3C }
  - { offsetInCU: 0x1806B, offset: 0x3D770, size: 0x8, addend: 0x0, symName: __ZNSt3__14pairINS_16reverse_iteratorIP13PinochleMeldsEES4_EC2B8ue170006IS4_S4_LPv0EEEOT_OT0_, symObjAddr: 0xB0B4, symBinAddr: 0x100010AE8, symSize: 0x34 }
  - { offsetInCU: 0x180C8, offset: 0x3D7CD, size: 0x8, addend: 0x0, symName: __ZNSt3__118__unwrap_iter_implINS_16reverse_iteratorIP13PinochleMeldsEELb0EE8__rewrapB8ue170006ES4_S4_, symObjAddr: 0xB0E8, symBinAddr: 0x100010B1C, symSize: 0x2C }
  - { offsetInCU: 0x180F4, offset: 0x3D7F9, size: 0x8, addend: 0x0, symName: __ZNSt3__116reverse_iteratorIP13PinochleMeldsEC2B8ue170006ES2_, symObjAddr: 0xB114, symBinAddr: 0x100010B48, symSize: 0x28 }
  - { offsetInCU: 0x1812A, offset: 0x3D82F, size: 0x8, addend: 0x0, symName: __ZNSt3__114__split_bufferI13PinochleMeldsRNS_9allocatorIS1_EEED2Ev, symObjAddr: 0xB13C, symBinAddr: 0x100010B70, symSize: 0x8C }
  - { offsetInCU: 0x18155, offset: 0x3D85A, size: 0x8, addend: 0x0, symName: __ZNSt3__114__split_bufferI13PinochleMeldsRNS_9allocatorIS1_EEE5clearB8ue170006Ev, symObjAddr: 0xB1C8, symBinAddr: 0x100010BFC, symSize: 0x28 }
  - { offsetInCU: 0x18179, offset: 0x3D87E, size: 0x8, addend: 0x0, symName: __ZNSt3__116allocator_traitsINS_9allocatorI13PinochleMeldsEEE10deallocateB8ue170006ERS3_PS2_m, symObjAddr: 0xB1F0, symBinAddr: 0x100010C24, symSize: 0x34 }
  - { offsetInCU: 0x181BB, offset: 0x3D8C0, size: 0x8, addend: 0x0, symName: __ZNKSt3__114__split_bufferI13PinochleMeldsRNS_9allocatorIS1_EEE8capacityB8ue170006Ev, symObjAddr: 0xB224, symBinAddr: 0x100010C58, symSize: 0x40 }
  - { offsetInCU: 0x181DF, offset: 0x3D8E4, size: 0x8, addend: 0x0, symName: __ZNSt3__114__split_bufferI13PinochleMeldsRNS_9allocatorIS1_EEE17__destruct_at_endB8ue170006EPS1_, symObjAddr: 0xB264, symBinAddr: 0x100010C98, symSize: 0x2C }
  - { offsetInCU: 0x18211, offset: 0x3D916, size: 0x8, addend: 0x0, symName: __ZNSt3__114__split_bufferI13PinochleMeldsRNS_9allocatorIS1_EEE17__destruct_at_endB8ue170006EPS1_NS_17integral_constantIbLb0EEE, symObjAddr: 0xB290, symBinAddr: 0x100010CC4, symSize: 0x80 }
  - { offsetInCU: 0x1824F, offset: 0x3D954, size: 0x8, addend: 0x0, symName: __ZNSt3__116allocator_traitsINS_9allocatorI13PinochleMeldsEEE7destroyB8ue170006IS2_vEEvRS3_PT_, symObjAddr: 0xB310, symBinAddr: 0x100010D44, symSize: 0x2C }
  - { offsetInCU: 0x1828C, offset: 0x3D991, size: 0x8, addend: 0x0, symName: __ZNSt3__19allocatorI13PinochleMeldsE7destroyB8ue170006EPS1_, symObjAddr: 0xB33C, symBinAddr: 0x100010D70, symSize: 0x14 }
  - { offsetInCU: 0x182BE, offset: 0x3D9C3, size: 0x8, addend: 0x0, symName: __ZNSt3__19allocatorI13PinochleMeldsE10deallocateB8ue170006EPS1_m, symObjAddr: 0xB350, symBinAddr: 0x100010D84, symSize: 0x40 }
  - { offsetInCU: 0x182FE, offset: 0x3DA03, size: 0x8, addend: 0x0, symName: __ZNKSt3__114__split_bufferI13PinochleMeldsRNS_9allocatorIS1_EEE9__end_capB8ue170006Ev, symObjAddr: 0xB390, symBinAddr: 0x100010DC4, symSize: 0x28 }
  - { offsetInCU: 0x18322, offset: 0x3DA27, size: 0x8, addend: 0x0, symName: __ZNKSt3__117__compressed_pairIP13PinochleMeldsRNS_9allocatorIS1_EEE5firstB8ue170006Ev, symObjAddr: 0xB3B8, symBinAddr: 0x100010DEC, symSize: 0x24 }
  - { offsetInCU: 0x18346, offset: 0x3DA4B, size: 0x8, addend: 0x0, symName: __ZNKSt3__112basic_stringIcNS_11char_traitsIcEENS_9allocatorIcEEE4dataB8ue170006Ev, symObjAddr: 0xB5C8, symBinAddr: 0x100010E10, symSize: 0x28 }
  - { offsetInCU: 0x18388, offset: 0x3DA8D, size: 0x8, addend: 0x0, symName: __ZNKSt3__112basic_stringIcNS_11char_traitsIcEENS_9allocatorIcEEE13__get_pointerB8ue170006Ev, symObjAddr: 0xBE34, symBinAddr: 0x100010E4C, symSize: 0x54 }
  - { offsetInCU: 0x183AC, offset: 0x3DAB1, size: 0x8, addend: 0x0, symName: __ZNKSt3__112basic_stringIcNS_11char_traitsIcEENS_9allocatorIcEEE18__get_long_pointerB8ue170006Ev, symObjAddr: 0xBE88, symBinAddr: 0x100010EA0, symSize: 0x28 }
  - { offsetInCU: 0x183D0, offset: 0x3DAD5, size: 0x8, addend: 0x0, symName: __ZNKSt3__112basic_stringIcNS_11char_traitsIcEENS_9allocatorIcEEE19__get_short_pointerB8ue170006Ev, symObjAddr: 0xBEB0, symBinAddr: 0x100010EC8, symSize: 0x28 }
  - { offsetInCU: 0x183F4, offset: 0x3DAF9, size: 0x8, addend: 0x0, symName: __ZNSt3__114pointer_traitsIPKcE10pointer_toB8ue170006ERS1_, symObjAddr: 0xBED8, symBinAddr: 0x100010EF0, symSize: 0x14 }
  - { offsetInCU: 0x18416, offset: 0x3DB1B, size: 0x8, addend: 0x0, symName: __ZNKSt3__16vectorI4CardI12PinochleRank4SuitENS_9allocatorIS4_EEE5beginB8ue170006Ev, symObjAddr: 0xBF48, symBinAddr: 0x100010F04, symSize: 0x30 }
  - { offsetInCU: 0x1843C, offset: 0x3DB41, size: 0x8, addend: 0x0, symName: __ZNKSt3__16vectorI4CardI12PinochleRank4SuitENS_9allocatorIS4_EEE3endB8ue170006Ev, symObjAddr: 0xBF78, symBinAddr: 0x100010F34, symSize: 0x30 }
  - { offsetInCU: 0x18462, offset: 0x3DB67, size: 0x8, addend: 0x0, symName: __ZNKSt3__111__wrap_iterIPK4CardI12PinochleRank4SuitEEdeB8ue170006Ev, symObjAddr: 0xBFDC, symBinAddr: 0x100010F98, symSize: 0x18 }
  - { offsetInCU: 0x18485, offset: 0x3DB8A, size: 0x8, addend: 0x0, symName: __ZlsI12PinochleRank4SuitERNSt3__113basic_ostreamIcNS2_11char_traitsIcEEEES7_RK4CardIT_T0_E, symObjAddr: 0xC028, symBinAddr: 0x100010FB0, symSize: 0x38 }
  - { offsetInCU: 0x184D2, offset: 0x3DBD7, size: 0x8, addend: 0x0, symName: __ZNSt3__111__wrap_iterIPK4CardI12PinochleRank4SuitEEppB8ue170006Ev, symObjAddr: 0xC060, symBinAddr: 0x100010FE8, symSize: 0x20 }
  - { offsetInCU: 0x184F6, offset: 0x3DBFB, size: 0x8, addend: 0x0, symName: __ZNKSt3__16vectorI4CardI12PinochleRank4SuitENS_9allocatorIS4_EEE11__make_iterB8ue170006EPKS4_, symObjAddr: 0xC080, symBinAddr: 0x100011008, symSize: 0x30 }
  - { offsetInCU: 0x18529, offset: 0x3DC2E, size: 0x8, addend: 0x0, symName: __ZNSt3__111__wrap_iterIPK4CardI12PinochleRank4SuitEEC1B8ue170006ES6_, symObjAddr: 0xC0B0, symBinAddr: 0x100011038, symSize: 0x34 }
  - { offsetInCU: 0x1855F, offset: 0x3DC64, size: 0x8, addend: 0x0, symName: __ZNSt3__111__wrap_iterIPK4CardI12PinochleRank4SuitEEC2B8ue170006ES6_, symObjAddr: 0xC0E4, symBinAddr: 0x10001106C, symSize: 0x20 }
  - { offsetInCU: 0x18595, offset: 0x3DC9A, size: 0x8, addend: 0x0, symName: __ZNKSt3__111__wrap_iterIPK4CardI12PinochleRank4SuitEE4baseB8ue170006Ev, symObjAddr: 0xC14C, symBinAddr: 0x1000110D4, symSize: 0x18 }
  - { offsetInCU: 0x185B9, offset: 0x3DCBE, size: 0x8, addend: 0x0, symName: __ZNSt3__16vectorI13PinochleMeldsNS_9allocatorIS1_EEEC2B8ue170006Ev, symObjAddr: 0xC164, symBinAddr: 0x1000110EC, symSize: 0x4C }
  - { offsetInCU: 0x185E1, offset: 0x3DCE6, size: 0x8, addend: 0x0, symName: __ZNSt3__117__compressed_pairIP13PinochleMeldsNS_9allocatorIS1_EEEC1B8ue170006IDnNS_18__default_init_tagEEEOT_OT0_, symObjAddr: 0xC1B0, symBinAddr: 0x100011138, symSize: 0x3C }
  - { offsetInCU: 0x18637, offset: 0x3DD3C, size: 0x8, addend: 0x0, symName: __ZNSt3__117__compressed_pairIP13PinochleMeldsNS_9allocatorIS1_EEEC2B8ue170006IDnNS_18__default_init_tagEEEOT_OT0_, symObjAddr: 0xC1EC, symBinAddr: 0x100011174, symSize: 0x40 }
  - { offsetInCU: 0x1868D, offset: 0x3DD92, size: 0x8, addend: 0x0, symName: __ZNSt3__122__compressed_pair_elemINS_9allocatorI13PinochleMeldsEELi1ELb1EEC2B8ue170006ENS_18__default_init_tagE, symObjAddr: 0xC22C, symBinAddr: 0x1000111B4, symSize: 0x2C }
  - { offsetInCU: 0x186BF, offset: 0x3DDC4, size: 0x8, addend: 0x0, symName: __ZNSt3__19allocatorI13PinochleMeldsEC2B8ue170006Ev, symObjAddr: 0xC258, symBinAddr: 0x1000111E0, symSize: 0x2C }
  - { offsetInCU: 0x186E7, offset: 0x3DDEC, size: 0x8, addend: 0x0, symName: __ZNSt3__116__non_trivial_ifILb1ENS_9allocatorI13PinochleMeldsEEEC2B8ue170006Ev, symObjAddr: 0xC284, symBinAddr: 0x10001120C, symSize: 0x14 }
  - { offsetInCU: 0x1870F, offset: 0x3DE14, size: 0x8, addend: 0x0, symName: __ZNSt3__16vectorI13PinochleMeldsNS_9allocatorIS1_EEED2B8ue170006Ev, symObjAddr: 0xC298, symBinAddr: 0x100011220, symSize: 0x44 }
  - { offsetInCU: 0x18737, offset: 0x3DE3C, size: 0x8, addend: 0x0, symName: __ZNSt3__16vectorI13PinochleMeldsNS_9allocatorIS1_EEE16__destroy_vectorC1B8ue170006ERS4_, symObjAddr: 0xC2DC, symBinAddr: 0x100011264, symSize: 0x34 }
  - { offsetInCU: 0x1876E, offset: 0x3DE73, size: 0x8, addend: 0x0, symName: __ZNSt3__16vectorI13PinochleMeldsNS_9allocatorIS1_EEE16__destroy_vectorclB8ue170006Ev, symObjAddr: 0xC310, symBinAddr: 0x100011298, symSize: 0x90 }
  - { offsetInCU: 0x18792, offset: 0x3DE97, size: 0x8, addend: 0x0, symName: __ZNSt3__16vectorI13PinochleMeldsNS_9allocatorIS1_EEE16__destroy_vectorC2B8ue170006ERS4_, symObjAddr: 0xC3A0, symBinAddr: 0x100011328, symSize: 0x20 }
  - { offsetInCU: 0x187C9, offset: 0x3DECE, size: 0x8, addend: 0x0, symName: __ZNSt3__16vectorI13PinochleMeldsNS_9allocatorIS1_EEE7__clearB8ue170006Ev, symObjAddr: 0xC3C0, symBinAddr: 0x100011348, symSize: 0x28 }
  - { offsetInCU: 0x187ED, offset: 0x3DEF2, size: 0x8, addend: 0x0, symName: __ZNSt3__16vectorI13PinochleMeldsNS_9allocatorIS1_EEE22__base_destruct_at_endB8ue170006EPS1_, symObjAddr: 0xC3E8, symBinAddr: 0x100011370, symSize: 0x8C }
  - { offsetInCU: 0x1882F, offset: 0x3DF34, size: 0x8, addend: 0x0, symName: __ZNSt3__16vectorI13PinochleMeldsNS_9allocatorIS1_EEE11__make_iterB8ue170006EPS1_, symObjAddr: 0xC474, symBinAddr: 0x1000113FC, symSize: 0x30 }
  - { offsetInCU: 0x18862, offset: 0x3DF67, size: 0x8, addend: 0x0, symName: __ZNSt3__111__wrap_iterIP13PinochleMeldsEC1B8ue170006ES2_, symObjAddr: 0xC4A4, symBinAddr: 0x10001142C, symSize: 0x34 }
  - { offsetInCU: 0x18898, offset: 0x3DF9D, size: 0x8, addend: 0x0, symName: __ZNSt3__111__wrap_iterIP13PinochleMeldsEC2B8ue170006ES2_, symObjAddr: 0xC4D8, symBinAddr: 0x100011460, symSize: 0x20 }
  - { offsetInCU: 0x188E7, offset: 0x3DFEC, size: 0x8, addend: 0x0, symName: __ZNSt3__113random_deviceC1B8ue170006Ev, symObjAddr: 0xC4F8, symBinAddr: 0x100011480, symSize: 0x74 }
  - { offsetInCU: 0x1890F, offset: 0x3E014, size: 0x8, addend: 0x0, symName: __ZNSt3__123mersenne_twister_engineIjLm32ELm624ELm397ELm31ELj2567483615ELm11ELj4294967295ELm7ELj2636928640ELm15ELj4022730752ELm18ELj1812433253EEC1B8ue170006Ej, symObjAddr: 0xC56C, symBinAddr: 0x1000114F4, symSize: 0x34 }
  - { offsetInCU: 0x18945, offset: 0x3E04A, size: 0x8, addend: 0x0, symName: __ZNSt3__123mersenne_twister_engineIjLm32ELm624ELm397ELm31ELj2567483615ELm11ELj4294967295ELm7ELj2636928640ELm15ELj4022730752ELm18ELj1812433253EEC2B8ue170006Ej, symObjAddr: 0xC5E8, symBinAddr: 0x100011570, symSize: 0x34 }
  - { offsetInCU: 0x1897B, offset: 0x3E080, size: 0x8, addend: 0x0, symName: __ZNSt3__123mersenne_twister_engineIjLm32ELm624ELm397ELm31ELj2567483615ELm11ELj4294967295ELm7ELj2636928640ELm15ELj4022730752ELm18ELj1812433253EE4seedEj, symObjAddr: 0xC61C, symBinAddr: 0x1000115A4, symSize: 0xC4 }
  - { offsetInCU: 0x189CD, offset: 0x3E0D2, size: 0x8, addend: 0x0, symName: __ZNSt3__123mersenne_twister_engineIjLm32ELm624ELm397ELm31ELj2567483615ELm11ELj4294967295ELm7ELj2636928640ELm15ELj4022730752ELm18ELj1812433253EE8__rshiftB8ue170006ILm30EEENS_9enable_ifIXltT_L_ZNS1_3_DtEEEjE4typeEj, symObjAddr: 0xC6E0, symBinAddr: 0x100011668, symSize: 0x18 }
  - { offsetInCU: 0x189F9, offset: 0x3E0FE, size: 0x8, addend: 0x0, symName: __ZNSt3__18_IterOpsINS_17_ClassicAlgPolicyEE4nextB8ue170006INS_11__wrap_iterIP4CardI12PinochleRank4SuitEEEEET_SB_SB_, symObjAddr: 0xC834, symBinAddr: 0x1000117BC, symSize: 0x20 }
  - { offsetInCU: 0x18A2E, offset: 0x3E133, size: 0x8, addend: 0x0, symName: __ZNSt3__124uniform_int_distributionIlEC1B8ue170006Ev, symObjAddr: 0xC89C, symBinAddr: 0x100011824, symSize: 0x3C }
  - { offsetInCU: 0x18A56, offset: 0x3E15B, size: 0x8, addend: 0x0, symName: __ZNSt3__111__wrap_iterIP4CardI12PinochleRank4SuitEEmmB8ue170006Ev, symObjAddr: 0xC8D8, symBinAddr: 0x100011860, symSize: 0x20 }
  - { offsetInCU: 0x18A7A, offset: 0x3E17F, size: 0x8, addend: 0x0, symName: __ZNSt3__124uniform_int_distributionIlE10param_typeC1B8ue170006Ell, symObjAddr: 0xCAB4, symBinAddr: 0x100011A3C, symSize: 0x3C }
  - { offsetInCU: 0x18AC3, offset: 0x3E1C8, size: 0x8, addend: 0x0, symName: __ZNSt3__18_IterOpsINS_17_ClassicAlgPolicyEE9iter_swapB8ue170006IRNS_11__wrap_iterIP4CardI12PinochleRank4SuitEEESA_EEvOT_OT0_, symObjAddr: 0xCAF0, symBinAddr: 0x100011A78, symSize: 0x44 }
  - { offsetInCU: 0x18B06, offset: 0x3E20B, size: 0x8, addend: 0x0, symName: __ZNKSt3__111__wrap_iterIP4CardI12PinochleRank4SuitEEplB8ue170006El, symObjAddr: 0xCB34, symBinAddr: 0x100011ABC, symSize: 0x3C }
  - { offsetInCU: 0x18B47, offset: 0x3E24C, size: 0x8, addend: 0x0, symName: __ZNSt3__124uniform_int_distributionIlEC1B8ue170006Ell, symObjAddr: 0xCB70, symBinAddr: 0x100011AF8, symSize: 0x3C }
  - { offsetInCU: 0x18B8B, offset: 0x3E290, size: 0x8, addend: 0x0, symName: __ZNSt3__124uniform_int_distributionIlEC2B8ue170006Ell, symObjAddr: 0xCBAC, symBinAddr: 0x100011B34, symSize: 0x3C }
  - { offsetInCU: 0x18BCF, offset: 0x3E2D4, size: 0x8, addend: 0x0, symName: __ZNKSt3__124uniform_int_distributionIlE10param_type1bB8ue170006Ev, symObjAddr: 0xCBE8, symBinAddr: 0x100011B70, symSize: 0x18 }
  - { offsetInCU: 0x18BF3, offset: 0x3E2F8, size: 0x8, addend: 0x0, symName: __ZNKSt3__124uniform_int_distributionIlE10param_type1aB8ue170006Ev, symObjAddr: 0xCC00, symBinAddr: 0x100011B88, symSize: 0x18 }
  - { offsetInCU: 0x18C17, offset: 0x3E31C, size: 0x8, addend: 0x0, symName: __ZNSt3__125__independent_bits_engineINS_23mersenne_twister_engineIjLm32ELm624ELm397ELm31ELj2567483615ELm11ELj4294967295ELm7ELj2636928640ELm15ELj4022730752ELm18ELj1812433253EEEmEC1ERS2_m, symObjAddr: 0xCC18, symBinAddr: 0x100011BA0, symSize: 0x3C }
  - { offsetInCU: 0x18C5D, offset: 0x3E362, size: 0x8, addend: 0x0, symName: __ZNSt3__125__independent_bits_engineINS_23mersenne_twister_engineIjLm32ELm624ELm397ELm31ELj2567483615ELm11ELj4294967295ELm7ELj2636928640ELm15ELj4022730752ELm18ELj1812433253EEEmEclB8ue170006Ev, symObjAddr: 0xCC54, symBinAddr: 0x100011BDC, symSize: 0x24 }
  - { offsetInCU: 0x18C81, offset: 0x3E386, size: 0x8, addend: 0x0, symName: __ZNSt3__125__independent_bits_engineINS_23mersenne_twister_engineIjLm32ELm624ELm397ELm31ELj2567483615ELm11ELj4294967295ELm7ELj2636928640ELm15ELj4022730752ELm18ELj1812433253EEEmEC2ERS2_m, symObjAddr: 0xCCE0, symBinAddr: 0x100011C54, symSize: 0x264 }
  - { offsetInCU: 0x18CC7, offset: 0x3E3CC, size: 0x8, addend: 0x0, symName: __ZNSt3__125__independent_bits_engineINS_23mersenne_twister_engineIjLm32ELm624ELm397ELm31ELj2567483615ELm11ELj4294967295ELm7ELj2636928640ELm15ELj4022730752ELm18ELj1812433253EEEmE6__evalENS_17integral_constantIbLb1EEE, symObjAddr: 0xCF44, symBinAddr: 0x100011EB8, symSize: 0x1F0 }
  - { offsetInCU: 0x18D8D, offset: 0x3E492, size: 0x8, addend: 0x0, symName: __ZNSt3__123mersenne_twister_engineIjLm32ELm624ELm397ELm31ELj2567483615ELm11ELj4294967295ELm7ELj2636928640ELm15ELj4022730752ELm18ELj1812433253EEclEv, symObjAddr: 0xD134, symBinAddr: 0x1000120A8, symSize: 0x14C }
  - { offsetInCU: 0x18DFE, offset: 0x3E503, size: 0x8, addend: 0x0, symName: __ZNSt3__123mersenne_twister_engineIjLm32ELm624ELm397ELm31ELj2567483615ELm11ELj4294967295ELm7ELj2636928640ELm15ELj4022730752ELm18ELj1812433253EE3minB8ue170006Ev, symObjAddr: 0xD280, symBinAddr: 0x1000121F4, symSize: 0x8 }
  - { offsetInCU: 0x18E11, offset: 0x3E516, size: 0x8, addend: 0x0, symName: __ZNSt3__123mersenne_twister_engineIjLm32ELm624ELm397ELm31ELj2567483615ELm11ELj4294967295ELm7ELj2636928640ELm15ELj4022730752ELm18ELj1812433253EE8__rshiftB8ue170006ILm1EEENS_9enable_ifIXltT_L_ZNS1_3_DtEEEjE4typeEj, symObjAddr: 0xD288, symBinAddr: 0x1000121FC, symSize: 0x18 }
  - { offsetInCU: 0x18E3D, offset: 0x3E542, size: 0x8, addend: 0x0, symName: __ZNSt3__123mersenne_twister_engineIjLm32ELm624ELm397ELm31ELj2567483615ELm11ELj4294967295ELm7ELj2636928640ELm15ELj4022730752ELm18ELj1812433253EE8__rshiftB8ue170006ILm11EEENS_9enable_ifIXltT_L_ZNS1_3_DtEEEjE4typeEj, symObjAddr: 0xD2A0, symBinAddr: 0x100012214, symSize: 0x18 }
  - { offsetInCU: 0x18E69, offset: 0x3E56E, size: 0x8, addend: 0x0, symName: __ZNSt3__123mersenne_twister_engineIjLm32ELm624ELm397ELm31ELj2567483615ELm11ELj4294967295ELm7ELj2636928640ELm15ELj4022730752ELm18ELj1812433253EE8__lshiftB8ue170006ILm7EEENS_9enable_ifIXltT_Lm32EEjE4typeEj, symObjAddr: 0xD2B8, symBinAddr: 0x10001222C, symSize: 0x1C }
  - { offsetInCU: 0x18E95, offset: 0x3E59A, size: 0x8, addend: 0x0, symName: __ZNSt3__123mersenne_twister_engineIjLm32ELm624ELm397ELm31ELj2567483615ELm11ELj4294967295ELm7ELj2636928640ELm15ELj4022730752ELm18ELj1812433253EE8__lshiftB8ue170006ILm15EEENS_9enable_ifIXltT_Lm32EEjE4typeEj, symObjAddr: 0xD2D4, symBinAddr: 0x100012248, symSize: 0x1C }
  - { offsetInCU: 0x18EC1, offset: 0x3E5C6, size: 0x8, addend: 0x0, symName: __ZNSt3__123mersenne_twister_engineIjLm32ELm624ELm397ELm31ELj2567483615ELm11ELj4294967295ELm7ELj2636928640ELm15ELj4022730752ELm18ELj1812433253EE8__rshiftB8ue170006ILm18EEENS_9enable_ifIXltT_L_ZNS1_3_DtEEEjE4typeEj, symObjAddr: 0xD2F0, symBinAddr: 0x100012264, symSize: 0x18 }
  - { offsetInCU: 0x18EED, offset: 0x3E5F2, size: 0x8, addend: 0x0, symName: __ZNSt3__124uniform_int_distributionIlE10param_typeC2B8ue170006Ell, symObjAddr: 0xD310, symBinAddr: 0x10001227C, symSize: 0x2C }
  - { offsetInCU: 0x18F31, offset: 0x3E636, size: 0x8, addend: 0x0, symName: __ZNSt3__111__wrap_iterIP4CardI12PinochleRank4SuitEEpLB8ue170006El, symObjAddr: 0xD3C8, symBinAddr: 0x100012334, symSize: 0x28 }
  - { offsetInCU: 0xC7, offset: 0x3E95F, size: 0x8, addend: 0x0, symName: __ZlsRNSt3__113basic_ostreamIcNS_11char_traitsIcEEEERK14HoldEmHandRank, symObjAddr: 0x1B98, symBinAddr: 0x100013C9C, symSize: 0x2A0 }
  - { offsetInCU: 0xF0, offset: 0x3E988, size: 0x8, addend: 0x0, symName: __ZZlsRNSt3__113basic_ostreamIcNS_11char_traitsIcEEEERK14HoldEmHandRankE9rankNames, symObjAddr: 0xBDB88, symBinAddr: 0x1000341B0, symSize: 0x0 }
  - { offsetInCU: 0x72E5, offset: 0x45B7D, size: 0x8, addend: 0x0, symName: '__ZNSt3__111__introsortINS_17_ClassicAlgPolicyERZN10HoldEmGame20holdEmHandEvaluationERK7CardSetI10HoldEmRank4SuitEE3$_0P4CardIS4_S5_ELb0EEEvT1_SE_T0_NS_15iterator_traitsISE_E15difference_typeEb', symObjAddr: 0x94D8, symBinAddr: 0x10001864C, symSize: 0x434 }
  - { offsetInCU: 0x7414, offset: 0x45CAC, size: 0x8, addend: 0x0, symName: '__ZNSt3__126__insertion_sort_unguardedB8ue170006INS_17_ClassicAlgPolicyERZN10HoldEmGame20holdEmHandEvaluationERK7CardSetI10HoldEmRank4SuitEE3$_0P4CardIS4_S5_EEEvT1_SE_T0_', symObjAddr: 0x9BC4, symBinAddr: 0x100018D1C, symSize: 0x120 }
  - { offsetInCU: 0x7508, offset: 0x45DA0, size: 0x8, addend: 0x0, symName: '__ZNSt3__111__sift_downB8ue170006INS_17_ClassicAlgPolicyERZN10HoldEmGame20holdEmHandEvaluationERK7CardSetI10HoldEmRank4SuitEE3$_0P4CardIS4_S5_EEEvT1_OT0_NS_15iterator_traitsISE_E15difference_typeESE_', symObjAddr: 0xAE30, symBinAddr: 0x100019F88, symSize: 0x20C }
  - { offsetInCU: 0x75B9, offset: 0x45E51, size: 0x8, addend: 0x0, symName: '__ZNSt3__117__floyd_sift_downB8ue170006INS_17_ClassicAlgPolicyERZN10HoldEmGame20holdEmHandEvaluationERK7CardSetI10HoldEmRank4SuitEE3$_0P4CardIS4_S5_EEET1_SE_OT0_NS_15iterator_traitsISE_E15difference_typeE', symObjAddr: 0xB1D8, symBinAddr: 0x10001A330, symSize: 0x100 }
  - { offsetInCU: 0x7655, offset: 0x45EED, size: 0x8, addend: 0x0, symName: '__ZNSt3__131__partition_with_equals_on_leftB8ue170006INS_17_ClassicAlgPolicyEP4CardI10HoldEmRank4SuitERZN10HoldEmGame20holdEmHandEvaluationERK7CardSetIS3_S4_EE3$_0EET0_SE_SE_T1_', symObjAddr: 0x9EF0, symBinAddr: 0x100019048, symSize: 0x20C }
  - { offsetInCU: 0x7711, offset: 0x45FA9, size: 0x8, addend: 0x0, symName: '__ZNSt3__118__bitset_partitionB8ue170006INS_17_ClassicAlgPolicyEP4CardI10HoldEmRank4SuitERZN10HoldEmGame20holdEmHandEvaluationERK7CardSetIS3_S4_EE3$_0EENS_4pairIT0_bEESF_SF_T1_', symObjAddr: 0xA0FC, symBinAddr: 0x100019254, symSize: 0x324 }
  - { offsetInCU: 0x780B, offset: 0x460A3, size: 0x8, addend: 0x0, symName: __ZNSt3__124__swap_bitmap_pos_withinB8ue170006INS_17_ClassicAlgPolicyEP4CardI10HoldEmRank4SuitEEEvRT0_S8_RyS9_, symObjAddr: 0xB924, symBinAddr: 0x10001AA7C, symSize: 0x1E0 }
  - { offsetInCU: 0x78DB, offset: 0x46173, size: 0x8, addend: 0x0, symName: '__ZNSt3__132__partition_with_equals_on_rightB8ue170006INS_17_ClassicAlgPolicyEP4CardI10HoldEmRank4SuitERZN10HoldEmGame20holdEmHandEvaluationERK7CardSetIS3_S4_EE3$_0EENS_4pairIT0_bEESF_SF_T1_', symObjAddr: 0xA420, symBinAddr: 0x100019578, symSize: 0x21C }
  - { offsetInCU: 0x79A6, offset: 0x4623E, size: 0x8, addend: 0x0, symName: '__ZNSt3__127__insertion_sort_incompleteB8ue170006INS_17_ClassicAlgPolicyERZN10HoldEmGame20holdEmHandEvaluationERK7CardSetI10HoldEmRank4SuitEE3$_0P4CardIS4_S5_EEEbT1_SE_T0_', symObjAddr: 0xA63C, symBinAddr: 0x100019794, symSize: 0x304 }
  - { offsetInCU: 0xA4CE, offset: 0x48D66, size: 0x8, addend: 0x0, symName: __ZNSt3__19__shuffleB8ue170006INS_17_ClassicAlgPolicyENS_11__wrap_iterIP4CardI10HoldEmRank4SuitEEES8_RNS_23mersenne_twister_engineIjLm32ELm624ELm397ELm31ELj2567483615ELm11ELj4294967295ELm7ELj2636928640ELm15ELj4022730752ELm18ELj1812433253EEEEET0_SC_T1_OT2_, symObjAddr: 0xE7F0, symBinAddr: 0x10001D4FC, symSize: 0x13C }
  - { offsetInCU: 0xDDCA, offset: 0x4C662, size: 0x8, addend: 0x0, symName: '__ZNSt3__111__introsortINS_17_ClassicAlgPolicyERZN10HoldEmGame4playEvE3$_2PNS2_6PlayerELb0EEEvT1_S7_T0_NS_15iterator_traitsIS7_E15difference_typeEb', symObjAddr: 0x111D4, symBinAddr: 0x10001F528, symSize: 0x434 }
  - { offsetInCU: 0xDEF9, offset: 0x4C791, size: 0x8, addend: 0x0, symName: __ZNSt3__17advanceB8ue170006IP4CardI10HoldEmRank4SuitEllvEEvRT_T0_, symObjAddr: 0x12E98, symBinAddr: 0x100021170, symSize: 0x38 }
  - { offsetInCU: 0xDF66, offset: 0x4C7FE, size: 0x8, addend: 0x0, symName: '__ZNSt3__126__insertion_sort_unguardedB8ue170006INS_17_ClassicAlgPolicyERZN10HoldEmGame4playEvE3$_2PNS2_6PlayerEEEvT1_S7_T0_', symObjAddr: 0x118EC, symBinAddr: 0x10001FC40, symSize: 0x168 }
  - { offsetInCU: 0xE03F, offset: 0x4C8D7, size: 0x8, addend: 0x0, symName: '__ZNSt3__111__sift_downB8ue170006INS_17_ClassicAlgPolicyERZN10HoldEmGame4playEvE3$_2PNS2_6PlayerEEEvT1_OT0_NS_15iterator_traitsIS7_E15difference_typeES7_', symObjAddr: 0x13600, symBinAddr: 0x10002183C, symSize: 0x260 }
  - { offsetInCU: 0xE0F0, offset: 0x4C988, size: 0x8, addend: 0x0, symName: '__ZNSt3__117__floyd_sift_downB8ue170006INS_17_ClassicAlgPolicyERZN10HoldEmGame4playEvE3$_2PNS2_6PlayerEEET1_S7_OT0_NS_15iterator_traitsIS7_E15difference_typeE', symObjAddr: 0x13A4C, symBinAddr: 0x100021C88, symSize: 0x100 }
  - { offsetInCU: 0xE18C, offset: 0x4CA24, size: 0x8, addend: 0x0, symName: '__ZNSt3__131__partition_with_equals_on_leftB8ue170006INS_17_ClassicAlgPolicyEPN10HoldEmGame6PlayerERZNS2_4playEvE3$_2EET0_S7_S7_T1_', symObjAddr: 0x11C60, symBinAddr: 0x10001FFB4, symSize: 0x2A0 }
  - { offsetInCU: 0xE24A, offset: 0x4CAE2, size: 0x8, addend: 0x0, symName: '__ZNSt3__118__bitset_partitionB8ue170006INS_17_ClassicAlgPolicyEPN10HoldEmGame6PlayerERZNS2_4playEvE3$_2EENS_4pairIT0_bEES8_S8_T1_', symObjAddr: 0x11F00, symBinAddr: 0x100020254, symSize: 0x3B0 }
  - { offsetInCU: 0xE347, offset: 0x4CBDF, size: 0x8, addend: 0x0, symName: __ZNSt3__124__swap_bitmap_pos_withinB8ue170006INS_17_ClassicAlgPolicyEPN10HoldEmGame6PlayerEEEvRT0_S6_RyS7_, symObjAddr: 0x141E0, symBinAddr: 0x10002241C, symSize: 0x1E0 }
  - { offsetInCU: 0xE417, offset: 0x4CCAF, size: 0x8, addend: 0x0, symName: '__ZNSt3__132__partition_with_equals_on_rightB8ue170006INS_17_ClassicAlgPolicyEPN10HoldEmGame6PlayerERZNS2_4playEvE3$_2EENS_4pairIT0_bEES8_S8_T1_', symObjAddr: 0x122B0, symBinAddr: 0x100020604, symSize: 0x298 }
  - { offsetInCU: 0xE4E2, offset: 0x4CD7A, size: 0x8, addend: 0x0, symName: '__ZNSt3__127__insertion_sort_incompleteB8ue170006INS_17_ClassicAlgPolicyERZN10HoldEmGame4playEvE3$_2PNS2_6PlayerEEEbT1_S7_T0_', symObjAddr: 0x12548, symBinAddr: 0x10002089C, symSize: 0x374 }
  - { offsetInCU: 0xE76B, offset: 0x4D003, size: 0x8, addend: 0x0, symName: __ZNSt3__111__introsortINS_17_ClassicAlgPolicyERNS_6__lessIvvEENS_16reverse_iteratorINS_11__wrap_iterIP10HoldEmRankEEEELb0EEEvT1_SB_T0_NS_15iterator_traitsISB_E15difference_typeEb, symObjAddr: 0x1613C, symBinAddr: 0x100024378, symSize: 0x7C4 }
  - { offsetInCU: 0xE8D4, offset: 0x4D16C, size: 0x8, addend: 0x0, symName: __ZNSt3__126__insertion_sort_unguardedB8ue170006INS_17_ClassicAlgPolicyERNS_6__lessIvvEENS_16reverse_iteratorINS_11__wrap_iterIP10HoldEmRankEEEEEEvT1_SB_T0_, symObjAddr: 0x16E0C, symBinAddr: 0x100025048, symSize: 0x19C }
  - { offsetInCU: 0xE9CC, offset: 0x4D264, size: 0x8, addend: 0x0, symName: __ZNSt3__111__sift_downB8ue170006INS_17_ClassicAlgPolicyERNS_6__lessIvvEENS_16reverse_iteratorINS_11__wrap_iterIP10HoldEmRankEEEEEEvT1_OT0_NS_15iterator_traitsISB_E15difference_typeESB_, symObjAddr: 0x18A00, symBinAddr: 0x100026C3C, symSize: 0x2FC }
  - { offsetInCU: 0xEA80, offset: 0x4D318, size: 0x8, addend: 0x0, symName: __ZNSt3__117__floyd_sift_downB8ue170006INS_17_ClassicAlgPolicyERNS_6__lessIvvEENS_16reverse_iteratorINS_11__wrap_iterIP10HoldEmRankEEEEEET1_SB_OT0_NS_15iterator_traitsISB_E15difference_typeE, symObjAddr: 0x18F30, symBinAddr: 0x10002716C, symSize: 0x158 }
  - { offsetInCU: 0xEB1C, offset: 0x4D3B4, size: 0x8, addend: 0x0, symName: __ZNSt3__131__partition_with_equals_on_leftB8ue170006INS_17_ClassicAlgPolicyENS_16reverse_iteratorINS_11__wrap_iterIP10HoldEmRankEEEERNS_6__lessIvvEEEET0_SB_SB_T1_, symObjAddr: 0x17340, symBinAddr: 0x10002557C, symSize: 0x2A4 }
  - { offsetInCU: 0xEBDB, offset: 0x4D473, size: 0x8, addend: 0x0, symName: __ZNSt3__118__bitset_partitionB8ue170006INS_17_ClassicAlgPolicyENS_16reverse_iteratorINS_11__wrap_iterIP10HoldEmRankEEEERNS_6__lessIvvEEEENS_4pairIT0_bEESC_SC_T1_, symObjAddr: 0x175E4, symBinAddr: 0x100025820, symSize: 0x3E4 }
  - { offsetInCU: 0xECDA, offset: 0x4D572, size: 0x8, addend: 0x0, symName: __ZNSt3__124__swap_bitmap_pos_withinB8ue170006INS_17_ClassicAlgPolicyENS_16reverse_iteratorINS_11__wrap_iterIP10HoldEmRankEEEEEEvRT0_S9_RySA_, symObjAddr: 0x1995C, symBinAddr: 0x100027B98, symSize: 0x1CC }
  - { offsetInCU: 0xEDAA, offset: 0x4D642, size: 0x8, addend: 0x0, symName: __ZNSt3__132__partition_with_equals_on_rightB8ue170006INS_17_ClassicAlgPolicyENS_16reverse_iteratorINS_11__wrap_iterIP10HoldEmRankEEEERNS_6__lessIvvEEEENS_4pairIT0_bEESC_SC_T1_, symObjAddr: 0x179C8, symBinAddr: 0x100025C04, symSize: 0x284 }
  - { offsetInCU: 0xEE78, offset: 0x4D710, size: 0x8, addend: 0x0, symName: __ZNSt3__127__insertion_sort_incompleteB8ue170006INS_17_ClassicAlgPolicyERNS_6__lessIvvEENS_16reverse_iteratorINS_11__wrap_iterIP10HoldEmRankEEEEEEbT1_SB_T0_, symObjAddr: 0x17C4C, symBinAddr: 0x100025E88, symSize: 0x4A4 }
  - { offsetInCU: 0xEF75, offset: 0x4D80D, size: 0x8, addend: 0x0, symName: __ZNSt3__111__introsortINS_17_ClassicAlgPolicyERNS_7greaterI10HoldEmRankEEPS3_Lb0EEEvT1_S7_T0_NS_15iterator_traitsIS7_E15difference_typeEb, symObjAddr: 0x19E60, symBinAddr: 0x10002809C, symSize: 0x434 }
  - { offsetInCU: 0xF0A4, offset: 0x4D93C, size: 0x8, addend: 0x0, symName: __ZNSt3__126__insertion_sort_unguardedB8ue170006INS_17_ClassicAlgPolicyERNS_7greaterI10HoldEmRankEEPS3_EEvT1_S7_T0_, symObjAddr: 0x1A530, symBinAddr: 0x10002876C, symSize: 0x120 }
  - { offsetInCU: 0xF198, offset: 0x4DA30, size: 0x8, addend: 0x0, symName: __ZNSt3__111__sift_downB8ue170006INS_17_ClassicAlgPolicyERNS_7greaterI10HoldEmRankEEPS3_EEvT1_OT0_NS_15iterator_traitsIS7_E15difference_typeES7_, symObjAddr: 0x1B6B0, symBinAddr: 0x1000298EC, symSize: 0x20C }
  - { offsetInCU: 0xF249, offset: 0x4DAE1, size: 0x8, addend: 0x0, symName: __ZNSt3__117__floyd_sift_downB8ue170006INS_17_ClassicAlgPolicyERNS_7greaterI10HoldEmRankEEPS3_EET1_S7_OT0_NS_15iterator_traitsIS7_E15difference_typeE, symObjAddr: 0x1BA58, symBinAddr: 0x100029C94, symSize: 0x100 }
  - { offsetInCU: 0xF2E4, offset: 0x4DB7C, size: 0x8, addend: 0x0, symName: __ZNSt3__131__partition_with_equals_on_leftB8ue170006INS_17_ClassicAlgPolicyEP10HoldEmRankRNS_7greaterIS2_EEEET0_S7_S7_T1_, symObjAddr: 0x1A85C, symBinAddr: 0x100028A98, symSize: 0x20C }
  - { offsetInCU: 0xF39F, offset: 0x4DC37, size: 0x8, addend: 0x0, symName: __ZNSt3__118__bitset_partitionB8ue170006INS_17_ClassicAlgPolicyEP10HoldEmRankRNS_7greaterIS2_EEEENS_4pairIT0_bEES8_S8_T1_, symObjAddr: 0x1AA68, symBinAddr: 0x100028CA4, symSize: 0x324 }
  - { offsetInCU: 0xF498, offset: 0x4DD30, size: 0x8, addend: 0x0, symName: __ZNSt3__124__swap_bitmap_pos_withinB8ue170006INS_17_ClassicAlgPolicyEP10HoldEmRankEEvRT0_S5_RyS6_, symObjAddr: 0x1C1A4, symBinAddr: 0x10002A3E0, symSize: 0x1E0 }
  - { offsetInCU: 0xF568, offset: 0x4DE00, size: 0x8, addend: 0x0, symName: __ZNSt3__132__partition_with_equals_on_rightB8ue170006INS_17_ClassicAlgPolicyEP10HoldEmRankRNS_7greaterIS2_EEEENS_4pairIT0_bEES8_S8_T1_, symObjAddr: 0x1AD8C, symBinAddr: 0x100028FC8, symSize: 0x21C }
  - { offsetInCU: 0xF632, offset: 0x4DECA, size: 0x8, addend: 0x0, symName: __ZNSt3__127__insertion_sort_incompleteB8ue170006INS_17_ClassicAlgPolicyERNS_7greaterI10HoldEmRankEEPS3_EEbT1_S7_T0_, symObjAddr: 0x1AFA8, symBinAddr: 0x1000291E4, symSize: 0x304 }
  - { offsetInCU: 0x1023B, offset: 0x4EAD3, size: 0x8, addend: 0x0, symName: '__ZNSt3__14sortB8ue170006INS_11__wrap_iterIP4CardI10HoldEmRank4SuitEEEZN10HoldEmGame20holdEmHandEvaluationERK7CardSetIS3_S4_EE3$_0EEvT_SE_T0_', symObjAddr: 0x10B0, symBinAddr: 0x1000131E0, symSize: 0x40 }
  - { offsetInCU: 0x10296, offset: 0x4EB2E, size: 0x8, addend: 0x0, symName: '__ZNSt3__16all_ofB8ue170006INS_11__wrap_iterIP4CardI10HoldEmRank4SuitEEEZN10HoldEmGame20holdEmHandEvaluationERK7CardSetIS3_S4_EE3$_1EEbT_SE_T0_', symObjAddr: 0x1150, symBinAddr: 0x100013280, symSize: 0x98 }
  - { offsetInCU: 0x10DBD, offset: 0x4F655, size: 0x8, addend: 0x0, symName: __ZNSt3__1neB8ue170006IP4CardI10HoldEmRank4SuitEEEbRKNS_11__wrap_iterIT_EESA_, symObjAddr: 0x1238, symBinAddr: 0x100013368, symSize: 0x34 }
  - { offsetInCU: 0x10E00, offset: 0x4F698, size: 0x8, addend: 0x0, symName: __ZNSt3__1neB8ue170006ERKNS_19__hash_map_iteratorINS_15__hash_iteratorIPNS_11__hash_nodeINS_17__hash_value_typeI10HoldEmRankiEEPvEEEEEESC_, symObjAddr: 0x1394, symBinAddr: 0x1000134C4, symSize: 0x30 }
  - { offsetInCU: 0x10E3D, offset: 0x4F6D5, size: 0x8, addend: 0x0, symName: __ZNSt3__13getB8ue170006ILm0EK10HoldEmRankiEERKNS_13tuple_elementIXT_ENS_4pairIT0_T1_EEE4typeERKS7_, symObjAddr: 0x13EC, symBinAddr: 0x10001351C, symSize: 0x24 }
  - { offsetInCU: 0x10E87, offset: 0x4F71F, size: 0x8, addend: 0x0, symName: __ZNSt3__13getB8ue170006ILm1EK10HoldEmRankiEERKNS_13tuple_elementIXT_ENS_4pairIT0_T1_EEE4typeERKS7_, symObjAddr: 0x1410, symBinAddr: 0x100013540, symSize: 0x24 }
  - { offsetInCU: 0x10ED1, offset: 0x4F769, size: 0x8, addend: 0x0, symName: __ZNSt3__1neB8ue170006IPN10HoldEmGame6PlayerEEEbRKNS_11__wrap_iterIT_EES8_, symObjAddr: 0x1AA0, symBinAddr: 0x100013BA4, symSize: 0x34 }
  - { offsetInCU: 0x10F14, offset: 0x4F7AC, size: 0x8, addend: 0x0, symName: '__ZNSt3__14sortB8ue170006INS_11__wrap_iterIPN10HoldEmGame6PlayerEEEZNS2_4playEvE3$_2EEvT_S7_T0_', symObjAddr: 0x1B0C, symBinAddr: 0x100013C10, symSize: 0x40 }
  - { offsetInCU: 0x10F6F, offset: 0x4F807, size: 0x8, addend: 0x0, symName: __ZNSt3__14sortB8ue170006INS_16reverse_iteratorINS_11__wrap_iterIP10HoldEmRankEEEEEEvT_S7_, symObjAddr: 0x3578, symBinAddr: 0x10001561C, symSize: 0x4C }
  - { offsetInCU: 0x10FB2, offset: 0x4F84A, size: 0x8, addend: 0x0, symName: __ZNSt3__14sortB8ue170006INS_11__wrap_iterIP10HoldEmRankEENS_7greaterIS2_EEEEvT_S7_T0_, symObjAddr: 0x364C, symBinAddr: 0x1000156F0, symSize: 0x40 }
  - { offsetInCU: 0x1100D, offset: 0x4F8A5, size: 0x8, addend: 0x0, symName: __ZNSt3__122__make_exception_guardB8ue170006INS_6vectorI4CardI10HoldEmRank4SuitENS_9allocatorIS5_EEE16__destroy_vectorEEENS_28__exception_guard_exceptionsIT_EESB_, symObjAddr: 0x47C8, symBinAddr: 0x100015A60, symSize: 0x40 }
  - { offsetInCU: 0x11042, offset: 0x4F8DA, size: 0x8, addend: 0x0, symName: __ZNSt3__130__uninitialized_allocator_copyB8ue170006INS_9allocatorI4CardI10HoldEmRank4SuitEEEPS5_S7_S7_EET2_RT_T0_T1_S8_, symObjAddr: 0x4E58, symBinAddr: 0x100015C78, symSize: 0x80 }
  - { offsetInCU: 0x110DF, offset: 0x4F977, size: 0x8, addend: 0x0, symName: __ZNSt3__114__unwrap_rangeB8ue170006IP4CardI10HoldEmRank4SuitES5_EENS_4pairIT0_S7_EET_S9_, symObjAddr: 0x4F48, symBinAddr: 0x100015CF8, symSize: 0x60 }
  - { offsetInCU: 0x1112B, offset: 0x4F9C3, size: 0x8, addend: 0x0, symName: __ZNSt3__135__uninitialized_allocator_copy_implB8ue170006INS_9allocatorI4CardI10HoldEmRank4SuitEEES5_S5_S5_LPv0EEEPT2_RT_PT0_SD_S9_, symObjAddr: 0x4FA8, symBinAddr: 0x100015D58, symSize: 0x38 }
  - { offsetInCU: 0x111AE, offset: 0x4FA46, size: 0x8, addend: 0x0, symName: __ZNSt3__113__unwrap_iterB8ue170006IP4CardI10HoldEmRank4SuitENS_18__unwrap_iter_implIS5_Lb1EEELi0EEEDTclsrT0_8__unwrapclsr3stdE7declvalIT_EEEES9_, symObjAddr: 0x4FE0, symBinAddr: 0x100015D90, symSize: 0x24 }
  - { offsetInCU: 0x111F3, offset: 0x4FA8B, size: 0x8, addend: 0x0, symName: __ZNSt3__113__rewrap_iterB8ue170006IP4CardI10HoldEmRank4SuitES5_NS_18__unwrap_iter_implIS5_Lb1EEEEET_S8_T0_, symObjAddr: 0x5004, symBinAddr: 0x100015DB4, symSize: 0x3C }
  - { offsetInCU: 0x11248, offset: 0x4FAE0, size: 0x8, addend: 0x0, symName: __ZNSt3__19make_pairB8ue170006IP4CardI10HoldEmRank4SuitES5_EENS_4pairINS_18__unwrap_ref_decayIT_E4typeENS7_IT0_E4typeEEEOS8_OSB_, symObjAddr: 0x5040, symBinAddr: 0x100015DF0, symSize: 0x38 }
  - { offsetInCU: 0x1139C, offset: 0x4FC34, size: 0x8, addend: 0x0, symName: __ZNSt3__14copyB8ue170006IP4CardI10HoldEmRank4SuitES5_EET0_T_S7_S6_, symObjAddr: 0x50E8, symBinAddr: 0x100015E98, symSize: 0x40 }
  - { offsetInCU: 0x113F6, offset: 0x4FC8E, size: 0x8, addend: 0x0, symName: __ZNSt3__16__copyB8ue170006INS_17_ClassicAlgPolicyEP4CardI10HoldEmRank4SuitES6_S6_EENS_4pairIT0_T2_EES8_T1_S9_, symObjAddr: 0x5128, symBinAddr: 0x100015ED8, symSize: 0x44 }
  - { offsetInCU: 0x11462, offset: 0x4FCFA, size: 0x8, addend: 0x0, symName: __ZNSt3__123__dispatch_copy_or_moveB8ue170006INS_17_ClassicAlgPolicyENS_11__copy_loopIS1_EENS_14__copy_trivialEP4CardI10HoldEmRank4SuitES9_S9_EENS_4pairIT2_T4_EESB_T3_SC_, symObjAddr: 0x516C, symBinAddr: 0x100015F1C, symSize: 0x44 }
  - { offsetInCU: 0x114E0, offset: 0x4FD78, size: 0x8, addend: 0x0, symName: __ZNSt3__121__unwrap_and_dispatchB8ue170006INS_10__overloadINS_11__copy_loopINS_17_ClassicAlgPolicyEEENS_14__copy_trivialEEEP4CardI10HoldEmRank4SuitESB_SB_Li0EEENS_4pairIT0_T2_EESD_T1_SE_, symObjAddr: 0x51B0, symBinAddr: 0x100015F60, symSize: 0xB4 }
  - { offsetInCU: 0x115B8, offset: 0x4FE50, size: 0x8, addend: 0x0, symName: __ZNSt3__114__rewrap_rangeB8ue170006IP4CardI10HoldEmRank4SuitES5_EET_S6_T0_, symObjAddr: 0x52AC, symBinAddr: 0x10001605C, symSize: 0x2C }
  - { offsetInCU: 0x11604, offset: 0x4FE9C, size: 0x8, addend: 0x0, symName: __ZNSt3__119__copy_trivial_implB8ue170006I4CardI10HoldEmRank4SuitES4_EENS_4pairIPT_PT0_EES7_S7_S9_, symObjAddr: 0x52D8, symBinAddr: 0x100016088, symSize: 0x80 }
  - { offsetInCU: 0x1166D, offset: 0x4FF05, size: 0x8, addend: 0x0, symName: __ZNSt3__119__constexpr_memmoveB8ue170006I4CardI10HoldEmRank4SuitES4_Li0EEEPT_S6_PT0_NS_15__element_countE, symObjAddr: 0x5358, symBinAddr: 0x100016108, symSize: 0x64 }
  - { offsetInCU: 0x116DD, offset: 0x4FF75, size: 0x8, addend: 0x0, symName: __ZNSt3__19make_pairB8ue170006IRP4CardI10HoldEmRank4SuitES5_EENS_4pairINS_18__unwrap_ref_decayIT_E4typeENS8_IT0_E4typeEEEOS9_OSC_, symObjAddr: 0x53BC, symBinAddr: 0x10001616C, symSize: 0x38 }
  - { offsetInCU: 0x11780, offset: 0x50018, size: 0x8, addend: 0x0, symName: __ZNSt3__1eqB8ue170006IP4CardI10HoldEmRank4SuitEEEbRKNS_11__wrap_iterIT_EESA_, symObjAddr: 0x5540, symBinAddr: 0x1000162D0, symSize: 0x48 }
  - { offsetInCU: 0x1183D, offset: 0x500D5, size: 0x8, addend: 0x0, symName: __ZNSt3__1eqB8ue170006IPN10HoldEmGame6PlayerEEEbRKNS_11__wrap_iterIT_EES8_, symObjAddr: 0x55CC, symBinAddr: 0x10001635C, symSize: 0x48 }
  - { offsetInCU: 0x118F8, offset: 0x50190, size: 0x8, addend: 0x0, symName: __ZNSt3__112__to_addressB8ue170006I7CardSetI10HoldEmRank4SuitEEEPT_S6_, symObjAddr: 0x5DCC, symBinAddr: 0x10001692C, symSize: 0x14 }
  - { offsetInCU: 0x1192D, offset: 0x501C5, size: 0x8, addend: 0x0, symName: __ZNSt3__119__allocate_at_leastB8ue170006INS_9allocatorI7CardSetI10HoldEmRank4SuitEEEEENS_19__allocation_resultINS_16allocator_traitsIT_E7pointerEEERS9_m, symObjAddr: 0x6708, symBinAddr: 0x1000171E8, symSize: 0x40 }
  - { offsetInCU: 0x11970, offset: 0x50208, size: 0x8, addend: 0x0, symName: __ZNSt3__142__uninitialized_allocator_move_if_noexceptB8ue170006INS_9allocatorI7CardSetI10HoldEmRank4SuitEEENS_16reverse_iteratorIPS5_EES9_S9_EET2_RT_T0_T1_SA_, symObjAddr: 0x68BC, symBinAddr: 0x10001739C, symSize: 0x12C }
  - { offsetInCU: 0x11A10, offset: 0x502A8, size: 0x8, addend: 0x0, symName: __ZNSt3__14swapB8ue170006IP7CardSetI10HoldEmRank4SuitEEENS_9enable_ifIXaasr21is_move_constructibleIT_EE5valuesr18is_move_assignableIS7_EE5valueEvE4typeERS7_SA_, symObjAddr: 0x6A34, symBinAddr: 0x100017514, symSize: 0x3C }
  - { offsetInCU: 0x11A62, offset: 0x502FA, size: 0x8, addend: 0x0, symName: __ZNSt3__122__make_exception_guardB8ue170006INS_29_AllocatorDestroyRangeReverseINS_9allocatorI7CardSetI10HoldEmRank4SuitEEENS_16reverse_iteratorIPS6_EEEEEENS_28__exception_guard_exceptionsIT_EESD_, symObjAddr: 0x6B1C, symBinAddr: 0x1000175FC, symSize: 0x4C }
  - { offsetInCU: 0x11A98, offset: 0x50330, size: 0x8, addend: 0x0, symName: __ZNSt3__1neB8ue170006IP7CardSetI10HoldEmRank4SuitES5_EEbRKNS_16reverse_iteratorIT_EERKNS6_IT0_EE, symObjAddr: 0x6BAC, symBinAddr: 0x10001768C, symSize: 0x48 }
  - { offsetInCU: 0x11AE4, offset: 0x5037C, size: 0x8, addend: 0x0, symName: __ZNSt3__112__to_addressB8ue170006INS_16reverse_iteratorIP7CardSetI10HoldEmRank4SuitEEEvEEu7__decayIDTclsr19__to_address_helperIT_EE6__callclsr3stdE7declvalIRKS8_EEEEESA_, symObjAddr: 0x6C28, symBinAddr: 0x100017708, symSize: 0x24 }
  - { offsetInCU: 0x11B44, offset: 0x503DC, size: 0x8, addend: 0x0, symName: __ZNSt3__119__allocator_destroyB8ue170006INS_9allocatorI7CardSetI10HoldEmRank4SuitEEENS_16reverse_iteratorINS7_IPS5_EEEESA_EEvRT_T0_T1_, symObjAddr: 0x6F08, symBinAddr: 0x1000179E8, symSize: 0x70 }
  - { offsetInCU: 0x11BAA, offset: 0x50442, size: 0x8, addend: 0x0, symName: __ZNSt3__1neB8ue170006INS_16reverse_iteratorIP7CardSetI10HoldEmRank4SuitEEES7_EEbRKNS1_IT_EERKNS1_IT0_EE, symObjAddr: 0x6FB4, symBinAddr: 0x100017A94, symSize: 0x60 }
  - { offsetInCU: 0x11BF6, offset: 0x5048E, size: 0x8, addend: 0x0, symName: __ZNSt3__112__to_addressB8ue170006INS_16reverse_iteratorINS1_IP7CardSetI10HoldEmRank4SuitEEEEEvEEu7__decayIDTclsr19__to_address_helperIT_EE6__callclsr3stdE7declvalIRKS9_EEEEESB_, symObjAddr: 0x7014, symBinAddr: 0x100017AF4, symSize: 0x24 }
  - { offsetInCU: 0x120E3, offset: 0x5097B, size: 0x8, addend: 0x0, symName: __ZNSt3__1neB8ue170006IPK4CardI10HoldEmRank4SuitEEEbRKNS_11__wrap_iterIT_EESB_, symObjAddr: 0x8F3C, symBinAddr: 0x100018288, symSize: 0x34 }
  - { offsetInCU: 0x12126, offset: 0x509BE, size: 0x8, addend: 0x0, symName: __ZNSt3__1eqB8ue170006IPK4CardI10HoldEmRank4SuitEEEbRKNS_11__wrap_iterIT_EESB_, symObjAddr: 0x9098, symBinAddr: 0x1000183B0, symSize: 0x48 }
  - { offsetInCU: 0x12169, offset: 0x50A01, size: 0x8, addend: 0x0, symName: '__ZNSt3__111__sort_implB8ue170006INS_17_ClassicAlgPolicyENS_11__wrap_iterIP4CardI10HoldEmRank4SuitEEEZN10HoldEmGame20holdEmHandEvaluationERK7CardSetIS4_S5_EE3$_0EEvT0_SF_RT1_', symObjAddr: 0x9320, symBinAddr: 0x100018494, symSize: 0xA8 }
  - { offsetInCU: 0x121CD, offset: 0x50A65, size: 0x8, addend: 0x0, symName: __ZNSt3__123__debug_randomize_rangeB8ue170006INS_17_ClassicAlgPolicyENS_11__wrap_iterIP4CardI10HoldEmRank4SuitEEES8_EEvT0_T1_, symObjAddr: 0x93C8, symBinAddr: 0x10001853C, symSize: 0x14 }
  - { offsetInCU: 0x1221F, offset: 0x50AB7, size: 0x8, addend: 0x0, symName: '__ZNSt3__115__sort_dispatchB8ue170006INS_17_ClassicAlgPolicyEP4CardI10HoldEmRank4SuitEZN10HoldEmGame20holdEmHandEvaluationERK7CardSetIS3_S4_EE3$_0EEvT0_SD_RT1_', symObjAddr: 0x93DC, symBinAddr: 0x100018550, symSize: 0x64 }
  - { offsetInCU: 0x1229E, offset: 0x50B36, size: 0x8, addend: 0x0, symName: __ZNSt3__113__unwrap_iterB8ue170006INS_11__wrap_iterIP4CardI10HoldEmRank4SuitEEENS_18__unwrap_iter_implIS7_Lb1EEELi0EEEDTclsrT0_8__unwrapclsr3stdE7declvalIT_EEEESB_, symObjAddr: 0x9440, symBinAddr: 0x1000185B4, symSize: 0x2C }
  - { offsetInCU: 0x122E4, offset: 0x50B7C, size: 0x8, addend: 0x0, symName: '__ZNSt3__135__check_strict_weak_ordering_sortedB8ue170006IP4CardI10HoldEmRank4SuitEZN10HoldEmGame20holdEmHandEvaluationERK7CardSetIS2_S3_EE3$_0EEvT_SC_RT0_', symObjAddr: 0x946C, symBinAddr: 0x1000185E0, symSize: 0x18 }
  - { offsetInCU: 0x1233A, offset: 0x50BD2, size: 0x8, addend: 0x0, symName: __ZNSt3__17__log2iB8ue170006IlEET_S1_, symObjAddr: 0x9484, symBinAddr: 0x1000185F8, symSize: 0x54 }
  - { offsetInCU: 0x12371, offset: 0x50C09, size: 0x8, addend: 0x0, symName: '__ZNSt3__124__sort3_maybe_branchlessB8ue170006INS_17_ClassicAlgPolicyERZN10HoldEmGame20holdEmHandEvaluationERK7CardSetI10HoldEmRank4SuitEE3$_0P4CardIS4_S5_EEENS_9enable_ifIXntsr21__use_branchless_sortIT0_T1_EE5valueEvE4typeESG_SG_SG_SF_', symObjAddr: 0x99A8, symBinAddr: 0x100018B00, symSize: 0x3C }
  - { offsetInCU: 0x123E3, offset: 0x50C7B, size: 0x8, addend: 0x0, symName: '__ZNSt3__124__sort4_maybe_branchlessB8ue170006INS_17_ClassicAlgPolicyERZN10HoldEmGame20holdEmHandEvaluationERK7CardSetI10HoldEmRank4SuitEE3$_0P4CardIS4_S5_EEENS_9enable_ifIXntsr21__use_branchless_sortIT0_T1_EE5valueEvE4typeESG_SG_SG_SG_SF_', symObjAddr: 0x99E4, symBinAddr: 0x100018B3C, symSize: 0x44 }
  - { offsetInCU: 0x12463, offset: 0x50CFB, size: 0x8, addend: 0x0, symName: '__ZNSt3__124__sort5_maybe_branchlessB8ue170006INS_17_ClassicAlgPolicyERZN10HoldEmGame20holdEmHandEvaluationERK7CardSetI10HoldEmRank4SuitEE3$_0P4CardIS4_S5_EEENS_9enable_ifIXntsr21__use_branchless_sortIT0_T1_EE5valueEvE4typeESG_SG_SG_SG_SG_SF_', symObjAddr: 0x9A28, symBinAddr: 0x100018B80, symSize: 0x4C }
  - { offsetInCU: 0x124F1, offset: 0x50D89, size: 0x8, addend: 0x0, symName: '__ZNSt3__116__insertion_sortB8ue170006INS_17_ClassicAlgPolicyERZN10HoldEmGame20holdEmHandEvaluationERK7CardSetI10HoldEmRank4SuitEE3$_0P4CardIS4_S5_EEEvT1_SE_T0_', symObjAddr: 0x9A74, symBinAddr: 0x100018BCC, symSize: 0x150 }
  - { offsetInCU: 0x125B7, offset: 0x50E4F, size: 0x8, addend: 0x0, symName: '__ZNSt3__114__partial_sortB8ue170006INS_17_ClassicAlgPolicyERZN10HoldEmGame20holdEmHandEvaluationERK7CardSetI10HoldEmRank4SuitEE3$_0P4CardIS4_S5_ESD_EET1_SE_SE_T2_RT0_', symObjAddr: 0x9CE4, symBinAddr: 0x100018E3C, symSize: 0x94 }
  - { offsetInCU: 0x12641, offset: 0x50ED9, size: 0x8, addend: 0x0, symName: '__ZNSt3__17__sort3B8ue170006INS_17_ClassicAlgPolicyERZN10HoldEmGame20holdEmHandEvaluationERK7CardSetI10HoldEmRank4SuitEE3$_0P4CardIS4_S5_EEEjT1_SE_SE_T0_', symObjAddr: 0x9D78, symBinAddr: 0x100018ED0, symSize: 0x144 }
  - { offsetInCU: 0x126C2, offset: 0x50F5A, size: 0x8, addend: 0x0, symName: __ZNSt3__19iter_swapB8ue170006IP4CardI10HoldEmRank4SuitES5_EEvT_T0_, symObjAddr: 0xAA08, symBinAddr: 0x100019B60, symSize: 0x2C }
  - { offsetInCU: 0x1270B, offset: 0x50FA3, size: 0x8, addend: 0x0, symName: __ZNSt3__14swapB8ue170006I4CardI10HoldEmRank4SuitEEENS_9enable_ifIXaasr21is_move_constructibleIT_EE5valuesr18is_move_assignableIS6_EE5valueEvE4typeERS6_S9_, symObjAddr: 0xAA34, symBinAddr: 0x100019B8C, symSize: 0x3C }
  - { offsetInCU: 0x1275D, offset: 0x50FF5, size: 0x8, addend: 0x0, symName: '__ZNSt3__17__sort4B8ue170006INS_17_ClassicAlgPolicyERZN10HoldEmGame20holdEmHandEvaluationERK7CardSetI10HoldEmRank4SuitEE3$_0P4CardIS4_S5_EEEvT1_SE_SE_SE_T0_', symObjAddr: 0xAA70, symBinAddr: 0x100019BC8, symSize: 0xB8 }
  - { offsetInCU: 0x127D9, offset: 0x51071, size: 0x8, addend: 0x0, symName: '__ZNSt3__17__sort5B8ue170006INS_17_ClassicAlgPolicyERZN10HoldEmGame20holdEmHandEvaluationERK7CardSetI10HoldEmRank4SuitEE3$_0P4CardIS4_S5_EEEvT1_SE_SE_SE_SE_T0_', symObjAddr: 0xAB28, symBinAddr: 0x100019C80, symSize: 0xE8 }
  - { offsetInCU: 0x12863, offset: 0x510FB, size: 0x8, addend: 0x0, symName: __ZNSt3__123__debug_randomize_rangeB8ue170006INS_17_ClassicAlgPolicyEP4CardI10HoldEmRank4SuitES6_EEvT0_T1_, symObjAddr: 0xAC54, symBinAddr: 0x100019DAC, symSize: 0x14 }
  - { offsetInCU: 0x128B5, offset: 0x5114D, size: 0x8, addend: 0x0, symName: '__ZNSt3__119__partial_sort_implB8ue170006INS_17_ClassicAlgPolicyERZN10HoldEmGame20holdEmHandEvaluationERK7CardSetI10HoldEmRank4SuitEE3$_0P4CardIS4_S5_ESD_EET1_SE_SE_T2_OT0_', symObjAddr: 0xAC68, symBinAddr: 0x100019DC0, symSize: 0x110 }
  - { offsetInCU: 0x1294E, offset: 0x511E6, size: 0x8, addend: 0x0, symName: '__ZNSt3__111__make_heapB8ue170006INS_17_ClassicAlgPolicyERZN10HoldEmGame20holdEmHandEvaluationERK7CardSetI10HoldEmRank4SuitEE3$_0P4CardIS4_S5_EEEvT1_SE_OT0_', symObjAddr: 0xAD78, symBinAddr: 0x100019ED0, symSize: 0xB8 }
  - { offsetInCU: 0x129F5, offset: 0x5128D, size: 0x8, addend: 0x0, symName: '__ZNSt3__111__sort_heapB8ue170006INS_17_ClassicAlgPolicyERZN10HoldEmGame20holdEmHandEvaluationERK7CardSetI10HoldEmRank4SuitEE3$_0P4CardIS4_S5_EEEvT1_SE_OT0_', symObjAddr: 0xB03C, symBinAddr: 0x10001A194, symSize: 0xA8 }
  - { offsetInCU: 0x12A9C, offset: 0x51334, size: 0x8, addend: 0x0, symName: '__ZNSt3__110__pop_heapB8ue170006INS_17_ClassicAlgPolicyEZN10HoldEmGame20holdEmHandEvaluationERK7CardSetI10HoldEmRank4SuitEE3$_0P4CardIS4_S5_EEEvT1_SD_RT0_NS_15iterator_traitsISD_E15difference_typeE', symObjAddr: 0xB0E4, symBinAddr: 0x10001A23C, symSize: 0xF4 }
  - { offsetInCU: 0x12B51, offset: 0x513E9, size: 0x8, addend: 0x0, symName: '__ZNSt3__19__sift_upB8ue170006INS_17_ClassicAlgPolicyERZN10HoldEmGame20holdEmHandEvaluationERK7CardSetI10HoldEmRank4SuitEE3$_0P4CardIS4_S5_EEEvT1_SE_OT0_NS_15iterator_traitsISE_E15difference_typeE', symObjAddr: 0xB2D8, symBinAddr: 0x10001A430, symSize: 0x11C }
  - { offsetInCU: 0x12C06, offset: 0x5149E, size: 0x8, addend: 0x0, symName: '__ZNSt3__122__populate_left_bitsetB8ue170006IRZN10HoldEmGame20holdEmHandEvaluationERK7CardSetI10HoldEmRank4SuitEE3$_0P4CardIS3_S4_ESB_EEvT0_T_RT1_Ry', symObjAddr: 0xB3F4, symBinAddr: 0x10001A54C, symSize: 0xA8 }
  - { offsetInCU: 0x12CC4, offset: 0x5155C, size: 0x8, addend: 0x0, symName: '__ZNSt3__123__populate_right_bitsetB8ue170006IRZN10HoldEmGame20holdEmHandEvaluationERK7CardSetI10HoldEmRank4SuitEE3$_0P4CardIS3_S4_ESB_EEvT0_T_RT1_Ry', symObjAddr: 0xB49C, symBinAddr: 0x10001A5F4, symSize: 0xA0 }
  - { offsetInCU: 0x12D82, offset: 0x5161A, size: 0x8, addend: 0x0, symName: __ZNSt3__117__swap_bitmap_posB8ue170006INS_17_ClassicAlgPolicyEP4CardI10HoldEmRank4SuitEEEvT0_S7_RyS8_, symObjAddr: 0xB53C, symBinAddr: 0x10001A694, symSize: 0x100 }
  - { offsetInCU: 0x12E25, offset: 0x516BD, size: 0x8, addend: 0x0, symName: '__ZNSt3__133__bitset_partition_partial_blocksB8ue170006INS_17_ClassicAlgPolicyERZN10HoldEmGame20holdEmHandEvaluationERK7CardSetI10HoldEmRank4SuitEE3$_0P4CardIS4_S5_ESC_EEvRT1_SF_T0_RT2_RySJ_', symObjAddr: 0xB63C, symBinAddr: 0x10001A794, symSize: 0x2E8 }
  - { offsetInCU: 0x12FAD, offset: 0x51845, size: 0x8, addend: 0x0, symName: __ZNSt3__19make_pairB8ue170006IRP4CardI10HoldEmRank4SuitERbEENS_4pairINS_18__unwrap_ref_decayIT_E4typeENS9_IT0_E4typeEEEOSA_OSD_, symObjAddr: 0xBB04, symBinAddr: 0x10001AC5C, symSize: 0x38 }
  - { offsetInCU: 0x12FFC, offset: 0x51894, size: 0x8, addend: 0x0, symName: __ZNSt3__112__libcpp_ctzB8ue170006Ey, symObjAddr: 0xBB3C, symBinAddr: 0x10001AC94, symSize: 0x20 }
  - { offsetInCU: 0x13028, offset: 0x518C0, size: 0x8, addend: 0x0, symName: __ZNSt3__113__libcpp_blsrB8ue170006Ey, symObjAddr: 0xBB5C, symBinAddr: 0x10001ACB4, symSize: 0x2C }
  - { offsetInCU: 0x13054, offset: 0x518EC, size: 0x8, addend: 0x0, symName: __ZNSt3__112__libcpp_clzB8ue170006Ey, symObjAddr: 0xBBBC, symBinAddr: 0x10001AD14, symSize: 0x1C }
  - { offsetInCU: 0x131A9, offset: 0x51A41, size: 0x8, addend: 0x0, symName: __ZNSt3__112__to_addressB8ue170006INS_11__wrap_iterIP4CardI10HoldEmRank4SuitEEEvEEu7__decayIDTclsr19__to_address_helperIT_EE6__callclsr3stdE7declvalIRKS8_EEEEESA_, symObjAddr: 0xBC74, symBinAddr: 0x10001ADCC, symSize: 0x24 }
  - { offsetInCU: 0x132B8, offset: 0x51B50, size: 0x8, addend: 0x0, symName: __ZNSt3__17launderB8ue170006INS_4pairIK10HoldEmRankiEEEEPT_S6_, symObjAddr: 0xC650, symBinAddr: 0x10001B760, symSize: 0x24 }
  - { offsetInCU: 0x132EF, offset: 0x51B87, size: 0x8, addend: 0x0, symName: __ZNSt3__19__launderB8ue170006INS_4pairIK10HoldEmRankiEEEEPT_S6_, symObjAddr: 0xC674, symBinAddr: 0x10001B784, symSize: 0x14 }
  - { offsetInCU: 0x13327, offset: 0x51BBF, size: 0x8, addend: 0x0, symName: __ZNSt3__116forward_as_tupleB8ue170006IJRK10HoldEmRankEEENS_5tupleIJDpOT_EEES7_, symObjAddr: 0xCE5C, symBinAddr: 0x10001BF58, symSize: 0x2C }
  - { offsetInCU: 0x13360, offset: 0x51BF8, size: 0x8, addend: 0x0, symName: __ZNSt3__17launderB8ue170006IKNS_4pairIK10HoldEmRankiEEEEPT_S7_, symObjAddr: 0xD61C, symBinAddr: 0x10001C5E8, symSize: 0x24 }
  - { offsetInCU: 0x13397, offset: 0x51C2F, size: 0x8, addend: 0x0, symName: __ZNSt3__19__launderB8ue170006IKNS_4pairIK10HoldEmRankiEEEEPT_S7_, symObjAddr: 0xD640, symBinAddr: 0x10001C60C, symSize: 0x14 }
  - { offsetInCU: 0x133ED, offset: 0x51C85, size: 0x8, addend: 0x0, symName: __ZNSt3__13getB8ue170006ILm0EJRK10HoldEmRankEEERNS_13tuple_elementIXT_ENS_5tupleIJDpT0_EEEE4typeERS8_, symObjAddr: 0xDA5C, symBinAddr: 0x10001CA28, symSize: 0x24 }
  - { offsetInCU: 0x13478, offset: 0x51D10, size: 0x8, addend: 0x0, symName: __ZNSt3__1neB8ue170006ERKNS_15__hash_iteratorIPNS_11__hash_nodeINS_17__hash_value_typeI10HoldEmRankiEEPvEEEESA_, symObjAddr: 0xE4E4, symBinAddr: 0x10001D430, symSize: 0x34 }
  - { offsetInCU: 0x134B5, offset: 0x51D4D, size: 0x8, addend: 0x0, symName: __ZNSt3__1eqB8ue170006ERKNS_15__hash_iteratorIPNS_11__hash_nodeINS_17__hash_value_typeI10HoldEmRankiEEPvEEEESA_, symObjAddr: 0xE518, symBinAddr: 0x10001D464, symSize: 0x30 }
  - { offsetInCU: 0x134F3, offset: 0x51D8B, size: 0x8, addend: 0x0, symName: __ZNSt3__17shuffleB8ue170006INS_11__wrap_iterIP4CardI10HoldEmRank4SuitEEERNS_23mersenne_twister_engineIjLm32ELm624ELm397ELm31ELj2567483615ELm11ELj4294967295ELm7ELj2636928640ELm15ELj4022730752ELm18ELj1812433253EEEEEvT_SB_OT0_, symObjAddr: 0xE698, symBinAddr: 0x10001D4B4, symSize: 0x48 }
  - { offsetInCU: 0x1354A, offset: 0x51DE2, size: 0x8, addend: 0x0, symName: __ZNSt3__1miB8ue170006IP4CardI10HoldEmRank4SuitES5_EEDTmicldtfp_4baseEcldtfp0_4baseEERKNS_11__wrap_iterIT_EERKNS7_IT0_EE, symObjAddr: 0xE94C, symBinAddr: 0x10001D658, symSize: 0x48 }
  - { offsetInCU: 0x13596, offset: 0x51E2E, size: 0x8, addend: 0x0, symName: __ZNSt3__1ltB8ue170006IP4CardI10HoldEmRank4SuitEEEbRKNS_11__wrap_iterIT_EESA_, symObjAddr: 0xE9F0, symBinAddr: 0x10001D6C0, symSize: 0x48 }
  - { offsetInCU: 0x135D9, offset: 0x51E71, size: 0x8, addend: 0x0, symName: __ZNSt3__19iter_swapB8ue170006INS_11__wrap_iterIP4CardI10HoldEmRank4SuitEEES7_EEvT_T0_, symObjAddr: 0xF434, symBinAddr: 0x10001D788, symSize: 0x50 }
  - { offsetInCU: 0x13622, offset: 0x51EBA, size: 0x8, addend: 0x0, symName: __ZNSt3__112__to_addressB8ue170006IN10HoldEmGame6PlayerEEEPT_S4_, symObjAddr: 0xF958, symBinAddr: 0x10001DCAC, symSize: 0x14 }
  - { offsetInCU: 0x13657, offset: 0x51EEF, size: 0x8, addend: 0x0, symName: __ZNSt3__119__allocate_at_leastB8ue170006INS_9allocatorIN10HoldEmGame6PlayerEEEEENS_19__allocation_resultINS_16allocator_traitsIT_E7pointerEEERS7_m, symObjAddr: 0x102C8, symBinAddr: 0x10001E61C, symSize: 0x40 }
  - { offsetInCU: 0x1369A, offset: 0x51F32, size: 0x8, addend: 0x0, symName: __ZNSt3__142__uninitialized_allocator_move_if_noexceptB8ue170006INS_9allocatorIN10HoldEmGame6PlayerEEENS_16reverse_iteratorIPS3_EES7_S7_EET2_RT_T0_T1_S8_, symObjAddr: 0x1047C, symBinAddr: 0x10001E7D0, symSize: 0x12C }
  - { offsetInCU: 0x1373A, offset: 0x51FD2, size: 0x8, addend: 0x0, symName: __ZNSt3__14swapB8ue170006IPN10HoldEmGame6PlayerEEENS_9enable_ifIXaasr21is_move_constructibleIT_EE5valuesr18is_move_assignableIS5_EE5valueEvE4typeERS5_S8_, symObjAddr: 0x105F4, symBinAddr: 0x10001E948, symSize: 0x3C }
  - { offsetInCU: 0x1378C, offset: 0x52024, size: 0x8, addend: 0x0, symName: __ZNSt3__122__make_exception_guardB8ue170006INS_29_AllocatorDestroyRangeReverseINS_9allocatorIN10HoldEmGame6PlayerEEENS_16reverse_iteratorIPS4_EEEEEENS_28__exception_guard_exceptionsIT_EESB_, symObjAddr: 0x106DC, symBinAddr: 0x10001EA30, symSize: 0x4C }
  - { offsetInCU: 0x137C2, offset: 0x5205A, size: 0x8, addend: 0x0, symName: __ZNSt3__1neB8ue170006IPN10HoldEmGame6PlayerES3_EEbRKNS_16reverse_iteratorIT_EERKNS4_IT0_EE, symObjAddr: 0x1076C, symBinAddr: 0x10001EAC0, symSize: 0x48 }
  - { offsetInCU: 0x1380E, offset: 0x520A6, size: 0x8, addend: 0x0, symName: __ZNSt3__112__to_addressB8ue170006INS_16reverse_iteratorIPN10HoldEmGame6PlayerEEEvEEu7__decayIDTclsr19__to_address_helperIT_EE6__callclsr3stdE7declvalIRKS6_EEEEES8_, symObjAddr: 0x107E8, symBinAddr: 0x10001EB3C, symSize: 0x24 }
  - { offsetInCU: 0x1386E, offset: 0x52106, size: 0x8, addend: 0x0, symName: __ZNSt3__119__allocator_destroyB8ue170006INS_9allocatorIN10HoldEmGame6PlayerEEENS_16reverse_iteratorINS5_IPS3_EEEES8_EEvRT_T0_T1_, symObjAddr: 0x10B78, symBinAddr: 0x10001EECC, symSize: 0x70 }
  - { offsetInCU: 0x138D4, offset: 0x5216C, size: 0x8, addend: 0x0, symName: __ZNSt3__1neB8ue170006INS_16reverse_iteratorIPN10HoldEmGame6PlayerEEES5_EEbRKNS1_IT_EERKNS1_IT0_EE, symObjAddr: 0x10C24, symBinAddr: 0x10001EF78, symSize: 0x60 }
  - { offsetInCU: 0x13920, offset: 0x521B8, size: 0x8, addend: 0x0, symName: __ZNSt3__112__to_addressB8ue170006INS_16reverse_iteratorINS1_IPN10HoldEmGame6PlayerEEEEEvEEu7__decayIDTclsr19__to_address_helperIT_EE6__callclsr3stdE7declvalIRKS7_EEEEES9_, symObjAddr: 0x10C84, symBinAddr: 0x10001EFD8, symSize: 0x24 }
  - { offsetInCU: 0x13980, offset: 0x52218, size: 0x8, addend: 0x0, symName: '__ZNSt3__111__sort_implB8ue170006INS_17_ClassicAlgPolicyENS_11__wrap_iterIPN10HoldEmGame6PlayerEEEZNS3_4playEvE3$_2EEvT0_S8_RT1_', symObjAddr: 0x11070, symBinAddr: 0x10001F3C4, symSize: 0xA8 }
  - { offsetInCU: 0x139E4, offset: 0x5227C, size: 0x8, addend: 0x0, symName: __ZNSt3__123__debug_randomize_rangeB8ue170006INS_17_ClassicAlgPolicyENS_11__wrap_iterIPN10HoldEmGame6PlayerEEES6_EEvT0_T1_, symObjAddr: 0x11118, symBinAddr: 0x10001F46C, symSize: 0x14 }
  - { offsetInCU: 0x13A36, offset: 0x522CE, size: 0x8, addend: 0x0, symName: '__ZNSt3__115__sort_dispatchB8ue170006INS_17_ClassicAlgPolicyEPN10HoldEmGame6PlayerEZNS2_4playEvE3$_2EEvT0_S6_RT1_', symObjAddr: 0x1112C, symBinAddr: 0x10001F480, symSize: 0x64 }
  - { offsetInCU: 0x13AB5, offset: 0x5234D, size: 0x8, addend: 0x0, symName: __ZNSt3__113__unwrap_iterB8ue170006INS_11__wrap_iterIPN10HoldEmGame6PlayerEEENS_18__unwrap_iter_implIS5_Lb1EEELi0EEEDTclsrT0_8__unwrapclsr3stdE7declvalIT_EEEES9_, symObjAddr: 0x11190, symBinAddr: 0x10001F4E4, symSize: 0x2C }
  - { offsetInCU: 0x13AFB, offset: 0x52393, size: 0x8, addend: 0x0, symName: '__ZNSt3__135__check_strict_weak_ordering_sortedB8ue170006IPN10HoldEmGame6PlayerEZNS1_4playEvE3$_2EEvT_S5_RT0_', symObjAddr: 0x111BC, symBinAddr: 0x10001F510, symSize: 0x18 }
  - { offsetInCU: 0x13B51, offset: 0x523E9, size: 0x8, addend: 0x0, symName: '__ZNSt3__124__sort3_maybe_branchlessB8ue170006INS_17_ClassicAlgPolicyERZN10HoldEmGame4playEvE3$_2PNS2_6PlayerEEENS_9enable_ifIXntsr21__use_branchless_sortIT0_T1_EE5valueEvE4typeES9_S9_S9_S8_', symObjAddr: 0x11688, symBinAddr: 0x10001F9DC, symSize: 0x3C }
  - { offsetInCU: 0x13BC3, offset: 0x5245B, size: 0x8, addend: 0x0, symName: '__ZNSt3__124__sort4_maybe_branchlessB8ue170006INS_17_ClassicAlgPolicyERZN10HoldEmGame4playEvE3$_2PNS2_6PlayerEEENS_9enable_ifIXntsr21__use_branchless_sortIT0_T1_EE5valueEvE4typeES9_S9_S9_S9_S8_', symObjAddr: 0x116C4, symBinAddr: 0x10001FA18, symSize: 0x44 }
  - { offsetInCU: 0x13C43, offset: 0x524DB, size: 0x8, addend: 0x0, symName: '__ZNSt3__124__sort5_maybe_branchlessB8ue170006INS_17_ClassicAlgPolicyERZN10HoldEmGame4playEvE3$_2PNS2_6PlayerEEENS_9enable_ifIXntsr21__use_branchless_sortIT0_T1_EE5valueEvE4typeES9_S9_S9_S9_S9_S8_', symObjAddr: 0x11708, symBinAddr: 0x10001FA5C, symSize: 0x4C }
  - { offsetInCU: 0x13CD1, offset: 0x52569, size: 0x8, addend: 0x0, symName: '__ZNSt3__116__insertion_sortB8ue170006INS_17_ClassicAlgPolicyERZN10HoldEmGame4playEvE3$_2PNS2_6PlayerEEEvT1_S7_T0_', symObjAddr: 0x11754, symBinAddr: 0x10001FAA8, symSize: 0x198 }
  - { offsetInCU: 0x13D85, offset: 0x5261D, size: 0x8, addend: 0x0, symName: '__ZNSt3__114__partial_sortB8ue170006INS_17_ClassicAlgPolicyERZN10HoldEmGame4playEvE3$_2PNS2_6PlayerES6_EET1_S7_S7_T2_RT0_', symObjAddr: 0x11A54, symBinAddr: 0x10001FDA8, symSize: 0x94 }
  - { offsetInCU: 0x13E0F, offset: 0x526A7, size: 0x8, addend: 0x0, symName: '__ZNSt3__17__sort3B8ue170006INS_17_ClassicAlgPolicyERZN10HoldEmGame4playEvE3$_2PNS2_6PlayerEEEjT1_S7_S7_T0_', symObjAddr: 0x11AE8, symBinAddr: 0x10001FE3C, symSize: 0x144 }
  - { offsetInCU: 0x13E90, offset: 0x52728, size: 0x8, addend: 0x0, symName: __ZNSt3__19iter_swapB8ue170006IPN10HoldEmGame6PlayerES3_EEvT_T0_, symObjAddr: 0x128D4, symBinAddr: 0x100020C28, symSize: 0x2C }
  - { offsetInCU: 0x13ED9, offset: 0x52771, size: 0x8, addend: 0x0, symName: __ZNSt3__14swapB8ue170006IN10HoldEmGame6PlayerEEENS_9enable_ifIXaasr21is_move_constructibleIT_EE5valuesr18is_move_assignableIS4_EE5valueEvE4typeERS4_S7_, symObjAddr: 0x12900, symBinAddr: 0x100020C54, symSize: 0x74 }
  - { offsetInCU: 0x13F2B, offset: 0x527C3, size: 0x8, addend: 0x0, symName: __ZNSt3__18distanceB8ue170006IP4CardI10HoldEmRank4SuitEEENS_15iterator_traitsIT_E15difference_typeES7_S7_, symObjAddr: 0x12DA4, symBinAddr: 0x10002107C, symSize: 0x2C }
  - { offsetInCU: 0x13F6E, offset: 0x52806, size: 0x8, addend: 0x0, symName: __ZNSt3__14nextB8ue170006IP4CardI10HoldEmRank4SuitEEENS_9enable_ifIXsr29__has_input_iterator_categoryIT_EE5valueES7_E4typeES7_NS_15iterator_traitsIS7_E15difference_typeE, symObjAddr: 0x12DD0, symBinAddr: 0x1000210A8, symSize: 0x34 }
  - { offsetInCU: 0x13FB1, offset: 0x52849, size: 0x8, addend: 0x0, symName: __ZNSt3__121__convert_to_integralB8ue170006El, symObjAddr: 0x12ED0, symBinAddr: 0x1000211A8, symSize: 0x14 }
  - { offsetInCU: 0x13FDD, offset: 0x52875, size: 0x8, addend: 0x0, symName: __ZNSt3__19__advanceB8ue170006IP4CardI10HoldEmRank4SuitEEEvRT_NS_15iterator_traitsIS6_E15difference_typeENS_26random_access_iterator_tagE, symObjAddr: 0x12EE4, symBinAddr: 0x1000211BC, symSize: 0x28 }
  - { offsetInCU: 0x14027, offset: 0x528BF, size: 0x8, addend: 0x0, symName: __ZNSt3__110__distanceB8ue170006IP4CardI10HoldEmRank4SuitEEENS_15iterator_traitsIT_E15difference_typeES7_S7_NS_26random_access_iterator_tagE, symObjAddr: 0x12F50, symBinAddr: 0x100021228, symSize: 0x28 }
  - { offsetInCU: 0x14074, offset: 0x5290C, size: 0x8, addend: 0x0, symName: '__ZNSt3__17__sort4B8ue170006INS_17_ClassicAlgPolicyERZN10HoldEmGame4playEvE3$_2PNS2_6PlayerEEEvT1_S7_S7_S7_T0_', symObjAddr: 0x13240, symBinAddr: 0x10002147C, symSize: 0xB8 }
  - { offsetInCU: 0x140F0, offset: 0x52988, size: 0x8, addend: 0x0, symName: '__ZNSt3__17__sort5B8ue170006INS_17_ClassicAlgPolicyERZN10HoldEmGame4playEvE3$_2PNS2_6PlayerEEEvT1_S7_S7_S7_S7_T0_', symObjAddr: 0x132F8, symBinAddr: 0x100021534, symSize: 0xE8 }
  - { offsetInCU: 0x1419F, offset: 0x52A37, size: 0x8, addend: 0x0, symName: __ZNSt3__123__debug_randomize_rangeB8ue170006INS_17_ClassicAlgPolicyEPN10HoldEmGame6PlayerES4_EEvT0_T1_, symObjAddr: 0x13424, symBinAddr: 0x100021660, symSize: 0x14 }
  - { offsetInCU: 0x141F1, offset: 0x52A89, size: 0x8, addend: 0x0, symName: '__ZNSt3__119__partial_sort_implB8ue170006INS_17_ClassicAlgPolicyERZN10HoldEmGame4playEvE3$_2PNS2_6PlayerES6_EET1_S7_S7_T2_OT0_', symObjAddr: 0x13438, symBinAddr: 0x100021674, symSize: 0x110 }
  - { offsetInCU: 0x1428A, offset: 0x52B22, size: 0x8, addend: 0x0, symName: '__ZNSt3__111__make_heapB8ue170006INS_17_ClassicAlgPolicyERZN10HoldEmGame4playEvE3$_2PNS2_6PlayerEEEvT1_S7_OT0_', symObjAddr: 0x13548, symBinAddr: 0x100021784, symSize: 0xB8 }
  - { offsetInCU: 0x14331, offset: 0x52BC9, size: 0x8, addend: 0x0, symName: '__ZNSt3__111__sort_heapB8ue170006INS_17_ClassicAlgPolicyERZN10HoldEmGame4playEvE3$_2PNS2_6PlayerEEEvT1_S7_OT0_', symObjAddr: 0x13860, symBinAddr: 0x100021A9C, symSize: 0xA8 }
  - { offsetInCU: 0x143D8, offset: 0x52C70, size: 0x8, addend: 0x0, symName: '__ZNSt3__110__pop_heapB8ue170006INS_17_ClassicAlgPolicyEZN10HoldEmGame4playEvE3$_2PNS2_6PlayerEEEvT1_S6_RT0_NS_15iterator_traitsIS6_E15difference_typeE', symObjAddr: 0x13908, symBinAddr: 0x100021B44, symSize: 0x144 }
  - { offsetInCU: 0x14484, offset: 0x52D1C, size: 0x8, addend: 0x0, symName: '__ZNSt3__19__sift_upB8ue170006INS_17_ClassicAlgPolicyERZN10HoldEmGame4playEvE3$_2PNS2_6PlayerEEEvT1_S7_OT0_NS_15iterator_traitsIS7_E15difference_typeE', symObjAddr: 0x13B4C, symBinAddr: 0x100021D88, symSize: 0x164 }
  - { offsetInCU: 0x14527, offset: 0x52DBF, size: 0x8, addend: 0x0, symName: '__ZNSt3__122__populate_left_bitsetB8ue170006IRZN10HoldEmGame4playEvE3$_2PNS1_6PlayerES4_EEvT0_T_RT1_Ry', symObjAddr: 0x13CB0, symBinAddr: 0x100021EEC, symSize: 0xA8 }
  - { offsetInCU: 0x145E5, offset: 0x52E7D, size: 0x8, addend: 0x0, symName: '__ZNSt3__123__populate_right_bitsetB8ue170006IRZN10HoldEmGame4playEvE3$_2PNS1_6PlayerES4_EEvT0_T_RT1_Ry', symObjAddr: 0x13D58, symBinAddr: 0x100021F94, symSize: 0xA0 }
  - { offsetInCU: 0x146A3, offset: 0x52F3B, size: 0x8, addend: 0x0, symName: __ZNSt3__117__swap_bitmap_posB8ue170006INS_17_ClassicAlgPolicyEPN10HoldEmGame6PlayerEEEvT0_S5_RyS6_, symObjAddr: 0x13DF8, symBinAddr: 0x100022034, symSize: 0x100 }
  - { offsetInCU: 0x14746, offset: 0x52FDE, size: 0x8, addend: 0x0, symName: '__ZNSt3__133__bitset_partition_partial_blocksB8ue170006INS_17_ClassicAlgPolicyERZN10HoldEmGame4playEvE3$_2PNS2_6PlayerES5_EEvRT1_S8_T0_RT2_RySC_', symObjAddr: 0x13EF8, symBinAddr: 0x100022134, symSize: 0x2E8 }
  - { offsetInCU: 0x148CE, offset: 0x53166, size: 0x8, addend: 0x0, symName: __ZNSt3__19make_pairB8ue170006IRPN10HoldEmGame6PlayerERbEENS_4pairINS_18__unwrap_ref_decayIT_E4typeENS7_IT0_E4typeEEEOS8_OSB_, symObjAddr: 0x143C0, symBinAddr: 0x1000225FC, symSize: 0x38 }
  - { offsetInCU: 0x14A46, offset: 0x532DE, size: 0x8, addend: 0x0, symName: __ZNSt3__112__to_addressB8ue170006INS_11__wrap_iterIPN10HoldEmGame6PlayerEEEvEEu7__decayIDTclsr19__to_address_helperIT_EE6__callclsr3stdE7declvalIRKS6_EEEEES8_, symObjAddr: 0x144C8, symBinAddr: 0x100022704, symSize: 0x24 }
  - { offsetInCU: 0x14B22, offset: 0x533BA, size: 0x8, addend: 0x0, symName: __ZNSt3__112__to_addressB8ue170006I10HoldEmRankEEPT_S3_, symObjAddr: 0x148A4, symBinAddr: 0x100022AE0, symSize: 0x14 }
  - { offsetInCU: 0x14B57, offset: 0x533EF, size: 0x8, addend: 0x0, symName: __ZNSt3__119__allocate_at_leastB8ue170006INS_9allocatorI10HoldEmRankEEEENS_19__allocation_resultINS_16allocator_traitsIT_E7pointerEEERS6_m, symObjAddr: 0x15284, symBinAddr: 0x1000234C0, symSize: 0x40 }
  - { offsetInCU: 0x14B9A, offset: 0x53432, size: 0x8, addend: 0x0, symName: __ZNSt3__142__uninitialized_allocator_move_if_noexceptB8ue170006INS_9allocatorI10HoldEmRankEENS_16reverse_iteratorIPS2_EES6_S2_vEET1_RT_T0_SA_S7_, symObjAddr: 0x15438, symBinAddr: 0x100023674, symSize: 0x78 }
  - { offsetInCU: 0x14C18, offset: 0x534B0, size: 0x8, addend: 0x0, symName: __ZNSt3__14swapB8ue170006IP10HoldEmRankEENS_9enable_ifIXaasr21is_move_constructibleIT_EE5valuesr18is_move_assignableIS4_EE5valueEvE4typeERS4_S7_, symObjAddr: 0x154FC, symBinAddr: 0x100023738, symSize: 0x3C }
  - { offsetInCU: 0x14C6A, offset: 0x53502, size: 0x8, addend: 0x0, symName: __ZNSt3__14moveB8ue170006INS_16reverse_iteratorIP10HoldEmRankEES4_EET0_T_S6_S5_, symObjAddr: 0x155E4, symBinAddr: 0x100023820, symSize: 0x78 }
  - { offsetInCU: 0x14CC4, offset: 0x5355C, size: 0x8, addend: 0x0, symName: __ZNSt3__16__moveB8ue170006INS_17_ClassicAlgPolicyENS_16reverse_iteratorIP10HoldEmRankEES5_S5_EENS_4pairIT0_T2_EES7_T1_S8_, symObjAddr: 0x1565C, symBinAddr: 0x100023898, symSize: 0x64 }
  - { offsetInCU: 0x14D30, offset: 0x535C8, size: 0x8, addend: 0x0, symName: __ZNSt3__123__dispatch_copy_or_moveB8ue170006INS_17_ClassicAlgPolicyENS_11__move_loopIS1_EENS_14__move_trivialENS_16reverse_iteratorIP10HoldEmRankEES8_S8_EENS_4pairIT2_T4_EESA_T3_SB_, symObjAddr: 0x156C0, symBinAddr: 0x1000238FC, symSize: 0x64 }
  - { offsetInCU: 0x14DAE, offset: 0x53646, size: 0x8, addend: 0x0, symName: __ZNSt3__121__unwrap_and_dispatchB8ue170006INS_10__overloadINS_11__move_loopINS_17_ClassicAlgPolicyEEENS_14__move_trivialEEENS_16reverse_iteratorIP10HoldEmRankEESA_SA_Li0EEENS_4pairIT0_T2_EESC_T1_SD_, symObjAddr: 0x15724, symBinAddr: 0x100023960, symSize: 0x12C }
  - { offsetInCU: 0x14E41, offset: 0x536D9, size: 0x8, addend: 0x0, symName: __ZNSt3__114__unwrap_rangeB8ue170006INS_16reverse_iteratorIP10HoldEmRankEES4_EENS_4pairIT0_S6_EET_S8_, symObjAddr: 0x15850, symBinAddr: 0x100023A8C, symSize: 0x84 }
  - { offsetInCU: 0x14F62, offset: 0x537FA, size: 0x8, addend: 0x0, symName: __ZNSt3__113__unwrap_iterB8ue170006INS_16reverse_iteratorIP10HoldEmRankEENS_18__unwrap_iter_implIS4_Lb0EEELi0EEEDTclsrT0_8__unwrapclsr3stdE7declvalIT_EEEES8_, symObjAddr: 0x15974, symBinAddr: 0x100023BB0, symSize: 0x44 }
  - { offsetInCU: 0x14FA7, offset: 0x5383F, size: 0x8, addend: 0x0, symName: __ZNSt3__19make_pairB8ue170006INS_16reverse_iteratorIP10HoldEmRankEES4_EENS_4pairINS_18__unwrap_ref_decayIT_E4typeENS6_IT0_E4typeEEEOS7_OSA_, symObjAddr: 0x159B8, symBinAddr: 0x100023BF4, symSize: 0x38 }
  - { offsetInCU: 0x14FF6, offset: 0x5388E, size: 0x8, addend: 0x0, symName: __ZNSt3__114__rewrap_rangeB8ue170006INS_16reverse_iteratorIP10HoldEmRankEES4_EET_S5_T0_, symObjAddr: 0x159F0, symBinAddr: 0x100023C2C, symSize: 0x5C }
  - { offsetInCU: 0x15042, offset: 0x538DA, size: 0x8, addend: 0x0, symName: __ZNSt3__113__rewrap_iterB8ue170006INS_16reverse_iteratorIP10HoldEmRankEES4_NS_18__unwrap_iter_implIS4_Lb0EEEEET_S7_T0_, symObjAddr: 0x15A4C, symBinAddr: 0x100023C88, symSize: 0x74 }
  - { offsetInCU: 0x15097, offset: 0x5392F, size: 0x8, addend: 0x0, symName: __ZNSt3__1neB8ue170006IP10HoldEmRankS2_EEbRKNS_16reverse_iteratorIT_EERKNS3_IT0_EE, symObjAddr: 0x15AC0, symBinAddr: 0x100023CFC, symSize: 0x48 }
  - { offsetInCU: 0x15151, offset: 0x539E9, size: 0x8, addend: 0x0, symName: __ZNSt3__14sortB8ue170006INS_16reverse_iteratorINS_11__wrap_iterIP10HoldEmRankEEEENS_6__lessIvvEEEEvT_S9_T0_, symObjAddr: 0x15EAC, symBinAddr: 0x1000240E8, symSize: 0x50 }
  - { offsetInCU: 0x151AC, offset: 0x53A44, size: 0x8, addend: 0x0, symName: __ZNSt3__111__sort_implB8ue170006INS_17_ClassicAlgPolicyENS_16reverse_iteratorINS_11__wrap_iterIP10HoldEmRankEEEENS_6__lessIvvEEEEvT0_SA_RT1_, symObjAddr: 0x15EFC, symBinAddr: 0x100024138, symSize: 0xF0 }
  - { offsetInCU: 0x15210, offset: 0x53AA8, size: 0x8, addend: 0x0, symName: __ZNSt3__123__debug_randomize_rangeB8ue170006INS_17_ClassicAlgPolicyENS_16reverse_iteratorINS_11__wrap_iterIP10HoldEmRankEEEES7_EEvT0_T1_, symObjAddr: 0x15FEC, symBinAddr: 0x100024228, symSize: 0x1C }
  - { offsetInCU: 0x15262, offset: 0x53AFA, size: 0x8, addend: 0x0, symName: __ZNSt3__115__sort_dispatchB8ue170006INS_17_ClassicAlgPolicyENS_16reverse_iteratorINS_11__wrap_iterIP10HoldEmRankEEEENS_6__lessIvvEEEEvT0_SA_RT1_, symObjAddr: 0x16008, symBinAddr: 0x100024244, symSize: 0x80 }
  - { offsetInCU: 0x152E1, offset: 0x53B79, size: 0x8, addend: 0x0, symName: __ZNSt3__113__unwrap_iterB8ue170006INS_16reverse_iteratorINS_11__wrap_iterIP10HoldEmRankEEEENS_18__unwrap_iter_implIS6_Lb0EEELi0EEEDTclsrT0_8__unwrapclsr3stdE7declvalIT_EEEESA_, symObjAddr: 0x16088, symBinAddr: 0x1000242C4, symSize: 0x44 }
  - { offsetInCU: 0x15326, offset: 0x53BBE, size: 0x8, addend: 0x0, symName: __ZNSt3__135__check_strict_weak_ordering_sortedB8ue170006INS_16reverse_iteratorINS_11__wrap_iterIP10HoldEmRankEEEENS_6__lessIvvEEEEvT_S9_RT0_, symObjAddr: 0x160CC, symBinAddr: 0x100024308, symSize: 0x20 }
  - { offsetInCU: 0x1537D, offset: 0x53C15, size: 0x8, addend: 0x0, symName: __ZNSt3__1miB8ue170006INS_11__wrap_iterIP10HoldEmRankEES4_EEDTmicldtfp0_4baseEcldtfp_4baseEERKNS_16reverse_iteratorIT_EERKNS6_IT0_EE, symObjAddr: 0x160EC, symBinAddr: 0x100024328, symSize: 0x50 }
  - { offsetInCU: 0x153CC, offset: 0x53C64, size: 0x8, addend: 0x0, symName: __ZNSt3__1miB8ue170006IP10HoldEmRankS2_EEDTmicldtfp_4baseEcldtfp0_4baseEERKNS_11__wrap_iterIT_EERKNS4_IT0_EE, symObjAddr: 0x16918, symBinAddr: 0x100024B54, symSize: 0x48 }
  - { offsetInCU: 0x15418, offset: 0x53CB0, size: 0x8, addend: 0x0, symName: __ZNSt3__124__sort3_maybe_branchlessB8ue170006INS_17_ClassicAlgPolicyERNS_6__lessIvvEENS_16reverse_iteratorINS_11__wrap_iterIP10HoldEmRankEEEEEENS_9enable_ifIXntsr21__use_branchless_sortIT0_T1_EE5valueEvE4typeESD_SD_SD_SC_, symObjAddr: 0x16A7C, symBinAddr: 0x100024CB8, symSize: 0x6C }
  - { offsetInCU: 0x15489, offset: 0x53D21, size: 0x8, addend: 0x0, symName: __ZNSt3__124__sort4_maybe_branchlessB8ue170006INS_17_ClassicAlgPolicyERNS_6__lessIvvEENS_16reverse_iteratorINS_11__wrap_iterIP10HoldEmRankEEEEEENS_9enable_ifIXntsr21__use_branchless_sortIT0_T1_EE5valueEvE4typeESD_SD_SD_SD_SC_, symObjAddr: 0x16B30, symBinAddr: 0x100024D6C, symSize: 0x90 }
  - { offsetInCU: 0x15509, offset: 0x53DA1, size: 0x8, addend: 0x0, symName: __ZNSt3__124__sort5_maybe_branchlessB8ue170006INS_17_ClassicAlgPolicyERNS_6__lessIvvEENS_16reverse_iteratorINS_11__wrap_iterIP10HoldEmRankEEEEEENS_9enable_ifIXntsr21__use_branchless_sortIT0_T1_EE5valueEvE4typeESD_SD_SD_SD_SD_SC_, symObjAddr: 0x16BC0, symBinAddr: 0x100024DFC, symSize: 0xB8 }
  - { offsetInCU: 0x15598, offset: 0x53E30, size: 0x8, addend: 0x0, symName: __ZNSt3__116__insertion_sortB8ue170006INS_17_ClassicAlgPolicyERNS_6__lessIvvEENS_16reverse_iteratorINS_11__wrap_iterIP10HoldEmRankEEEEEEvT1_SB_T0_, symObjAddr: 0x16C78, symBinAddr: 0x100024EB4, symSize: 0x194 }
  - { offsetInCU: 0x15661, offset: 0x53EF9, size: 0x8, addend: 0x0, symName: __ZNSt3__114__partial_sortB8ue170006INS_17_ClassicAlgPolicyERNS_6__lessIvvEENS_16reverse_iteratorINS_11__wrap_iterIP10HoldEmRankEEEESA_EET1_SB_SB_T2_RT0_, symObjAddr: 0x16FA8, symBinAddr: 0x1000251E4, symSize: 0x110 }
  - { offsetInCU: 0x156EB, offset: 0x53F83, size: 0x8, addend: 0x0, symName: __ZNSt3__17__sort3B8ue170006INS_17_ClassicAlgPolicyERNS_6__lessIvvEENS_16reverse_iteratorINS_11__wrap_iterIP10HoldEmRankEEEEEEjT1_SB_SB_T0_, symObjAddr: 0x170B8, symBinAddr: 0x1000252F4, symSize: 0x1F4 }
  - { offsetInCU: 0x1576C, offset: 0x54004, size: 0x8, addend: 0x0, symName: __ZNSt3__19iter_swapB8ue170006INS_16reverse_iteratorINS_11__wrap_iterIP10HoldEmRankEEEES6_EEvT_T0_, symObjAddr: 0x18190, symBinAddr: 0x1000263CC, symSize: 0x58 }
  - { offsetInCU: 0x157B5, offset: 0x5404D, size: 0x8, addend: 0x0, symName: __ZNSt3__14swapB8ue170006I10HoldEmRankEENS_9enable_ifIXaasr21is_move_constructibleIT_EE5valuesr18is_move_assignableIS3_EE5valueEvE4typeERS3_S6_, symObjAddr: 0x181E8, symBinAddr: 0x100026424, symSize: 0x3C }
  - { offsetInCU: 0x15807, offset: 0x5409F, size: 0x8, addend: 0x0, symName: __ZNSt3__17__sort4B8ue170006INS_17_ClassicAlgPolicyERNS_6__lessIvvEENS_16reverse_iteratorINS_11__wrap_iterIP10HoldEmRankEEEEEEvT1_SB_SB_SB_T0_, symObjAddr: 0x182C4, symBinAddr: 0x100026500, symSize: 0x160 }
  - { offsetInCU: 0x15884, offset: 0x5411C, size: 0x8, addend: 0x0, symName: __ZNSt3__17__sort5B8ue170006INS_17_ClassicAlgPolicyERNS_6__lessIvvEENS_16reverse_iteratorINS_11__wrap_iterIP10HoldEmRankEEEEEEvT1_SB_SB_SB_SB_T0_, symObjAddr: 0x18424, symBinAddr: 0x100026660, symSize: 0x1D8 }
  - { offsetInCU: 0x15911, offset: 0x541A9, size: 0x8, addend: 0x0, symName: __ZNSt3__1eqB8ue170006INS_11__wrap_iterIP10HoldEmRankEES4_EEbRKNS_16reverse_iteratorIT_EERKNS5_IT0_EE, symObjAddr: 0x185FC, symBinAddr: 0x100026838, symSize: 0x54 }
  - { offsetInCU: 0x1595D, offset: 0x541F5, size: 0x8, addend: 0x0, symName: __ZNSt3__1neB8ue170006INS_11__wrap_iterIP10HoldEmRankEES4_EEbRKNS_16reverse_iteratorIT_EERKNS5_IT0_EE, symObjAddr: 0x18650, symBinAddr: 0x10002688C, symSize: 0x54 }
  - { offsetInCU: 0x159A9, offset: 0x54241, size: 0x8, addend: 0x0, symName: __ZNSt3__1eqB8ue170006IP10HoldEmRankEEbRKNS_11__wrap_iterIT_EES7_, symObjAddr: 0x186CC, symBinAddr: 0x100026908, symSize: 0x48 }
  - { offsetInCU: 0x159EC, offset: 0x54284, size: 0x8, addend: 0x0, symName: __ZNSt3__1neB8ue170006IP10HoldEmRankEEbRKNS_11__wrap_iterIT_EES7_, symObjAddr: 0x18714, symBinAddr: 0x100026950, symSize: 0x34 }
  - { offsetInCU: 0x15A2F, offset: 0x542C7, size: 0x8, addend: 0x0, symName: __ZNSt3__119__partial_sort_implB8ue170006INS_17_ClassicAlgPolicyERNS_6__lessIvvEENS_16reverse_iteratorINS_11__wrap_iterIP10HoldEmRankEEEESA_EET1_SB_SB_T2_OT0_, symObjAddr: 0x18778, symBinAddr: 0x1000269B4, symSize: 0x1A0 }
  - { offsetInCU: 0x15ACA, offset: 0x54362, size: 0x8, addend: 0x0, symName: __ZNSt3__111__make_heapB8ue170006INS_17_ClassicAlgPolicyERNS_6__lessIvvEENS_16reverse_iteratorINS_11__wrap_iterIP10HoldEmRankEEEEEEvT1_SB_OT0_, symObjAddr: 0x18918, symBinAddr: 0x100026B54, symSize: 0xE8 }
  - { offsetInCU: 0x15B71, offset: 0x54409, size: 0x8, addend: 0x0, symName: __ZNSt3__111__sort_heapB8ue170006INS_17_ClassicAlgPolicyERNS_6__lessIvvEENS_16reverse_iteratorINS_11__wrap_iterIP10HoldEmRankEEEEEEvT1_SB_OT0_, symObjAddr: 0x18CFC, symBinAddr: 0x100026F38, symSize: 0xD8 }
  - { offsetInCU: 0x15C1A, offset: 0x544B2, size: 0x8, addend: 0x0, symName: __ZNSt3__110__pop_heapB8ue170006INS_17_ClassicAlgPolicyENS_6__lessIvvEENS_16reverse_iteratorINS_11__wrap_iterIP10HoldEmRankEEEEEEvT1_SA_RT0_NS_15iterator_traitsISA_E15difference_typeE, symObjAddr: 0x18DD4, symBinAddr: 0x100027010, symSize: 0x15C }
  - { offsetInCU: 0x15CD0, offset: 0x54568, size: 0x8, addend: 0x0, symName: __ZNSt3__19__sift_upB8ue170006INS_17_ClassicAlgPolicyERNS_6__lessIvvEENS_16reverse_iteratorINS_11__wrap_iterIP10HoldEmRankEEEEEEvT1_SB_OT0_NS_15iterator_traitsISB_E15difference_typeE, symObjAddr: 0x19088, symBinAddr: 0x1000272C4, symSize: 0x178 }
  - { offsetInCU: 0x15D86, offset: 0x5461E, size: 0x8, addend: 0x0, symName: __ZNSt3__1ltB8ue170006INS_11__wrap_iterIP10HoldEmRankEES4_EEbRKNS_16reverse_iteratorIT_EERKNS5_IT0_EE, symObjAddr: 0x19274, symBinAddr: 0x1000274B0, symSize: 0x54 }
  - { offsetInCU: 0x15DD2, offset: 0x5466A, size: 0x8, addend: 0x0, symName: __ZNSt3__1gtB8ue170006IP10HoldEmRankEEbRKNS_11__wrap_iterIT_EES7_, symObjAddr: 0x192C8, symBinAddr: 0x100027504, symSize: 0x30 }
  - { offsetInCU: 0x15E15, offset: 0x546AD, size: 0x8, addend: 0x0, symName: __ZNSt3__1ltB8ue170006IP10HoldEmRankEEbRKNS_11__wrap_iterIT_EES7_, symObjAddr: 0x192F8, symBinAddr: 0x100027534, symSize: 0x48 }
  - { offsetInCU: 0x15E58, offset: 0x546F0, size: 0x8, addend: 0x0, symName: __ZNSt3__1geB8ue170006INS_11__wrap_iterIP10HoldEmRankEES4_EEbRKNS_16reverse_iteratorIT_EERKNS5_IT0_EE, symObjAddr: 0x19340, symBinAddr: 0x10002757C, symSize: 0x54 }
  - { offsetInCU: 0x15EA7, offset: 0x5473F, size: 0x8, addend: 0x0, symName: __ZNSt3__122__populate_left_bitsetB8ue170006IRNS_6__lessIvvEENS_16reverse_iteratorINS_11__wrap_iterIP10HoldEmRankEEEES6_EEvT0_T_RT1_Ry, symObjAddr: 0x19394, symBinAddr: 0x1000275D0, symSize: 0xC0 }
  - { offsetInCU: 0x15F65, offset: 0x547FD, size: 0x8, addend: 0x0, symName: __ZNSt3__123__populate_right_bitsetB8ue170006IRNS_6__lessIvvEENS_16reverse_iteratorINS_11__wrap_iterIP10HoldEmRankEEEES6_EEvT0_T_RT1_Ry, symObjAddr: 0x19454, symBinAddr: 0x100027690, symSize: 0xB8 }
  - { offsetInCU: 0x16023, offset: 0x548BB, size: 0x8, addend: 0x0, symName: __ZNSt3__117__swap_bitmap_posB8ue170006INS_17_ClassicAlgPolicyENS_16reverse_iteratorINS_11__wrap_iterIP10HoldEmRankEEEEEEvT0_S8_RyS9_, symObjAddr: 0x1950C, symBinAddr: 0x100027748, symSize: 0x118 }
  - { offsetInCU: 0x160C6, offset: 0x5495E, size: 0x8, addend: 0x0, symName: __ZNSt3__133__bitset_partition_partial_blocksB8ue170006INS_17_ClassicAlgPolicyERNS_6__lessIvvEENS_16reverse_iteratorINS_11__wrap_iterIP10HoldEmRankEEEES7_EEvRT1_SC_T0_RT2_RySG_, symObjAddr: 0x1965C, symBinAddr: 0x100027898, symSize: 0x300 }
  - { offsetInCU: 0x16254, offset: 0x54AEC, size: 0x8, addend: 0x0, symName: __ZNSt3__19make_pairB8ue170006IRNS_16reverse_iteratorINS_11__wrap_iterIP10HoldEmRankEEEERbEENS_4pairINS_18__unwrap_ref_decayIT_E4typeENSA_IT0_E4typeEEEOSB_OSE_, symObjAddr: 0x19B28, symBinAddr: 0x100027D64, symSize: 0x38 }
  - { offsetInCU: 0x162A3, offset: 0x54B3B, size: 0x8, addend: 0x0, symName: __ZNSt3__1leB8ue170006IP10HoldEmRankEEbRKNS_11__wrap_iterIT_EES7_, symObjAddr: 0x19B60, symBinAddr: 0x100027D9C, symSize: 0x34 }
  - { offsetInCU: 0x16404, offset: 0x54C9C, size: 0x8, addend: 0x0, symName: __ZNSt3__111__sort_implB8ue170006INS_17_ClassicAlgPolicyENS_11__wrap_iterIP10HoldEmRankEENS_7greaterIS3_EEEEvT0_S8_RT1_, symObjAddr: 0x19CFC, symBinAddr: 0x100027F38, symSize: 0xA8 }
  - { offsetInCU: 0x16468, offset: 0x54D00, size: 0x8, addend: 0x0, symName: __ZNSt3__123__debug_randomize_rangeB8ue170006INS_17_ClassicAlgPolicyENS_11__wrap_iterIP10HoldEmRankEES5_EEvT0_T1_, symObjAddr: 0x19DA4, symBinAddr: 0x100027FE0, symSize: 0x14 }
  - { offsetInCU: 0x164BA, offset: 0x54D52, size: 0x8, addend: 0x0, symName: __ZNSt3__115__sort_dispatchB8ue170006INS_17_ClassicAlgPolicyEP10HoldEmRankNS_7greaterIS2_EEEEvT0_S6_RT1_, symObjAddr: 0x19DB8, symBinAddr: 0x100027FF4, symSize: 0x64 }
  - { offsetInCU: 0x16539, offset: 0x54DD1, size: 0x8, addend: 0x0, symName: __ZNSt3__113__unwrap_iterB8ue170006INS_11__wrap_iterIP10HoldEmRankEENS_18__unwrap_iter_implIS4_Lb1EEELi0EEEDTclsrT0_8__unwrapclsr3stdE7declvalIT_EEEES8_, symObjAddr: 0x19E1C, symBinAddr: 0x100028058, symSize: 0x2C }
  - { offsetInCU: 0x1657E, offset: 0x54E16, size: 0x8, addend: 0x0, symName: __ZNSt3__135__check_strict_weak_ordering_sortedB8ue170006IP10HoldEmRankNS_7greaterIS1_EEEEvT_S5_RT0_, symObjAddr: 0x19E48, symBinAddr: 0x100028084, symSize: 0x18 }
  - { offsetInCU: 0x1660F, offset: 0x54EA7, size: 0x8, addend: 0x0, symName: __ZNSt3__124__sort3_maybe_branchlessB8ue170006INS_17_ClassicAlgPolicyERNS_7greaterI10HoldEmRankEEPS3_EENS_9enable_ifIXntsr21__use_branchless_sortIT0_T1_EE5valueEvE4typeES9_S9_S9_S8_, symObjAddr: 0x1A314, symBinAddr: 0x100028550, symSize: 0x3C }
  - { offsetInCU: 0x16680, offset: 0x54F18, size: 0x8, addend: 0x0, symName: __ZNSt3__124__sort4_maybe_branchlessB8ue170006INS_17_ClassicAlgPolicyERNS_7greaterI10HoldEmRankEEPS3_EENS_9enable_ifIXntsr21__use_branchless_sortIT0_T1_EE5valueEvE4typeES9_S9_S9_S9_S8_, symObjAddr: 0x1A350, symBinAddr: 0x10002858C, symSize: 0x44 }
  - { offsetInCU: 0x166FF, offset: 0x54F97, size: 0x8, addend: 0x0, symName: __ZNSt3__124__sort5_maybe_branchlessB8ue170006INS_17_ClassicAlgPolicyERNS_7greaterI10HoldEmRankEEPS3_EENS_9enable_ifIXntsr21__use_branchless_sortIT0_T1_EE5valueEvE4typeES9_S9_S9_S9_S9_S8_, symObjAddr: 0x1A394, symBinAddr: 0x1000285D0, symSize: 0x4C }
  - { offsetInCU: 0x1678C, offset: 0x55024, size: 0x8, addend: 0x0, symName: __ZNSt3__116__insertion_sortB8ue170006INS_17_ClassicAlgPolicyERNS_7greaterI10HoldEmRankEEPS3_EEvT1_S7_T0_, symObjAddr: 0x1A3E0, symBinAddr: 0x10002861C, symSize: 0x150 }
  - { offsetInCU: 0x16852, offset: 0x550EA, size: 0x8, addend: 0x0, symName: __ZNSt3__114__partial_sortB8ue170006INS_17_ClassicAlgPolicyERNS_7greaterI10HoldEmRankEEPS3_S6_EET1_S7_S7_T2_RT0_, symObjAddr: 0x1A650, symBinAddr: 0x10002888C, symSize: 0x94 }
  - { offsetInCU: 0x168DB, offset: 0x55173, size: 0x8, addend: 0x0, symName: __ZNSt3__17__sort3B8ue170006INS_17_ClassicAlgPolicyERNS_7greaterI10HoldEmRankEEPS3_EEjT1_S7_S7_T0_, symObjAddr: 0x1A6E4, symBinAddr: 0x100028920, symSize: 0x144 }
  - { offsetInCU: 0x1695B, offset: 0x551F3, size: 0x8, addend: 0x0, symName: __ZNSt3__19iter_swapB8ue170006IP10HoldEmRankS2_EEvT_T0_, symObjAddr: 0x1B2C4, symBinAddr: 0x100029500, symSize: 0x2C }
  - { offsetInCU: 0x169A4, offset: 0x5523C, size: 0x8, addend: 0x0, symName: __ZNSt3__17__sort4B8ue170006INS_17_ClassicAlgPolicyERNS_7greaterI10HoldEmRankEEPS3_EEvT1_S7_S7_S7_T0_, symObjAddr: 0x1B2F0, symBinAddr: 0x10002952C, symSize: 0xB8 }
  - { offsetInCU: 0x16A20, offset: 0x552B8, size: 0x8, addend: 0x0, symName: __ZNSt3__17__sort5B8ue170006INS_17_ClassicAlgPolicyERNS_7greaterI10HoldEmRankEEPS3_EEvT1_S7_S7_S7_S7_T0_, symObjAddr: 0x1B3A8, symBinAddr: 0x1000295E4, symSize: 0xE8 }
  - { offsetInCU: 0x16AAA, offset: 0x55342, size: 0x8, addend: 0x0, symName: __ZNSt3__123__debug_randomize_rangeB8ue170006INS_17_ClassicAlgPolicyEP10HoldEmRankS3_EEvT0_T1_, symObjAddr: 0x1B4D4, symBinAddr: 0x100029710, symSize: 0x14 }
  - { offsetInCU: 0x16AFC, offset: 0x55394, size: 0x8, addend: 0x0, symName: __ZNSt3__119__partial_sort_implB8ue170006INS_17_ClassicAlgPolicyERNS_7greaterI10HoldEmRankEEPS3_S6_EET1_S7_S7_T2_OT0_, symObjAddr: 0x1B4E8, symBinAddr: 0x100029724, symSize: 0x110 }
  - { offsetInCU: 0x16B94, offset: 0x5542C, size: 0x8, addend: 0x0, symName: __ZNSt3__111__make_heapB8ue170006INS_17_ClassicAlgPolicyERNS_7greaterI10HoldEmRankEEPS3_EEvT1_S7_OT0_, symObjAddr: 0x1B5F8, symBinAddr: 0x100029834, symSize: 0xB8 }
  - { offsetInCU: 0x16C3B, offset: 0x554D3, size: 0x8, addend: 0x0, symName: __ZNSt3__111__sort_heapB8ue170006INS_17_ClassicAlgPolicyERNS_7greaterI10HoldEmRankEEPS3_EEvT1_S7_OT0_, symObjAddr: 0x1B8BC, symBinAddr: 0x100029AF8, symSize: 0xA8 }
  - { offsetInCU: 0x16CE2, offset: 0x5557A, size: 0x8, addend: 0x0, symName: __ZNSt3__110__pop_heapB8ue170006INS_17_ClassicAlgPolicyENS_7greaterI10HoldEmRankEEPS3_EEvT1_S6_RT0_NS_15iterator_traitsIS6_E15difference_typeE, symObjAddr: 0x1B964, symBinAddr: 0x100029BA0, symSize: 0xF4 }
  - { offsetInCU: 0x16D97, offset: 0x5562F, size: 0x8, addend: 0x0, symName: __ZNSt3__19__sift_upB8ue170006INS_17_ClassicAlgPolicyERNS_7greaterI10HoldEmRankEEPS3_EEvT1_S7_OT0_NS_15iterator_traitsIS7_E15difference_typeE, symObjAddr: 0x1BB58, symBinAddr: 0x100029D94, symSize: 0x11C }
  - { offsetInCU: 0x16E4C, offset: 0x556E4, size: 0x8, addend: 0x0, symName: __ZNSt3__122__populate_left_bitsetB8ue170006IRNS_7greaterI10HoldEmRankEEPS2_S2_EEvT0_T_RT1_Ry, symObjAddr: 0x1BC74, symBinAddr: 0x100029EB0, symSize: 0xA8 }
  - { offsetInCU: 0x16F0A, offset: 0x557A2, size: 0x8, addend: 0x0, symName: __ZNSt3__123__populate_right_bitsetB8ue170006IRNS_7greaterI10HoldEmRankEEPS2_S2_EEvT0_T_RT1_Ry, symObjAddr: 0x1BD1C, symBinAddr: 0x100029F58, symSize: 0xA0 }
  - { offsetInCU: 0x16FC8, offset: 0x55860, size: 0x8, addend: 0x0, symName: __ZNSt3__117__swap_bitmap_posB8ue170006INS_17_ClassicAlgPolicyEP10HoldEmRankEEvT0_S4_RyS5_, symObjAddr: 0x1BDBC, symBinAddr: 0x100029FF8, symSize: 0x100 }
  - { offsetInCU: 0x1706B, offset: 0x55903, size: 0x8, addend: 0x0, symName: __ZNSt3__133__bitset_partition_partial_blocksB8ue170006INS_17_ClassicAlgPolicyERNS_7greaterI10HoldEmRankEEPS3_S3_EEvRT1_S8_T0_RT2_RySC_, symObjAddr: 0x1BEBC, symBinAddr: 0x10002A0F8, symSize: 0x2E8 }
  - { offsetInCU: 0x171F3, offset: 0x55A8B, size: 0x8, addend: 0x0, symName: __ZNSt3__19make_pairB8ue170006IRP10HoldEmRankRbEENS_4pairINS_18__unwrap_ref_decayIT_E4typeENS6_IT0_E4typeEEEOS7_OSA_, symObjAddr: 0x1C384, symBinAddr: 0x10002A5C0, symSize: 0x38 }
  - { offsetInCU: 0x1736B, offset: 0x55C03, size: 0x8, addend: 0x0, symName: __ZNSt3__112__to_addressB8ue170006INS_11__wrap_iterIP10HoldEmRankEEvEEu7__decayIDTclsr19__to_address_helperIT_EE6__callclsr3stdE7declvalIRKS5_EEEEES7_, symObjAddr: 0x1C48C, symBinAddr: 0x10002A6C8, symSize: 0x24 }
  - { offsetInCU: 0x17E57, offset: 0x566EF, size: 0x8, addend: 0x0, symName: __ZNSt3__16vectorI7CardSetI10HoldEmRank4SuitENS_9allocatorIS4_EEE26__swap_out_circular_bufferERNS_14__split_bufferIS4_RS6_EE, symObjAddr: 0x6328, symBinAddr: 0x100016E88, symSize: 0x110 }
  - { offsetInCU: 0x18345, offset: 0x56BDD, size: 0x8, addend: 0x0, symName: __ZNKSt3__111__enum_hashI10HoldEmRankLb1EEclB8ue170006ES1_, symObjAddr: 0xD450, symBinAddr: 0x10001C448, symSize: 0x2C }
  - { offsetInCU: 0x189DA, offset: 0x57272, size: 0x8, addend: 0x0, symName: __ZNSt3__16vectorIN10HoldEmGame6PlayerENS_9allocatorIS2_EEE26__swap_out_circular_bufferERNS_14__split_bufferIS2_RS4_EE, symObjAddr: 0xFF68, symBinAddr: 0x10001E2BC, symSize: 0x110 }
  - { offsetInCU: 0x18A70, offset: 0x57308, size: 0x8, addend: 0x0, symName: __ZNSt3__16vectorI10HoldEmRankNS_9allocatorIS1_EEE26__swap_out_circular_bufferERNS_14__split_bufferIS1_RS3_EE, symObjAddr: 0x14F24, symBinAddr: 0x100023160, symSize: 0x110 }
  - { offsetInCU: 0x1A829, offset: 0x590C1, size: 0x8, addend: 0x0, symName: __ZN10HoldEmGameC2EiPPKc, symObjAddr: 0x0, symBinAddr: 0x10001235C, symSize: 0x144 }
  - { offsetInCU: 0x1A885, offset: 0x5911D, size: 0x8, addend: 0x0, symName: __ZNSt3__16vectorI7CardSetI10HoldEmRank4SuitENS_9allocatorIS4_EEEC1B8ue170006Ev, symObjAddr: 0x144, symBinAddr: 0x1000124A0, symSize: 0x2C }
  - { offsetInCU: 0x1A8AD, offset: 0x59145, size: 0x8, addend: 0x0, symName: __ZN7CardSetI10HoldEmRank4SuitEC1Ev, symObjAddr: 0x170, symBinAddr: 0x1000124CC, symSize: 0x2C }
  - { offsetInCU: 0x1A8D8, offset: 0x59170, size: 0x8, addend: 0x0, symName: __ZNSt3__16vectorI7CardSetI10HoldEmRank4SuitENS_9allocatorIS4_EEE12emplace_backIJEEERS4_DpOT_, symObjAddr: 0x1C4, symBinAddr: 0x1000124F8, symSize: 0x68 }
  - { offsetInCU: 0x1A904, offset: 0x5919C, size: 0x8, addend: 0x0, symName: __ZNSt3__16vectorI7CardSetI10HoldEmRank4SuitENS_9allocatorIS4_EEED1B8ue170006Ev, symObjAddr: 0x258, symBinAddr: 0x100012560, symSize: 0x2C }
  - { offsetInCU: 0x1A92C, offset: 0x591C4, size: 0x8, addend: 0x0, symName: __ZN10HoldEmGameC1EiPPKc, symObjAddr: 0x2F0, symBinAddr: 0x10001258C, symSize: 0x3C }
  - { offsetInCU: 0x1A973, offset: 0x5920B, size: 0x8, addend: 0x0, symName: __ZN10HoldEmGame6PlayerC2ERK7CardSetI10HoldEmRank4SuitERKNSt3__112basic_stringIcNS7_11char_traitsIcEENS7_9allocatorIcEEEE14HoldEmHandRank, symObjAddr: 0x32C, symBinAddr: 0x1000125C8, symSize: 0x7C }
  - { offsetInCU: 0x1A9C8, offset: 0x59260, size: 0x8, addend: 0x0, symName: __ZN7CardSetI10HoldEmRank4SuitEC1ERKS2_, symObjAddr: 0x3A8, symBinAddr: 0x100012644, symSize: 0x34 }
  - { offsetInCU: 0x1A9FC, offset: 0x59294, size: 0x8, addend: 0x0, symName: __ZN10HoldEmGame6PlayerC1ERK7CardSetI10HoldEmRank4SuitERKNSt3__112basic_stringIcNS7_11char_traitsIcEENS7_9allocatorIcEEEE14HoldEmHandRank, symObjAddr: 0x3DC, symBinAddr: 0x100012678, symSize: 0x44 }
  - { offsetInCU: 0x1AA51, offset: 0x592E9, size: 0x8, addend: 0x0, symName: __ZN10HoldEmGame4dealEv, symObjAddr: 0x420, symBinAddr: 0x1000126BC, symSize: 0x1B8 }
  - { offsetInCU: 0x1AAD2, offset: 0x5936A, size: 0x8, addend: 0x0, symName: __ZNKSt3__16vectorI7CardSetI10HoldEmRank4SuitENS_9allocatorIS4_EEE4sizeB8ue170006Ev, symObjAddr: 0x5EC, symBinAddr: 0x100012888, symSize: 0x28 }
  - { offsetInCU: 0x1AAF6, offset: 0x5938E, size: 0x8, addend: 0x0, symName: __ZN7CardSetI10HoldEmRank4SuitErsERS2_, symObjAddr: 0x614, symBinAddr: 0x1000128B0, symSize: 0xC0 }
  - { offsetInCU: 0x1AB3A, offset: 0x593D2, size: 0x8, addend: 0x0, symName: __ZNSt3__16vectorI7CardSetI10HoldEmRank4SuitENS_9allocatorIS4_EEEixB8ue170006Em, symObjAddr: 0x6D4, symBinAddr: 0x100012970, symSize: 0x24 }
  - { offsetInCU: 0x1AB6F, offset: 0x59407, size: 0x8, addend: 0x0, symName: __ZN10HoldEmGame10printBoardEv, symObjAddr: 0x7C4, symBinAddr: 0x100012994, symSize: 0x34 }
  - { offsetInCU: 0x1AB96, offset: 0x5942E, size: 0x8, addend: 0x0, symName: __ZNK7CardSetI10HoldEmRank4SuitE5printERNSt3__113basic_ostreamIcNS3_11char_traitsIcEEEEm, symObjAddr: 0x7F8, symBinAddr: 0x1000129C8, symSize: 0x11C }
  - { offsetInCU: 0x1AC3C, offset: 0x594D4, size: 0x8, addend: 0x0, symName: __ZN10HoldEmGame16printPlayerHandsEv, symObjAddr: 0x914, symBinAddr: 0x100012AE4, symSize: 0xB4 }
  - { offsetInCU: 0x1AC81, offset: 0x59519, size: 0x8, addend: 0x0, symName: __ZN10HoldEmGame12collectCardsEv, symObjAddr: 0xA40, symBinAddr: 0x100012B98, symSize: 0xA4 }
  - { offsetInCU: 0x1ACC6, offset: 0x5955E, size: 0x8, addend: 0x0, symName: __ZN4DeckI10HoldEmRank4SuitE7collectER7CardSetIS0_S1_E, symObjAddr: 0xAE4, symBinAddr: 0x100012C3C, symSize: 0x4C }
  - { offsetInCU: 0x1ACFB, offset: 0x59593, size: 0x8, addend: 0x0, symName: __ZN10HoldEmGame20holdEmHandEvaluationERK7CardSetI10HoldEmRank4SuitE, symObjAddr: 0xB30, symBinAddr: 0x100012C88, symSize: 0x540 }
  - { offsetInCU: 0x1AEEB, offset: 0x59783, size: 0x8, addend: 0x0, symName: __ZN7CardSetI10HoldEmRank4SuitE8getCardsERS2_, symObjAddr: 0x1070, symBinAddr: 0x1000131C8, symSize: 0x18 }
  - { offsetInCU: 0x1AF10, offset: 0x597A8, size: 0x8, addend: 0x0, symName: __ZNSt3__16vectorI4CardI10HoldEmRank4SuitENS_9allocatorIS4_EEE5beginB8ue170006Ev, symObjAddr: 0x10F0, symBinAddr: 0x100013220, symSize: 0x30 }
  - { offsetInCU: 0x1AF36, offset: 0x597CE, size: 0x8, addend: 0x0, symName: __ZNSt3__16vectorI4CardI10HoldEmRank4SuitENS_9allocatorIS4_EEE3endB8ue170006Ev, symObjAddr: 0x1120, symBinAddr: 0x100013250, symSize: 0x30 }
  - { offsetInCU: 0x1AF5C, offset: 0x597F4, size: 0x8, addend: 0x0, symName: __ZNSt3__16vectorI4CardI10HoldEmRank4SuitENS_9allocatorIS4_EEEixB8ue170006Em, symObjAddr: 0x11E8, symBinAddr: 0x100013318, symSize: 0x24 }
  - { offsetInCU: 0x1B036, offset: 0x598CE, size: 0x8, addend: 0x0, symName: __ZNSt3__113unordered_mapI10HoldEmRankiNS_4hashIS1_EENS_8equal_toIS1_EENS_9allocatorINS_4pairIKS1_iEEEEEC1B8ue170006Ev, symObjAddr: 0x120C, symBinAddr: 0x10001333C, symSize: 0x2C }
  - { offsetInCU: 0x1B05E, offset: 0x598F6, size: 0x8, addend: 0x0, symName: __ZNKSt3__111__wrap_iterIP4CardI10HoldEmRank4SuitEEdeB8ue170006Ev, symObjAddr: 0x126C, symBinAddr: 0x10001339C, symSize: 0x18 }
  - { offsetInCU: 0x1B082, offset: 0x5991A, size: 0x8, addend: 0x0, symName: __ZNSt3__113unordered_mapI10HoldEmRankiNS_4hashIS1_EENS_8equal_toIS1_EENS_9allocatorINS_4pairIKS1_iEEEEEixERS8_, symObjAddr: 0x1284, symBinAddr: 0x1000133B4, symSize: 0x80 }
  - { offsetInCU: 0x1B0B7, offset: 0x5994F, size: 0x8, addend: 0x0, symName: __ZNSt3__111__wrap_iterIP4CardI10HoldEmRank4SuitEEppB8ue170006Ev, symObjAddr: 0x1304, symBinAddr: 0x100013434, symSize: 0x20 }
  - { offsetInCU: 0x1B0DB, offset: 0x59973, size: 0x8, addend: 0x0, symName: __ZNSt3__113unordered_mapI10HoldEmRankiNS_4hashIS1_EENS_8equal_toIS1_EENS_9allocatorINS_4pairIKS1_iEEEEE5beginB8ue170006Ev, symObjAddr: 0x1324, symBinAddr: 0x100013454, symSize: 0x38 }
  - { offsetInCU: 0x1B0FF, offset: 0x59997, size: 0x8, addend: 0x0, symName: __ZNSt3__113unordered_mapI10HoldEmRankiNS_4hashIS1_EENS_8equal_toIS1_EENS_9allocatorINS_4pairIKS1_iEEEEE3endB8ue170006Ev, symObjAddr: 0x135C, symBinAddr: 0x10001348C, symSize: 0x38 }
  - { offsetInCU: 0x1B123, offset: 0x599BB, size: 0x8, addend: 0x0, symName: __ZNKSt3__119__hash_map_iteratorINS_15__hash_iteratorIPNS_11__hash_nodeINS_17__hash_value_typeI10HoldEmRankiEEPvEEEEEdeB8ue170006Ev, symObjAddr: 0x13C4, symBinAddr: 0x1000134F4, symSize: 0x28 }
  - { offsetInCU: 0x1B147, offset: 0x599DF, size: 0x8, addend: 0x0, symName: __ZNSt3__119__hash_map_iteratorINS_15__hash_iteratorIPNS_11__hash_nodeINS_17__hash_value_typeI10HoldEmRankiEEPvEEEEEppB8ue170006Ev, symObjAddr: 0x1434, symBinAddr: 0x100013564, symSize: 0x2C }
  - { offsetInCU: 0x1B16B, offset: 0x59A03, size: 0x8, addend: 0x0, symName: __ZNSt3__113unordered_mapI10HoldEmRankiNS_4hashIS1_EENS_8equal_toIS1_EENS_9allocatorINS_4pairIKS1_iEEEEED1B8ue170006Ev, symObjAddr: 0x1460, symBinAddr: 0x100013590, symSize: 0x2C }
  - { offsetInCU: 0x1B193, offset: 0x59A2B, size: 0x8, addend: 0x0, symName: __ZN10HoldEmGame4playEv, symObjAddr: 0x148C, symBinAddr: 0x1000135BC, symSize: 0x41C }
  - { offsetInCU: 0x1B2C5, offset: 0x59B5D, size: 0x8, addend: 0x0, symName: __ZN4DeckI10HoldEmRank4SuitE7shuffleEv, symObjAddr: 0x18D4, symBinAddr: 0x1000139D8, symSize: 0xB4 }
  - { offsetInCU: 0x1B30A, offset: 0x59BA2, size: 0x8, addend: 0x0, symName: __ZNSt3__16vectorIN10HoldEmGame6PlayerENS_9allocatorIS2_EEEC1B8ue170006Ev, symObjAddr: 0x1988, symBinAddr: 0x100013A8C, symSize: 0x2C }
  - { offsetInCU: 0x1B337, offset: 0x59BCF, size: 0x8, addend: 0x0, symName: __ZNSt3__16vectorIN10HoldEmGame6PlayerENS_9allocatorIS2_EEE12emplace_backIJR7CardSetI10HoldEmRank4SuitERNS_12basic_stringIcNS_11char_traitsIcEENS3_IcEEEE14HoldEmHandRankEEERS2_DpOT_, symObjAddr: 0x19B4, symBinAddr: 0x100013AB8, symSize: 0x8C }
  - { offsetInCU: 0x1B39F, offset: 0x59C37, size: 0x8, addend: 0x0, symName: __ZNSt3__16vectorIN10HoldEmGame6PlayerENS_9allocatorIS2_EEE5beginB8ue170006Ev, symObjAddr: 0x1A40, symBinAddr: 0x100013B44, symSize: 0x30 }
  - { offsetInCU: 0x1B3C5, offset: 0x59C5D, size: 0x8, addend: 0x0, symName: __ZNSt3__16vectorIN10HoldEmGame6PlayerENS_9allocatorIS2_EEE3endB8ue170006Ev, symObjAddr: 0x1A70, symBinAddr: 0x100013B74, symSize: 0x30 }
  - { offsetInCU: 0x1B3EB, offset: 0x59C83, size: 0x8, addend: 0x0, symName: __ZNKSt3__111__wrap_iterIPN10HoldEmGame6PlayerEEdeB8ue170006Ev, symObjAddr: 0x1AD4, symBinAddr: 0x100013BD8, symSize: 0x18 }
  - { offsetInCU: 0x1B40F, offset: 0x59CA7, size: 0x8, addend: 0x0, symName: __ZNSt3__111__wrap_iterIPN10HoldEmGame6PlayerEEppB8ue170006Ev, symObjAddr: 0x1AEC, symBinAddr: 0x100013BF0, symSize: 0x20 }
  - { offsetInCU: 0x1B433, offset: 0x59CCB, size: 0x8, addend: 0x0, symName: __ZNKSt3__16vectorIN10HoldEmGame6PlayerENS_9allocatorIS2_EEE4sizeB8ue170006Ev, symObjAddr: 0x1B4C, symBinAddr: 0x100013C50, symSize: 0x28 }
  - { offsetInCU: 0x1B457, offset: 0x59CEF, size: 0x8, addend: 0x0, symName: __ZNSt3__16vectorIN10HoldEmGame6PlayerENS_9allocatorIS2_EEEixB8ue170006Em, symObjAddr: 0x1B74, symBinAddr: 0x100013C78, symSize: 0x24 }
  - { offsetInCU: 0x1B48C, offset: 0x59D24, size: 0x8, addend: 0x0, symName: __ZNSt3__16vectorIN10HoldEmGame6PlayerENS_9allocatorIS2_EEED1B8ue170006Ev, symObjAddr: 0x1E38, symBinAddr: 0x100013F3C, symSize: 0x2C }
  - { offsetInCU: 0x1B4B9, offset: 0x59D51, size: 0x8, addend: 0x0, symName: __ZNSt3__15arrayINS_12basic_stringIcNS_11char_traitsIcEENS_9allocatorIcEEEELm10EED1Ev, symObjAddr: 0x1E98, symBinAddr: 0x100013F68, symSize: 0x2C }
  - { offsetInCU: 0x1B4E4, offset: 0x59D7C, size: 0x8, addend: 0x0, symName: __ZNKSt3__15arrayINS_12basic_stringIcNS_11char_traitsIcEENS_9allocatorIcEEEELm10EEixB8ue170006Em, symObjAddr: 0x1EC4, symBinAddr: 0x100013F94, symSize: 0x28 }
  - { offsetInCU: 0x1B515, offset: 0x59DAD, size: 0x8, addend: 0x0, symName: __ZltRKN10HoldEmGame6PlayerES2_, symObjAddr: 0x1EEC, symBinAddr: 0x100013FBC, symSize: 0x658 }
  - { offsetInCU: 0x1B740, offset: 0x59FD8, size: 0x8, addend: 0x0, symName: __ZN10HoldEmGame11getPairRankERK7CardSetI10HoldEmRank4SuitE, symObjAddr: 0x2568, symBinAddr: 0x100014638, symSize: 0x1F4 }
  - { offsetInCU: 0x1B85E, offset: 0x5A0F6, size: 0x8, addend: 0x0, symName: __ZN10HoldEmGame10getKickersERK7CardSetI10HoldEmRank4SuitE, symObjAddr: 0x275C, symBinAddr: 0x10001482C, symSize: 0x270 }
  - { offsetInCU: 0x1B985, offset: 0x5A21D, size: 0x8, addend: 0x0, symName: __ZNKSt3__16vectorI10HoldEmRankNS_9allocatorIS1_EEE4sizeB8ue170006Ev, symObjAddr: 0x29F8, symBinAddr: 0x100014A9C, symSize: 0x28 }
  - { offsetInCU: 0x1B9A9, offset: 0x5A241, size: 0x8, addend: 0x0, symName: __ZNSt3__16vectorI10HoldEmRankNS_9allocatorIS1_EEEixB8ue170006Em, symObjAddr: 0x2A20, symBinAddr: 0x100014AC4, symSize: 0x24 }
  - { offsetInCU: 0x1B9DE, offset: 0x5A276, size: 0x8, addend: 0x0, symName: __ZNSt3__16vectorI10HoldEmRankNS_9allocatorIS1_EEED1B8ue170006Ev, symObjAddr: 0x2A44, symBinAddr: 0x100014AE8, symSize: 0x2C }
  - { offsetInCU: 0x1BA06, offset: 0x5A29E, size: 0x8, addend: 0x0, symName: __ZN10HoldEmGame17getHigherPairRankERK7CardSetI10HoldEmRank4SuitE, symObjAddr: 0x2A70, symBinAddr: 0x100014B14, symSize: 0x210 }
  - { offsetInCU: 0x1BB33, offset: 0x5A3CB, size: 0x8, addend: 0x0, symName: __ZN10HoldEmGame16getLowerPairRankERK7CardSetI10HoldEmRank4SuitE, symObjAddr: 0x2C80, symBinAddr: 0x100014D24, symSize: 0x210 }
  - { offsetInCU: 0x1BC60, offset: 0x5A4F8, size: 0x8, addend: 0x0, symName: __ZN10HoldEmGame19getThreeOfAKindRankERK7CardSetI10HoldEmRank4SuitE, symObjAddr: 0x2E90, symBinAddr: 0x100014F34, symSize: 0x1F4 }
  - { offsetInCU: 0x1BD7E, offset: 0x5A616, size: 0x8, addend: 0x0, symName: __ZN10HoldEmGame14getHighestCardERK7CardSetI10HoldEmRank4SuitE, symObjAddr: 0x3084, symBinAddr: 0x100015128, symSize: 0x100 }
  - { offsetInCU: 0x1BE1E, offset: 0x5A6B6, size: 0x8, addend: 0x0, symName: __ZN10HoldEmGame14getSortedRanksERK7CardSetI10HoldEmRank4SuitE, symObjAddr: 0x3184, symBinAddr: 0x100015228, symSize: 0x168 }
  - { offsetInCU: 0x1BEB8, offset: 0x5A750, size: 0x8, addend: 0x0, symName: __ZN10HoldEmGame18getFourOfAKindRankERK7CardSetI10HoldEmRank4SuitE, symObjAddr: 0x32EC, symBinAddr: 0x100015390, symSize: 0x1F4 }
  - { offsetInCU: 0x1BFD6, offset: 0x5A86E, size: 0x8, addend: 0x0, symName: __ZNSt3__16vectorI10HoldEmRankNS_9allocatorIS1_EEEC1B8ue170006Ev, symObjAddr: 0x34E0, symBinAddr: 0x100015584, symSize: 0x2C }
  - { offsetInCU: 0x1BFFE, offset: 0x5A896, size: 0x8, addend: 0x0, symName: __ZNSt3__16vectorI10HoldEmRankNS_9allocatorIS1_EEE9push_backB8ue170006ERKS1_, symObjAddr: 0x350C, symBinAddr: 0x1000155B0, symSize: 0x6C }
  - { offsetInCU: 0x1C033, offset: 0x5A8CB, size: 0x8, addend: 0x0, symName: __ZNSt3__16vectorI10HoldEmRankNS_9allocatorIS1_EEE6rbeginB8ue170006Ev, symObjAddr: 0x35C4, symBinAddr: 0x100015668, symSize: 0x44 }
  - { offsetInCU: 0x1C057, offset: 0x5A8EF, size: 0x8, addend: 0x0, symName: __ZNSt3__16vectorI10HoldEmRankNS_9allocatorIS1_EEE4rendB8ue170006Ev, symObjAddr: 0x3608, symBinAddr: 0x1000156AC, symSize: 0x44 }
  - { offsetInCU: 0x1C07B, offset: 0x5A913, size: 0x8, addend: 0x0, symName: __ZNSt3__16vectorI10HoldEmRankNS_9allocatorIS1_EEE5beginB8ue170006Ev, symObjAddr: 0x368C, symBinAddr: 0x100015730, symSize: 0x30 }
  - { offsetInCU: 0x1C0A1, offset: 0x5A939, size: 0x8, addend: 0x0, symName: __ZNSt3__16vectorI10HoldEmRankNS_9allocatorIS1_EEE3endB8ue170006Ev, symObjAddr: 0x36BC, symBinAddr: 0x100015760, symSize: 0x30 }
  - { offsetInCU: 0x1C0C7, offset: 0x5A95F, size: 0x8, addend: 0x0, symName: __ZN10HoldEmGameD1Ev, symObjAddr: 0x36EC, symBinAddr: 0x100015790, symSize: 0x2C }
  - { offsetInCU: 0x1C0EF, offset: 0x5A987, size: 0x8, addend: 0x0, symName: __ZN10HoldEmGameD0Ev, symObjAddr: 0x3718, symBinAddr: 0x1000157BC, symSize: 0x30 }
  - { offsetInCU: 0x1C121, offset: 0x5A9B9, size: 0x8, addend: 0x0, symName: __ZN7CardSetI10HoldEmRank4SuitEC2ERKS2_, symObjAddr: 0x44F4, symBinAddr: 0x1000157EC, symSize: 0x4C }
  - { offsetInCU: 0x1C155, offset: 0x5A9ED, size: 0x8, addend: 0x0, symName: __ZNSt3__16vectorI4CardI10HoldEmRank4SuitENS_9allocatorIS4_EEEC1ERKS7_, symObjAddr: 0x4540, symBinAddr: 0x100015838, symSize: 0x34 }
  - { offsetInCU: 0x1C18F, offset: 0x5AA27, size: 0x8, addend: 0x0, symName: __ZNSt3__16vectorI4CardI10HoldEmRank4SuitENS_9allocatorIS4_EEEC2ERKS7_, symObjAddr: 0x4574, symBinAddr: 0x10001586C, symSize: 0x94 }
  - { offsetInCU: 0x1C1D3, offset: 0x5AA6B, size: 0x8, addend: 0x0, symName: __ZNSt3__116allocator_traitsINS_9allocatorI4CardI10HoldEmRank4SuitEEEE37select_on_container_copy_constructionB8ue170006IS6_vvEES6_RKS6_, symObjAddr: 0x4608, symBinAddr: 0x100015900, symSize: 0x10 }
  - { offsetInCU: 0x1C206, offset: 0x5AA9E, size: 0x8, addend: 0x0, symName: __ZNSt3__117__compressed_pairIP4CardI10HoldEmRank4SuitENS_9allocatorIS4_EEEC1B8ue170006IDnS7_EEOT_OT0_, symObjAddr: 0x4640, symBinAddr: 0x100015910, symSize: 0x3C }
  - { offsetInCU: 0x1C25C, offset: 0x5AAF4, size: 0x8, addend: 0x0, symName: __ZNSt3__16vectorI4CardI10HoldEmRank4SuitENS_9allocatorIS4_EEE16__init_with_sizeB8ue170006IPS4_S9_EEvT_T0_m, symObjAddr: 0x467C, symBinAddr: 0x10001594C, symSize: 0xB8 }
  - { offsetInCU: 0x1C2CE, offset: 0x5AB66, size: 0x8, addend: 0x0, symName: __ZNSt3__117__compressed_pairIP4CardI10HoldEmRank4SuitENS_9allocatorIS4_EEEC2B8ue170006IDnS7_EEOT_OT0_, symObjAddr: 0x476C, symBinAddr: 0x100015A04, symSize: 0x44 }
  - { offsetInCU: 0x1C324, offset: 0x5ABBC, size: 0x8, addend: 0x0, symName: __ZNSt3__122__compressed_pair_elemINS_9allocatorI4CardI10HoldEmRank4SuitEEELi1ELb1EEC2B8ue170006IS6_vEEOT_, symObjAddr: 0x47B0, symBinAddr: 0x100015A48, symSize: 0x18 }
  - { offsetInCU: 0x1C364, offset: 0x5ABFC, size: 0x8, addend: 0x0, symName: __ZNSt3__16vectorI4CardI10HoldEmRank4SuitENS_9allocatorIS4_EEE11__vallocateB8ue170006Em, symObjAddr: 0x4808, symBinAddr: 0x100015AA0, symSize: 0xAC }
  - { offsetInCU: 0x1C3A6, offset: 0x5AC3E, size: 0x8, addend: 0x0, symName: __ZNSt3__16vectorI4CardI10HoldEmRank4SuitENS_9allocatorIS4_EEE18__construct_at_endIPS4_S9_EEvT_T0_m, symObjAddr: 0x48B4, symBinAddr: 0x100015B4C, symSize: 0x8C }
  - { offsetInCU: 0x1C41A, offset: 0x5ACB2, size: 0x8, addend: 0x0, symName: __ZNSt3__128__exception_guard_exceptionsINS_6vectorI4CardI10HoldEmRank4SuitENS_9allocatorIS5_EEE16__destroy_vectorEE10__completeB8ue170006Ev, symObjAddr: 0x4940, symBinAddr: 0x100015BD8, symSize: 0x1C }
  - { offsetInCU: 0x1C43E, offset: 0x5ACD6, size: 0x8, addend: 0x0, symName: __ZNSt3__128__exception_guard_exceptionsINS_6vectorI4CardI10HoldEmRank4SuitENS_9allocatorIS5_EEE16__destroy_vectorEED1B8ue170006Ev, symObjAddr: 0x495C, symBinAddr: 0x100015BF4, symSize: 0x2C }
  - { offsetInCU: 0x1C466, offset: 0x5ACFE, size: 0x8, addend: 0x0, symName: __ZNSt3__128__exception_guard_exceptionsINS_6vectorI4CardI10HoldEmRank4SuitENS_9allocatorIS5_EEE16__destroy_vectorEEC1B8ue170006ES9_, symObjAddr: 0x4988, symBinAddr: 0x100015C20, symSize: 0x34 }
  - { offsetInCU: 0x1C49C, offset: 0x5AD34, size: 0x8, addend: 0x0, symName: __ZNSt3__128__exception_guard_exceptionsINS_6vectorI4CardI10HoldEmRank4SuitENS_9allocatorIS5_EEE16__destroy_vectorEEC2B8ue170006ES9_, symObjAddr: 0x49BC, symBinAddr: 0x100015C54, symSize: 0x24 }
  - { offsetInCU: 0x1C509, offset: 0x5ADA1, size: 0x8, addend: 0x0, symName: __ZNSt3__14pairIP4CardI10HoldEmRank4SuitES5_EC1B8ue170006IS5_S5_LPv0EEEOT_OT0_, symObjAddr: 0x5078, symBinAddr: 0x100015E28, symSize: 0x3C }
  - { offsetInCU: 0x1C566, offset: 0x5ADFE, size: 0x8, addend: 0x0, symName: __ZNSt3__14pairIP4CardI10HoldEmRank4SuitES5_EC2B8ue170006IS5_S5_LPv0EEEOT_OT0_, symObjAddr: 0x50B4, symBinAddr: 0x100015E64, symSize: 0x34 }
  - { offsetInCU: 0x1C5CD, offset: 0x5AE65, size: 0x8, addend: 0x0, symName: __ZNKSt3__114__copy_trivialclB8ue170006I4CardI10HoldEmRank4SuitES5_Li0EEENS_4pairIPT_PT0_EES8_S8_SA_, symObjAddr: 0x5264, symBinAddr: 0x100016014, symSize: 0x48 }
  - { offsetInCU: 0x1C634, offset: 0x5AECC, size: 0x8, addend: 0x0, symName: __ZNSt3__14pairIP4CardI10HoldEmRank4SuitES5_EC1B8ue170006IRS5_S5_LPv0EEEOT_OT0_, symObjAddr: 0x53F4, symBinAddr: 0x1000161A4, symSize: 0x3C }
  - { offsetInCU: 0x1C691, offset: 0x5AF29, size: 0x8, addend: 0x0, symName: __ZNSt3__14pairIP4CardI10HoldEmRank4SuitES5_EC2B8ue170006IRS5_S5_LPv0EEEOT_OT0_, symObjAddr: 0x5430, symBinAddr: 0x1000161E0, symSize: 0x34 }
  - { offsetInCU: 0x1C6EE, offset: 0x5AF86, size: 0x8, addend: 0x0, symName: __ZNSt3__118__unwrap_iter_implIP4CardI10HoldEmRank4SuitELb1EE8__unwrapB8ue170006ES5_, symObjAddr: 0x5464, symBinAddr: 0x100016214, symSize: 0x24 }
  - { offsetInCU: 0x1C711, offset: 0x5AFA9, size: 0x8, addend: 0x0, symName: __ZNSt3__118__unwrap_iter_implIP4CardI10HoldEmRank4SuitELb1EE8__rewrapB8ue170006ES5_S5_, symObjAddr: 0x5488, symBinAddr: 0x100016238, symSize: 0x50 }
  - { offsetInCU: 0x1C742, offset: 0x5AFDA, size: 0x8, addend: 0x0, symName: __ZNSt3__128__exception_guard_exceptionsINS_6vectorI4CardI10HoldEmRank4SuitENS_9allocatorIS5_EEE16__destroy_vectorEED2B8ue170006Ev, symObjAddr: 0x54F8, symBinAddr: 0x100016288, symSize: 0x48 }
  - { offsetInCU: 0x1C76A, offset: 0x5B002, size: 0x8, addend: 0x0, symName: __ZNKSt3__111__wrap_iterIP4CardI10HoldEmRank4SuitEE4baseB8ue170006Ev, symObjAddr: 0x5588, symBinAddr: 0x100016318, symSize: 0x18 }
  - { offsetInCU: 0x1C78E, offset: 0x5B026, size: 0x8, addend: 0x0, symName: __ZNSt3__110__get_pairILm0EE3getB8ue170006IK10HoldEmRankiEERKT_RKNS_4pairIS5_T0_EE, symObjAddr: 0x55A0, symBinAddr: 0x100016330, symSize: 0x14 }
  - { offsetInCU: 0x1C7C8, offset: 0x5B060, size: 0x8, addend: 0x0, symName: __ZNSt3__110__get_pairILm1EE3getB8ue170006IK10HoldEmRankiEERKT0_RKNS_4pairIT_S5_EE, symObjAddr: 0x55B4, symBinAddr: 0x100016344, symSize: 0x18 }
  - { offsetInCU: 0x1C7FD, offset: 0x5B095, size: 0x8, addend: 0x0, symName: __ZNKSt3__111__wrap_iterIPN10HoldEmGame6PlayerEE4baseB8ue170006Ev, symObjAddr: 0x5614, symBinAddr: 0x1000163A4, symSize: 0x18 }
  - { offsetInCU: 0x1C821, offset: 0x5B0B9, size: 0x8, addend: 0x0, symName: __ZNSt3__15arrayINS_12basic_stringIcNS_11char_traitsIcEENS_9allocatorIcEEEELm10EED2Ev, symObjAddr: 0x562C, symBinAddr: 0x1000163BC, symSize: 0x64 }
  - { offsetInCU: 0x1C856, offset: 0x5B0EE, size: 0x8, addend: 0x0, symName: __ZN10HoldEmGameD2Ev, symObjAddr: 0x5718, symBinAddr: 0x100016420, symSize: 0x60 }
  - { offsetInCU: 0x1C87E, offset: 0x5B116, size: 0x8, addend: 0x0, symName: __ZNSt3__16vectorI7CardSetI10HoldEmRank4SuitENS_9allocatorIS4_EEEC2B8ue170006Ev, symObjAddr: 0x5920, symBinAddr: 0x100016480, symSize: 0x4C }
  - { offsetInCU: 0x1C8A6, offset: 0x5B13E, size: 0x8, addend: 0x0, symName: __ZNSt3__117__compressed_pairIP7CardSetI10HoldEmRank4SuitENS_9allocatorIS4_EEEC1B8ue170006IDnNS_18__default_init_tagEEEOT_OT0_, symObjAddr: 0x596C, symBinAddr: 0x1000164CC, symSize: 0x3C }
  - { offsetInCU: 0x1C8FC, offset: 0x5B194, size: 0x8, addend: 0x0, symName: __ZNSt3__117__compressed_pairIP7CardSetI10HoldEmRank4SuitENS_9allocatorIS4_EEEC2B8ue170006IDnNS_18__default_init_tagEEEOT_OT0_, symObjAddr: 0x59A8, symBinAddr: 0x100016508, symSize: 0x40 }
  - { offsetInCU: 0x1C952, offset: 0x5B1EA, size: 0x8, addend: 0x0, symName: __ZNSt3__122__compressed_pair_elemIP7CardSetI10HoldEmRank4SuitELi0ELb0EEC2B8ue170006IDnvEEOT_, symObjAddr: 0x59E8, symBinAddr: 0x100016548, symSize: 0x1C }
  - { offsetInCU: 0x1C992, offset: 0x5B22A, size: 0x8, addend: 0x0, symName: __ZNSt3__122__compressed_pair_elemINS_9allocatorI7CardSetI10HoldEmRank4SuitEEELi1ELb1EEC2B8ue170006ENS_18__default_init_tagE, symObjAddr: 0x5A04, symBinAddr: 0x100016564, symSize: 0x2C }
  - { offsetInCU: 0x1C9C4, offset: 0x5B25C, size: 0x8, addend: 0x0, symName: __ZNSt3__19allocatorI7CardSetI10HoldEmRank4SuitEEC2B8ue170006Ev, symObjAddr: 0x5A30, symBinAddr: 0x100016590, symSize: 0x2C }
  - { offsetInCU: 0x1C9EC, offset: 0x5B284, size: 0x8, addend: 0x0, symName: __ZNSt3__116__non_trivial_ifILb1ENS_9allocatorI7CardSetI10HoldEmRank4SuitEEEEC2B8ue170006Ev, symObjAddr: 0x5A5C, symBinAddr: 0x1000165BC, symSize: 0x14 }
  - { offsetInCU: 0x1CA14, offset: 0x5B2AC, size: 0x8, addend: 0x0, symName: __ZNSt3__16vectorI7CardSetI10HoldEmRank4SuitENS_9allocatorIS4_EEED2B8ue170006Ev, symObjAddr: 0x5A70, symBinAddr: 0x1000165D0, symSize: 0x44 }
  - { offsetInCU: 0x1CA3C, offset: 0x5B2D4, size: 0x8, addend: 0x0, symName: __ZNSt3__16vectorI7CardSetI10HoldEmRank4SuitENS_9allocatorIS4_EEE16__destroy_vectorC1B8ue170006ERS7_, symObjAddr: 0x5AB4, symBinAddr: 0x100016614, symSize: 0x34 }
  - { offsetInCU: 0x1CA73, offset: 0x5B30B, size: 0x8, addend: 0x0, symName: __ZNSt3__16vectorI7CardSetI10HoldEmRank4SuitENS_9allocatorIS4_EEE16__destroy_vectorclB8ue170006Ev, symObjAddr: 0x5AE8, symBinAddr: 0x100016648, symSize: 0x90 }
  - { offsetInCU: 0x1CA97, offset: 0x5B32F, size: 0x8, addend: 0x0, symName: __ZNSt3__16vectorI7CardSetI10HoldEmRank4SuitENS_9allocatorIS4_EEE16__destroy_vectorC2B8ue170006ERS7_, symObjAddr: 0x5B78, symBinAddr: 0x1000166D8, symSize: 0x20 }
  - { offsetInCU: 0x1CACE, offset: 0x5B366, size: 0x8, addend: 0x0, symName: __ZNSt3__16vectorI7CardSetI10HoldEmRank4SuitENS_9allocatorIS4_EEE7__clearB8ue170006Ev, symObjAddr: 0x5B98, symBinAddr: 0x1000166F8, symSize: 0x28 }
  - { offsetInCU: 0x1CAF2, offset: 0x5B38A, size: 0x8, addend: 0x0, symName: __ZNKSt3__16vectorI7CardSetI10HoldEmRank4SuitENS_9allocatorIS4_EEE17__annotate_deleteB8ue170006Ev, symObjAddr: 0x5BC0, symBinAddr: 0x100016720, symSize: 0xB8 }
  - { offsetInCU: 0x1CB16, offset: 0x5B3AE, size: 0x8, addend: 0x0, symName: __ZNSt3__116allocator_traitsINS_9allocatorI7CardSetI10HoldEmRank4SuitEEEE10deallocateB8ue170006ERS6_PS5_m, symObjAddr: 0x5C78, symBinAddr: 0x1000167D8, symSize: 0x34 }
  - { offsetInCU: 0x1CB58, offset: 0x5B3F0, size: 0x8, addend: 0x0, symName: __ZNSt3__16vectorI7CardSetI10HoldEmRank4SuitENS_9allocatorIS4_EEE7__allocB8ue170006Ev, symObjAddr: 0x5CAC, symBinAddr: 0x10001680C, symSize: 0x28 }
  - { offsetInCU: 0x1CB7C, offset: 0x5B414, size: 0x8, addend: 0x0, symName: __ZNKSt3__16vectorI7CardSetI10HoldEmRank4SuitENS_9allocatorIS4_EEE8capacityB8ue170006Ev, symObjAddr: 0x5CD4, symBinAddr: 0x100016834, symSize: 0x40 }
  - { offsetInCU: 0x1CBA0, offset: 0x5B438, size: 0x8, addend: 0x0, symName: __ZNSt3__16vectorI7CardSetI10HoldEmRank4SuitENS_9allocatorIS4_EEE22__base_destruct_at_endB8ue170006EPS4_, symObjAddr: 0x5D14, symBinAddr: 0x100016874, symSize: 0x8C }
  - { offsetInCU: 0x1CBE2, offset: 0x5B47A, size: 0x8, addend: 0x0, symName: __ZNSt3__116allocator_traitsINS_9allocatorI7CardSetI10HoldEmRank4SuitEEEE7destroyB8ue170006IS5_vEEvRS6_PT_, symObjAddr: 0x5DA0, symBinAddr: 0x100016900, symSize: 0x2C }
  - { offsetInCU: 0x1CC1F, offset: 0x5B4B7, size: 0x8, addend: 0x0, symName: __ZNSt3__19allocatorI7CardSetI10HoldEmRank4SuitEE7destroyB8ue170006EPS4_, symObjAddr: 0x5DE0, symBinAddr: 0x100016940, symSize: 0x30 }
  - { offsetInCU: 0x1CC51, offset: 0x5B4E9, size: 0x8, addend: 0x0, symName: __ZNKSt3__16vectorI7CardSetI10HoldEmRank4SuitENS_9allocatorIS4_EEE31__annotate_contiguous_containerB8ue170006EPKvS9_S9_S9_, symObjAddr: 0x5E10, symBinAddr: 0x100016970, symSize: 0x20 }
  - { offsetInCU: 0x1CCA5, offset: 0x5B53D, size: 0x8, addend: 0x0, symName: __ZNKSt3__16vectorI7CardSetI10HoldEmRank4SuitENS_9allocatorIS4_EEE4dataB8ue170006Ev, symObjAddr: 0x5E30, symBinAddr: 0x100016990, symSize: 0x28 }
  - { offsetInCU: 0x1CCC9, offset: 0x5B561, size: 0x8, addend: 0x0, symName: __ZNSt3__19allocatorI7CardSetI10HoldEmRank4SuitEE10deallocateB8ue170006EPS4_m, symObjAddr: 0x5E58, symBinAddr: 0x1000169B8, symSize: 0x40 }
  - { offsetInCU: 0x1CD09, offset: 0x5B5A1, size: 0x8, addend: 0x0, symName: __ZNSt3__117__compressed_pairIP7CardSetI10HoldEmRank4SuitENS_9allocatorIS4_EEE6secondB8ue170006Ev, symObjAddr: 0x5E98, symBinAddr: 0x1000169F8, symSize: 0x24 }
  - { offsetInCU: 0x1CD2D, offset: 0x5B5C5, size: 0x8, addend: 0x0, symName: __ZNSt3__122__compressed_pair_elemINS_9allocatorI7CardSetI10HoldEmRank4SuitEEELi1ELb1EE5__getB8ue170006Ev, symObjAddr: 0x5EBC, symBinAddr: 0x100016A1C, symSize: 0x14 }
  - { offsetInCU: 0x1CD51, offset: 0x5B5E9, size: 0x8, addend: 0x0, symName: __ZNKSt3__16vectorI7CardSetI10HoldEmRank4SuitENS_9allocatorIS4_EEE9__end_capB8ue170006Ev, symObjAddr: 0x5ED0, symBinAddr: 0x100016A30, symSize: 0x28 }
  - { offsetInCU: 0x1CD75, offset: 0x5B60D, size: 0x8, addend: 0x0, symName: __ZNKSt3__117__compressed_pairIP7CardSetI10HoldEmRank4SuitENS_9allocatorIS4_EEE5firstB8ue170006Ev, symObjAddr: 0x5EF8, symBinAddr: 0x100016A58, symSize: 0x24 }
  - { offsetInCU: 0x1CD99, offset: 0x5B631, size: 0x8, addend: 0x0, symName: __ZNKSt3__122__compressed_pair_elemIP7CardSetI10HoldEmRank4SuitELi0ELb0EE5__getB8ue170006Ev, symObjAddr: 0x5F1C, symBinAddr: 0x100016A7C, symSize: 0x14 }
  - { offsetInCU: 0x1CDBD, offset: 0x5B655, size: 0x8, addend: 0x0, symName: __ZNSt3__16vectorI7CardSetI10HoldEmRank4SuitENS_9allocatorIS4_EEE9__end_capB8ue170006Ev, symObjAddr: 0x5F30, symBinAddr: 0x100016A90, symSize: 0x28 }
  - { offsetInCU: 0x1CDE1, offset: 0x5B679, size: 0x8, addend: 0x0, symName: __ZNSt3__16vectorI7CardSetI10HoldEmRank4SuitENS_9allocatorIS4_EEE22__construct_one_at_endB8ue170006IJEEEvDpOT_, symObjAddr: 0x5F58, symBinAddr: 0x100016AB8, symSize: 0x88 }
  - { offsetInCU: 0x1CE1A, offset: 0x5B6B2, size: 0x8, addend: 0x0, symName: __ZNSt3__16vectorI7CardSetI10HoldEmRank4SuitENS_9allocatorIS4_EEE24__emplace_back_slow_pathIJEEEvDpOT_, symObjAddr: 0x5FE0, symBinAddr: 0x100016B40, symSize: 0xD0 }
  - { offsetInCU: 0x1CE64, offset: 0x5B6FC, size: 0x8, addend: 0x0, symName: __ZNSt3__16vectorI7CardSetI10HoldEmRank4SuitENS_9allocatorIS4_EEE4backB8ue170006Ev, symObjAddr: 0x60B0, symBinAddr: 0x100016C10, symSize: 0x1C }
  - { offsetInCU: 0x1CE88, offset: 0x5B720, size: 0x8, addend: 0x0, symName: __ZNSt3__117__compressed_pairIP7CardSetI10HoldEmRank4SuitENS_9allocatorIS4_EEE5firstB8ue170006Ev, symObjAddr: 0x60CC, symBinAddr: 0x100016C2C, symSize: 0x24 }
  - { offsetInCU: 0x1CEAC, offset: 0x5B744, size: 0x8, addend: 0x0, symName: __ZNSt3__122__compressed_pair_elemIP7CardSetI10HoldEmRank4SuitELi0ELb0EE5__getB8ue170006Ev, symObjAddr: 0x60F0, symBinAddr: 0x100016C50, symSize: 0x14 }
  - { offsetInCU: 0x1CEE9, offset: 0x5B781, size: 0x8, addend: 0x0, symName: __ZNSt3__16vectorI7CardSetI10HoldEmRank4SuitENS_9allocatorIS4_EEE21_ConstructTransactionC1B8ue170006ERS7_m, symObjAddr: 0x6104, symBinAddr: 0x100016C64, symSize: 0x3C }
  - { offsetInCU: 0x1CF2F, offset: 0x5B7C7, size: 0x8, addend: 0x0, symName: __ZNSt3__116allocator_traitsINS_9allocatorI7CardSetI10HoldEmRank4SuitEEEE9constructB8ue170006IS5_JEvEEvRS6_PT_DpOT0_, symObjAddr: 0x6140, symBinAddr: 0x100016CA0, symSize: 0x2C }
  - { offsetInCU: 0x1CF72, offset: 0x5B80A, size: 0x8, addend: 0x0, symName: __ZNSt3__16vectorI7CardSetI10HoldEmRank4SuitENS_9allocatorIS4_EEE21_ConstructTransactionD1B8ue170006Ev, symObjAddr: 0x616C, symBinAddr: 0x100016CCC, symSize: 0x2C }
  - { offsetInCU: 0x1CF9A, offset: 0x5B832, size: 0x8, addend: 0x0, symName: __ZNSt3__16vectorI7CardSetI10HoldEmRank4SuitENS_9allocatorIS4_EEE21_ConstructTransactionC2B8ue170006ERS7_m, symObjAddr: 0x6198, symBinAddr: 0x100016CF8, symSize: 0x44 }
  - { offsetInCU: 0x1CFE0, offset: 0x5B878, size: 0x8, addend: 0x0, symName: __ZNSt3__19allocatorI7CardSetI10HoldEmRank4SuitEE9constructB8ue170006IS4_JEEEvPT_DpOT0_, symObjAddr: 0x61DC, symBinAddr: 0x100016D3C, symSize: 0x34 }
  - { offsetInCU: 0x1D021, offset: 0x5B8B9, size: 0x8, addend: 0x0, symName: __ZNSt3__16vectorI7CardSetI10HoldEmRank4SuitENS_9allocatorIS4_EEE21_ConstructTransactionD2B8ue170006Ev, symObjAddr: 0x6210, symBinAddr: 0x100016D70, symSize: 0x20 }
  - { offsetInCU: 0x1D049, offset: 0x5B8E1, size: 0x8, addend: 0x0, symName: __ZNKSt3__16vectorI7CardSetI10HoldEmRank4SuitENS_9allocatorIS4_EEE11__recommendB8ue170006Em, symObjAddr: 0x6230, symBinAddr: 0x100016D90, symSize: 0xB4 }
  - { offsetInCU: 0x1D09C, offset: 0x5B934, size: 0x8, addend: 0x0, symName: __ZNSt3__114__split_bufferI7CardSetI10HoldEmRank4SuitERNS_9allocatorIS4_EEEC1EmmS7_, symObjAddr: 0x62E4, symBinAddr: 0x100016E44, symSize: 0x44 }
  - { offsetInCU: 0x1D0F1, offset: 0x5B989, size: 0x8, addend: 0x0, symName: __ZNSt3__114__split_bufferI7CardSetI10HoldEmRank4SuitERNS_9allocatorIS4_EEED1Ev, symObjAddr: 0x6438, symBinAddr: 0x100016F98, symSize: 0x2C }
  - { offsetInCU: 0x1D11C, offset: 0x5B9B4, size: 0x8, addend: 0x0, symName: __ZNKSt3__16vectorI7CardSetI10HoldEmRank4SuitENS_9allocatorIS4_EEE8max_sizeEv, symObjAddr: 0x6464, symBinAddr: 0x100016FC4, symSize: 0x60 }
  - { offsetInCU: 0x1D142, offset: 0x5B9DA, size: 0x8, addend: 0x0, symName: __ZNKSt3__16vectorI7CardSetI10HoldEmRank4SuitENS_9allocatorIS4_EEE20__throw_length_errorB8ue170006Ev, symObjAddr: 0x64C4, symBinAddr: 0x100017024, symSize: 0x1C }
  - { offsetInCU: 0x1D170, offset: 0x5BA08, size: 0x8, addend: 0x0, symName: __ZNSt3__116allocator_traitsINS_9allocatorI7CardSetI10HoldEmRank4SuitEEEE8max_sizeB8ue170006IS6_vEEmRKS6_, symObjAddr: 0x650C, symBinAddr: 0x100017040, symSize: 0x24 }
  - { offsetInCU: 0x1D19E, offset: 0x5BA36, size: 0x8, addend: 0x0, symName: __ZNKSt3__16vectorI7CardSetI10HoldEmRank4SuitENS_9allocatorIS4_EEE7__allocB8ue170006Ev, symObjAddr: 0x6530, symBinAddr: 0x100017064, symSize: 0x28 }
  - { offsetInCU: 0x1D1C2, offset: 0x5BA5A, size: 0x8, addend: 0x0, symName: __ZNKSt3__19allocatorI7CardSetI10HoldEmRank4SuitEE8max_sizeB8ue170006Ev, symObjAddr: 0x6558, symBinAddr: 0x10001708C, symSize: 0x14 }
  - { offsetInCU: 0x1D1E6, offset: 0x5BA7E, size: 0x8, addend: 0x0, symName: __ZNKSt3__117__compressed_pairIP7CardSetI10HoldEmRank4SuitENS_9allocatorIS4_EEE6secondB8ue170006Ev, symObjAddr: 0x656C, symBinAddr: 0x1000170A0, symSize: 0x24 }
  - { offsetInCU: 0x1D20A, offset: 0x5BAA2, size: 0x8, addend: 0x0, symName: __ZNKSt3__122__compressed_pair_elemINS_9allocatorI7CardSetI10HoldEmRank4SuitEEELi1ELb1EE5__getB8ue170006Ev, symObjAddr: 0x6590, symBinAddr: 0x1000170C4, symSize: 0x14 }
  - { offsetInCU: 0x1D22E, offset: 0x5BAC6, size: 0x8, addend: 0x0, symName: __ZNSt3__114__split_bufferI7CardSetI10HoldEmRank4SuitERNS_9allocatorIS4_EEEC2EmmS7_, symObjAddr: 0x65F8, symBinAddr: 0x1000170D8, symSize: 0xD4 }
  - { offsetInCU: 0x1D2A1, offset: 0x5BB39, size: 0x8, addend: 0x0, symName: __ZNSt3__117__compressed_pairIP7CardSetI10HoldEmRank4SuitERNS_9allocatorIS4_EEEC1B8ue170006IDnS8_EEOT_OT0_, symObjAddr: 0x66CC, symBinAddr: 0x1000171AC, symSize: 0x3C }
  - { offsetInCU: 0x1D2F7, offset: 0x5BB8F, size: 0x8, addend: 0x0, symName: __ZNSt3__114__split_bufferI7CardSetI10HoldEmRank4SuitERNS_9allocatorIS4_EEE7__allocB8ue170006Ev, symObjAddr: 0x6748, symBinAddr: 0x100017228, symSize: 0x28 }
  - { offsetInCU: 0x1D31B, offset: 0x5BBB3, size: 0x8, addend: 0x0, symName: __ZNSt3__114__split_bufferI7CardSetI10HoldEmRank4SuitERNS_9allocatorIS4_EEE9__end_capB8ue170006Ev, symObjAddr: 0x6770, symBinAddr: 0x100017250, symSize: 0x28 }
  - { offsetInCU: 0x1D33F, offset: 0x5BBD7, size: 0x8, addend: 0x0, symName: __ZNSt3__117__compressed_pairIP7CardSetI10HoldEmRank4SuitERNS_9allocatorIS4_EEEC2B8ue170006IDnS8_EEOT_OT0_, symObjAddr: 0x6798, symBinAddr: 0x100017278, symSize: 0x48 }
  - { offsetInCU: 0x1D395, offset: 0x5BC2D, size: 0x8, addend: 0x0, symName: __ZNSt3__122__compressed_pair_elemIRNS_9allocatorI7CardSetI10HoldEmRank4SuitEEELi1ELb0EEC2B8ue170006IS7_vEEOT_, symObjAddr: 0x67E0, symBinAddr: 0x1000172C0, symSize: 0x20 }
  - { offsetInCU: 0x1D3D5, offset: 0x5BC6D, size: 0x8, addend: 0x0, symName: __ZNSt3__19allocatorI7CardSetI10HoldEmRank4SuitEE8allocateB8ue170006Em, symObjAddr: 0x6800, symBinAddr: 0x1000172E0, symSize: 0x58 }
  - { offsetInCU: 0x1D407, offset: 0x5BC9F, size: 0x8, addend: 0x0, symName: __ZNSt3__117__compressed_pairIP7CardSetI10HoldEmRank4SuitERNS_9allocatorIS4_EEE6secondB8ue170006Ev, symObjAddr: 0x6858, symBinAddr: 0x100017338, symSize: 0x28 }
  - { offsetInCU: 0x1D42B, offset: 0x5BCC3, size: 0x8, addend: 0x0, symName: __ZNSt3__122__compressed_pair_elemIRNS_9allocatorI7CardSetI10HoldEmRank4SuitEEELi1ELb0EE5__getB8ue170006Ev, symObjAddr: 0x6880, symBinAddr: 0x100017360, symSize: 0x18 }
  - { offsetInCU: 0x1D44F, offset: 0x5BCE7, size: 0x8, addend: 0x0, symName: __ZNSt3__117__compressed_pairIP7CardSetI10HoldEmRank4SuitERNS_9allocatorIS4_EEE5firstB8ue170006Ev, symObjAddr: 0x6898, symBinAddr: 0x100017378, symSize: 0x24 }
  - { offsetInCU: 0x1D473, offset: 0x5BD0B, size: 0x8, addend: 0x0, symName: __ZNSt3__116reverse_iteratorIP7CardSetI10HoldEmRank4SuitEEC1B8ue170006ES5_, symObjAddr: 0x69E8, symBinAddr: 0x1000174C8, symSize: 0x34 }
  - { offsetInCU: 0x1D4A9, offset: 0x5BD41, size: 0x8, addend: 0x0, symName: __ZNKSt3__116reverse_iteratorIP7CardSetI10HoldEmRank4SuitEE4baseB8ue170006Ev, symObjAddr: 0x6A1C, symBinAddr: 0x1000174FC, symSize: 0x18 }
  - { offsetInCU: 0x1D4CD, offset: 0x5BD65, size: 0x8, addend: 0x0, symName: __ZNKSt3__16vectorI7CardSetI10HoldEmRank4SuitENS_9allocatorIS4_EEE14__annotate_newB8ue170006Em, symObjAddr: 0x6A70, symBinAddr: 0x100017550, symSize: 0xAC }
  - { offsetInCU: 0x1D500, offset: 0x5BD98, size: 0x8, addend: 0x0, symName: __ZNSt3__129_AllocatorDestroyRangeReverseINS_9allocatorI7CardSetI10HoldEmRank4SuitEEENS_16reverse_iteratorIPS5_EEEC1B8ue170006ERS6_RS9_SC_, symObjAddr: 0x6B68, symBinAddr: 0x100017648, symSize: 0x44 }
  - { offsetInCU: 0x1D555, offset: 0x5BDED, size: 0x8, addend: 0x0, symName: __ZNSt3__116allocator_traitsINS_9allocatorI7CardSetI10HoldEmRank4SuitEEEE9constructB8ue170006IS5_JRKS5_EvEEvRS6_PT_DpOT0_, symObjAddr: 0x6BF4, symBinAddr: 0x1000176D4, symSize: 0x34 }
  - { offsetInCU: 0x1D5AC, offset: 0x5BE44, size: 0x8, addend: 0x0, symName: __ZNKSt3__116reverse_iteratorIP7CardSetI10HoldEmRank4SuitEEdeB8ue170006Ev, symObjAddr: 0x6C4C, symBinAddr: 0x10001772C, symSize: 0x28 }
  - { offsetInCU: 0x1D5DF, offset: 0x5BE77, size: 0x8, addend: 0x0, symName: __ZNSt3__116reverse_iteratorIP7CardSetI10HoldEmRank4SuitEEppB8ue170006Ev, symObjAddr: 0x6C74, symBinAddr: 0x100017754, symSize: 0x20 }
  - { offsetInCU: 0x1D603, offset: 0x5BE9B, size: 0x8, addend: 0x0, symName: __ZNSt3__128__exception_guard_exceptionsINS_29_AllocatorDestroyRangeReverseINS_9allocatorI7CardSetI10HoldEmRank4SuitEEENS_16reverse_iteratorIPS6_EEEEE10__completeB8ue170006Ev, symObjAddr: 0x6C94, symBinAddr: 0x100017774, symSize: 0x1C }
  - { offsetInCU: 0x1D627, offset: 0x5BEBF, size: 0x8, addend: 0x0, symName: __ZNSt3__128__exception_guard_exceptionsINS_29_AllocatorDestroyRangeReverseINS_9allocatorI7CardSetI10HoldEmRank4SuitEEENS_16reverse_iteratorIPS6_EEEEED1B8ue170006Ev, symObjAddr: 0x6CB0, symBinAddr: 0x100017790, symSize: 0x2C }
  - { offsetInCU: 0x1D64F, offset: 0x5BEE7, size: 0x8, addend: 0x0, symName: __ZNSt3__128__exception_guard_exceptionsINS_29_AllocatorDestroyRangeReverseINS_9allocatorI7CardSetI10HoldEmRank4SuitEEENS_16reverse_iteratorIPS6_EEEEEC1B8ue170006ESB_, symObjAddr: 0x6CDC, symBinAddr: 0x1000177BC, symSize: 0x34 }
  - { offsetInCU: 0x1D686, offset: 0x5BF1E, size: 0x8, addend: 0x0, symName: __ZNSt3__128__exception_guard_exceptionsINS_29_AllocatorDestroyRangeReverseINS_9allocatorI7CardSetI10HoldEmRank4SuitEEENS_16reverse_iteratorIPS6_EEEEEC2B8ue170006ESB_, symObjAddr: 0x6D10, symBinAddr: 0x1000177F0, symSize: 0x30 }
  - { offsetInCU: 0x1D6BD, offset: 0x5BF55, size: 0x8, addend: 0x0, symName: __ZNSt3__129_AllocatorDestroyRangeReverseINS_9allocatorI7CardSetI10HoldEmRank4SuitEEENS_16reverse_iteratorIPS5_EEEC2B8ue170006ERS6_RS9_SC_, symObjAddr: 0x6D40, symBinAddr: 0x100017820, symSize: 0x38 }
  - { offsetInCU: 0x1D712, offset: 0x5BFAA, size: 0x8, addend: 0x0, symName: __ZNSt3__19allocatorI7CardSetI10HoldEmRank4SuitEE9constructB8ue170006IS4_JRKS4_EEEvPT_DpOT0_, symObjAddr: 0x6D78, symBinAddr: 0x100017858, symSize: 0x30 }
  - { offsetInCU: 0x1D76B, offset: 0x5C003, size: 0x8, addend: 0x0, symName: __ZNSt3__119__to_address_helperINS_16reverse_iteratorIP7CardSetI10HoldEmRank4SuitEEEvE6__callB8ue170006ERKS7_, symObjAddr: 0x6DA8, symBinAddr: 0x100017888, symSize: 0x38 }
  - { offsetInCU: 0x1D78E, offset: 0x5C026, size: 0x8, addend: 0x0, symName: __ZNKSt3__116reverse_iteratorIP7CardSetI10HoldEmRank4SuitEEptB8ue170006Ev, symObjAddr: 0x6DE0, symBinAddr: 0x1000178C0, symSize: 0x24 }
  - { offsetInCU: 0x1D7B2, offset: 0x5C04A, size: 0x8, addend: 0x0, symName: __ZNSt3__128__exception_guard_exceptionsINS_29_AllocatorDestroyRangeReverseINS_9allocatorI7CardSetI10HoldEmRank4SuitEEENS_16reverse_iteratorIPS6_EEEEED2B8ue170006Ev, symObjAddr: 0x6E04, symBinAddr: 0x1000178E4, symSize: 0x50 }
  - { offsetInCU: 0x1D7DA, offset: 0x5C072, size: 0x8, addend: 0x0, symName: __ZNKSt3__129_AllocatorDestroyRangeReverseINS_9allocatorI7CardSetI10HoldEmRank4SuitEEENS_16reverse_iteratorIPS5_EEEclB8ue170006Ev, symObjAddr: 0x6E54, symBinAddr: 0x100017934, symSize: 0xB4 }
  - { offsetInCU: 0x1D7FF, offset: 0x5C097, size: 0x8, addend: 0x0, symName: __ZNSt3__116reverse_iteratorINS0_IP7CardSetI10HoldEmRank4SuitEEEEC1B8ue170006ES6_, symObjAddr: 0x6F78, symBinAddr: 0x100017A58, symSize: 0x3C }
  - { offsetInCU: 0x1D835, offset: 0x5C0CD, size: 0x8, addend: 0x0, symName: __ZNSt3__116reverse_iteratorINS0_IP7CardSetI10HoldEmRank4SuitEEEEppB8ue170006Ev, symObjAddr: 0x7038, symBinAddr: 0x100017B18, symSize: 0x30 }
  - { offsetInCU: 0x1D859, offset: 0x5C0F1, size: 0x8, addend: 0x0, symName: __ZNKSt3__116reverse_iteratorINS0_IP7CardSetI10HoldEmRank4SuitEEEE4baseB8ue170006Ev, symObjAddr: 0x7068, symBinAddr: 0x100017B48, symSize: 0x24 }
  - { offsetInCU: 0x1D882, offset: 0x5C11A, size: 0x8, addend: 0x0, symName: __ZNSt3__119__to_address_helperINS_16reverse_iteratorINS1_IP7CardSetI10HoldEmRank4SuitEEEEEvE6__callB8ue170006ERKS8_, symObjAddr: 0x708C, symBinAddr: 0x100017B6C, symSize: 0x38 }
  - { offsetInCU: 0x1D8A5, offset: 0x5C13D, size: 0x8, addend: 0x0, symName: __ZNKSt3__116reverse_iteratorINS0_IP7CardSetI10HoldEmRank4SuitEEEEptB8ue170006Ev, symObjAddr: 0x70C4, symBinAddr: 0x100017BA4, symSize: 0x24 }
  - { offsetInCU: 0x1D8C9, offset: 0x5C161, size: 0x8, addend: 0x0, symName: __ZNKSt3__116reverse_iteratorINS0_IP7CardSetI10HoldEmRank4SuitEEEEdeB8ue170006Ev, symObjAddr: 0x70E8, symBinAddr: 0x100017BC8, symSize: 0x34 }
  - { offsetInCU: 0x1D8FC, offset: 0x5C194, size: 0x8, addend: 0x0, symName: __ZNSt3__116reverse_iteratorIP7CardSetI10HoldEmRank4SuitEEmmB8ue170006Ev, symObjAddr: 0x711C, symBinAddr: 0x100017BFC, symSize: 0x20 }
  - { offsetInCU: 0x1D920, offset: 0x5C1B8, size: 0x8, addend: 0x0, symName: __ZNSt3__116reverse_iteratorINS0_IP7CardSetI10HoldEmRank4SuitEEEEC2B8ue170006ES6_, symObjAddr: 0x713C, symBinAddr: 0x100017C1C, symSize: 0x2C }
  - { offsetInCU: 0x1D956, offset: 0x5C1EE, size: 0x8, addend: 0x0, symName: __ZNSt3__116reverse_iteratorIP7CardSetI10HoldEmRank4SuitEEC2B8ue170006ES5_, symObjAddr: 0x7168, symBinAddr: 0x100017C48, symSize: 0x28 }
  - { offsetInCU: 0x1D98C, offset: 0x5C224, size: 0x8, addend: 0x0, symName: __ZNSt3__114__split_bufferI7CardSetI10HoldEmRank4SuitERNS_9allocatorIS4_EEED2Ev, symObjAddr: 0x7190, symBinAddr: 0x100017C70, symSize: 0x8C }
  - { offsetInCU: 0x1D9B7, offset: 0x5C24F, size: 0x8, addend: 0x0, symName: __ZNSt3__114__split_bufferI7CardSetI10HoldEmRank4SuitERNS_9allocatorIS4_EEE5clearB8ue170006Ev, symObjAddr: 0x721C, symBinAddr: 0x100017CFC, symSize: 0x28 }
  - { offsetInCU: 0x1D9DB, offset: 0x5C273, size: 0x8, addend: 0x0, symName: __ZNKSt3__114__split_bufferI7CardSetI10HoldEmRank4SuitERNS_9allocatorIS4_EEE8capacityB8ue170006Ev, symObjAddr: 0x7244, symBinAddr: 0x100017D24, symSize: 0x40 }
  - { offsetInCU: 0x1D9FF, offset: 0x5C297, size: 0x8, addend: 0x0, symName: __ZNSt3__114__split_bufferI7CardSetI10HoldEmRank4SuitERNS_9allocatorIS4_EEE17__destruct_at_endB8ue170006EPS4_, symObjAddr: 0x7284, symBinAddr: 0x100017D64, symSize: 0x2C }
  - { offsetInCU: 0x1DA31, offset: 0x5C2C9, size: 0x8, addend: 0x0, symName: __ZNSt3__114__split_bufferI7CardSetI10HoldEmRank4SuitERNS_9allocatorIS4_EEE17__destruct_at_endB8ue170006EPS4_NS_17integral_constantIbLb0EEE, symObjAddr: 0x72B0, symBinAddr: 0x100017D90, symSize: 0x80 }
  - { offsetInCU: 0x1DA6F, offset: 0x5C307, size: 0x8, addend: 0x0, symName: __ZNKSt3__114__split_bufferI7CardSetI10HoldEmRank4SuitERNS_9allocatorIS4_EEE9__end_capB8ue170006Ev, symObjAddr: 0x7330, symBinAddr: 0x100017E10, symSize: 0x28 }
  - { offsetInCU: 0x1DA93, offset: 0x5C32B, size: 0x8, addend: 0x0, symName: __ZNKSt3__117__compressed_pairIP7CardSetI10HoldEmRank4SuitERNS_9allocatorIS4_EEE5firstB8ue170006Ev, symObjAddr: 0x7358, symBinAddr: 0x100017E38, symSize: 0x24 }
  - { offsetInCU: 0x1DAB7, offset: 0x5C34F, size: 0x8, addend: 0x0, symName: __ZNK7CardSetI10HoldEmRank4SuitE8is_emptyEv, symObjAddr: 0x737C, symBinAddr: 0x100017E5C, symSize: 0x2C }
  - { offsetInCU: 0x1DADE, offset: 0x5C376, size: 0x8, addend: 0x0, symName: __ZNSt3__16vectorI4CardI10HoldEmRank4SuitENS_9allocatorIS4_EEE4backB8ue170006Ev, symObjAddr: 0x73A8, symBinAddr: 0x100017E88, symSize: 0x1C }
  - { offsetInCU: 0x1DB02, offset: 0x5C39A, size: 0x8, addend: 0x0, symName: __ZNSt3__16vectorI4CardI10HoldEmRank4SuitENS_9allocatorIS4_EEE9push_backB8ue170006ERKS4_, symObjAddr: 0x73C4, symBinAddr: 0x100017EA4, symSize: 0x6C }
  - { offsetInCU: 0x1DB37, offset: 0x5C3CF, size: 0x8, addend: 0x0, symName: __ZNSt3__16vectorI4CardI10HoldEmRank4SuitENS_9allocatorIS4_EEE8pop_backEv, symObjAddr: 0x7430, symBinAddr: 0x100017F10, symSize: 0x2C }
  - { offsetInCU: 0x1DB5D, offset: 0x5C3F5, size: 0x8, addend: 0x0, symName: __ZNKSt3__16vectorI4CardI10HoldEmRank4SuitENS_9allocatorIS4_EEE5emptyB8ue170006Ev, symObjAddr: 0x745C, symBinAddr: 0x100017F3C, symSize: 0x28 }
  - { offsetInCU: 0x1DB81, offset: 0x5C419, size: 0x8, addend: 0x0, symName: __ZNSt3__16vectorI4CardI10HoldEmRank4SuitENS_9allocatorIS4_EEE22__construct_one_at_endB8ue170006IJRKS4_EEEvDpOT_, symObjAddr: 0x7484, symBinAddr: 0x100017F64, symSize: 0x90 }
  - { offsetInCU: 0x1DBCE, offset: 0x5C466, size: 0x8, addend: 0x0, symName: __ZNSt3__16vectorI4CardI10HoldEmRank4SuitENS_9allocatorIS4_EEE21__push_back_slow_pathIRKS4_EEvOT_, symObjAddr: 0x7514, symBinAddr: 0x100017FF4, symSize: 0xD8 }
  - { offsetInCU: 0x1DC2A, offset: 0x5C4C2, size: 0x8, addend: 0x0, symName: __ZNSt3__116allocator_traitsINS_9allocatorI4CardI10HoldEmRank4SuitEEEE9constructB8ue170006IS5_JRKS5_EvEEvRS6_PT_DpOT0_, symObjAddr: 0x75EC, symBinAddr: 0x1000180CC, symSize: 0x34 }
  - { offsetInCU: 0x1DC81, offset: 0x5C519, size: 0x8, addend: 0x0, symName: __ZNSt3__19allocatorI4CardI10HoldEmRank4SuitEE9constructB8ue170006IS4_JRKS4_EEEvPT_DpOT0_, symObjAddr: 0x7620, symBinAddr: 0x100018100, symSize: 0x28 }
  - { offsetInCU: 0x1DCDF, offset: 0x5C577, size: 0x8, addend: 0x0, symName: __ZNSt3__16vectorI4CardI10HoldEmRank4SuitENS_9allocatorIS4_EEE17__destruct_at_endB8ue170006EPS4_, symObjAddr: 0x8414, symBinAddr: 0x100018128, symSize: 0x4C }
  - { offsetInCU: 0x1DD21, offset: 0x5C5B9, size: 0x8, addend: 0x0, symName: __ZNKSt3__16vectorI4CardI10HoldEmRank4SuitENS_9allocatorIS4_EEE17__annotate_shrinkB8ue170006Em, symObjAddr: 0x8460, symBinAddr: 0x100018174, symSize: 0xB4 }
  - { offsetInCU: 0x1DD72, offset: 0x5C60A, size: 0x8, addend: 0x0, symName: __ZNKSt3__16vectorI4CardI10HoldEmRank4SuitENS_9allocatorIS4_EEE5beginB8ue170006Ev, symObjAddr: 0x8EDC, symBinAddr: 0x100018228, symSize: 0x30 }
  - { offsetInCU: 0x1DD98, offset: 0x5C630, size: 0x8, addend: 0x0, symName: __ZNKSt3__16vectorI4CardI10HoldEmRank4SuitENS_9allocatorIS4_EEE3endB8ue170006Ev, symObjAddr: 0x8F0C, symBinAddr: 0x100018258, symSize: 0x30 }
  - { offsetInCU: 0x1DDBE, offset: 0x5C656, size: 0x8, addend: 0x0, symName: __ZNKSt3__111__wrap_iterIPK4CardI10HoldEmRank4SuitEEdeB8ue170006Ev, symObjAddr: 0x8F70, symBinAddr: 0x1000182BC, symSize: 0x18 }
  - { offsetInCU: 0x1DDE1, offset: 0x5C679, size: 0x8, addend: 0x0, symName: __ZlsI10HoldEmRank4SuitERNSt3__113basic_ostreamIcNS2_11char_traitsIcEEEES7_RK4CardIT_T0_E, symObjAddr: 0x8FBC, symBinAddr: 0x1000182D4, symSize: 0x38 }
  - { offsetInCU: 0x1DE2E, offset: 0x5C6C6, size: 0x8, addend: 0x0, symName: __ZNSt3__111__wrap_iterIPK4CardI10HoldEmRank4SuitEEppB8ue170006Ev, symObjAddr: 0x8FF4, symBinAddr: 0x10001830C, symSize: 0x20 }
  - { offsetInCU: 0x1DE52, offset: 0x5C6EA, size: 0x8, addend: 0x0, symName: __ZNKSt3__16vectorI4CardI10HoldEmRank4SuitENS_9allocatorIS4_EEE11__make_iterB8ue170006EPKS4_, symObjAddr: 0x9014, symBinAddr: 0x10001832C, symSize: 0x30 }
  - { offsetInCU: 0x1DE85, offset: 0x5C71D, size: 0x8, addend: 0x0, symName: __ZNSt3__111__wrap_iterIPK4CardI10HoldEmRank4SuitEEC1B8ue170006ES6_, symObjAddr: 0x9044, symBinAddr: 0x10001835C, symSize: 0x34 }
  - { offsetInCU: 0x1DEBB, offset: 0x5C753, size: 0x8, addend: 0x0, symName: __ZNSt3__111__wrap_iterIPK4CardI10HoldEmRank4SuitEEC2B8ue170006ES6_, symObjAddr: 0x9078, symBinAddr: 0x100018390, symSize: 0x20 }
  - { offsetInCU: 0x1DEF1, offset: 0x5C789, size: 0x8, addend: 0x0, symName: __ZNKSt3__111__wrap_iterIPK4CardI10HoldEmRank4SuitEE4baseB8ue170006Ev, symObjAddr: 0x90E0, symBinAddr: 0x1000183F8, symSize: 0x18 }
  - { offsetInCU: 0x1DF15, offset: 0x5C7AD, size: 0x8, addend: 0x0, symName: __ZNSt3__16vectorI4CardI10HoldEmRank4SuitENS_9allocatorIS4_EEE11__make_iterB8ue170006EPS4_, symObjAddr: 0x929C, symBinAddr: 0x100018410, symSize: 0x30 }
  - { offsetInCU: 0x1DF48, offset: 0x5C7E0, size: 0x8, addend: 0x0, symName: __ZNSt3__111__wrap_iterIP4CardI10HoldEmRank4SuitEEC1B8ue170006ES5_, symObjAddr: 0x92CC, symBinAddr: 0x100018440, symSize: 0x34 }
  - { offsetInCU: 0x1DF7E, offset: 0x5C816, size: 0x8, addend: 0x0, symName: __ZNSt3__111__wrap_iterIP4CardI10HoldEmRank4SuitEEC2B8ue170006ES5_, symObjAddr: 0x9300, symBinAddr: 0x100018474, symSize: 0x20 }
  - { offsetInCU: 0x1DFBE, offset: 0x5C856, size: 0x8, addend: 0x0, symName: '__ZZN10HoldEmGame20holdEmHandEvaluationERK7CardSetI10HoldEmRank4SuitEENK3$_0clERK4CardIS1_S2_ESA_', symObjAddr: 0x9940, symBinAddr: 0x100018A98, symSize: 0x34 }
  - { offsetInCU: 0x1E002, offset: 0x5C89A, size: 0x8, addend: 0x0, symName: __ZNSt3__18_IterOpsINS_17_ClassicAlgPolicyEE9iter_swapB8ue170006IRP4CardI10HoldEmRank4SuitES9_EEvOT_OT0_, symObjAddr: 0x9974, symBinAddr: 0x100018ACC, symSize: 0x34 }
  - { offsetInCU: 0x1E045, offset: 0x5C8DD, size: 0x8, addend: 0x0, symName: __ZNSt3__18_IterOpsINS_17_ClassicAlgPolicyEE9iter_swapB8ue170006IRP4CardI10HoldEmRank4SuitES8_EEvOT_OT0_, symObjAddr: 0x9EBC, symBinAddr: 0x100019014, symSize: 0x34 }
  - { offsetInCU: 0x1E087, offset: 0x5C91F, size: 0x8, addend: 0x0, symName: __Z21compareByRankThenSuitI10HoldEmRank4SuitEbRK4CardIT_T0_ES7_, symObjAddr: 0xA958, symBinAddr: 0x100019AB0, symSize: 0xB0 }
  - { offsetInCU: 0x1E0D4, offset: 0x5C96C, size: 0x8, addend: 0x0, symName: __ZNSt3__18_IterOpsINS_17_ClassicAlgPolicyEE11__iter_moveB8ue170006IRP4CardI10HoldEmRank4SuitEEENS_9enable_ifIXsr12is_referenceIDTdeclsr3stdE7declvalIRT_EEEEE5valueEDTclsr3stdE4movedeclsr3stdE7declvalISC_EEEEE4typeEOSB_, symObjAddr: 0xAC10, symBinAddr: 0x100019D68, symSize: 0x28 }
  - { offsetInCU: 0x1E100, offset: 0x5C998, size: 0x8, addend: 0x0, symName: __ZNSt3__18_IterOpsINS_17_ClassicAlgPolicyEE25__validate_iter_referenceB8ue170006IRP4CardI10HoldEmRank4SuitEEEvv, symObjAddr: 0xAC38, symBinAddr: 0x100019D90, symSize: 0x4 }
  - { offsetInCU: 0x1E11D, offset: 0x5C9B5, size: 0x8, addend: 0x0, symName: __ZNSt3__18_IterOpsINS_17_ClassicAlgPolicyEE4nextB8ue170006IP4CardI10HoldEmRank4SuitEEET_S9_S9_, symObjAddr: 0xAC3C, symBinAddr: 0x100019D94, symSize: 0x18 }
  - { offsetInCU: 0x1E152, offset: 0x5C9EA, size: 0x8, addend: 0x0, symName: __ZNSt3__18_IterOpsINS_17_ClassicAlgPolicyEE9iter_swapB8ue170006IP4CardI10HoldEmRank4SuitES8_EEvOT_OT0_, symObjAddr: 0xBB88, symBinAddr: 0x10001ACE0, symSize: 0x34 }
  - { offsetInCU: 0x1E1B3, offset: 0x5CA4B, size: 0x8, addend: 0x0, symName: __ZNSt3__14pairIP4CardI10HoldEmRank4SuitEbEC1B8ue170006IRS5_RbLPv0EEEOT_OT0_, symObjAddr: 0xBBD8, symBinAddr: 0x10001AD30, symSize: 0x3C }
  - { offsetInCU: 0x1E210, offset: 0x5CAA8, size: 0x8, addend: 0x0, symName: __ZNSt3__14pairIP4CardI10HoldEmRank4SuitEbEC2B8ue170006IRS5_RbLPv0EEEOT_OT0_, symObjAddr: 0xBC14, symBinAddr: 0x10001AD6C, symSize: 0x38 }
  - { offsetInCU: 0x1E26D, offset: 0x5CB05, size: 0x8, addend: 0x0, symName: __ZNSt3__118__unwrap_iter_implINS_11__wrap_iterIP4CardI10HoldEmRank4SuitEEELb1EE8__unwrapB8ue170006ES7_, symObjAddr: 0xBC4C, symBinAddr: 0x10001ADA4, symSize: 0x28 }
  - { offsetInCU: 0x1E29A, offset: 0x5CB32, size: 0x8, addend: 0x0, symName: __ZNSt3__119__to_address_helperINS_11__wrap_iterIP4CardI10HoldEmRank4SuitEEEvE6__callB8ue170006ERKS7_, symObjAddr: 0xBC98, symBinAddr: 0x10001ADF0, symSize: 0x30 }
  - { offsetInCU: 0x1E2BD, offset: 0x5CB55, size: 0x8, addend: 0x0, symName: __ZNSt3__114pointer_traitsINS_11__wrap_iterIP4CardI10HoldEmRank4SuitEEEE10to_addressB8ue170006ES7_, symObjAddr: 0xBCC8, symBinAddr: 0x10001AE20, symSize: 0x2C }
  - { offsetInCU: 0x1E2EA, offset: 0x5CB82, size: 0x8, addend: 0x0, symName: '__ZZN10HoldEmGame20holdEmHandEvaluationERK7CardSetI10HoldEmRank4SuitEENK3$_1clERK4CardIS1_S2_E', symObjAddr: 0xBCF4, symBinAddr: 0x10001AE4C, symSize: 0x50 }
  - { offsetInCU: 0x1E320, offset: 0x5CBB8, size: 0x8, addend: 0x0, symName: __ZNSt3__113unordered_mapI10HoldEmRankiNS_4hashIS1_EENS_8equal_toIS1_EENS_9allocatorINS_4pairIKS1_iEEEEEC2B8ue170006Ev, symObjAddr: 0xBD44, symBinAddr: 0x10001AE9C, symSize: 0x2C }
  - { offsetInCU: 0x1E348, offset: 0x5CBE0, size: 0x8, addend: 0x0, symName: __ZNSt3__112__hash_tableINS_17__hash_value_typeI10HoldEmRankiEENS_22__unordered_map_hasherIS2_S3_NS_4hashIS2_EENS_8equal_toIS2_EELb1EEENS_21__unordered_map_equalIS2_S3_S8_S6_Lb1EEENS_9allocatorIS3_EEEC1Ev, symObjAddr: 0xBD70, symBinAddr: 0x10001AEC8, symSize: 0x2C }
  - { offsetInCU: 0x1E373, offset: 0x5CC0B, size: 0x8, addend: 0x0, symName: __ZNSt3__112__hash_tableINS_17__hash_value_typeI10HoldEmRankiEENS_22__unordered_map_hasherIS2_S3_NS_4hashIS2_EENS_8equal_toIS2_EELb1EEENS_21__unordered_map_equalIS2_S3_S8_S6_Lb1EEENS_9allocatorIS3_EEEC2Ev, symObjAddr: 0xBD9C, symBinAddr: 0x10001AEF4, symSize: 0x7C }
  - { offsetInCU: 0x1E39E, offset: 0x5CC36, size: 0x8, addend: 0x0, symName: __ZNSt3__110unique_ptrIA_PNS_16__hash_node_baseIPNS_11__hash_nodeINS_17__hash_value_typeI10HoldEmRankiEEPvEEEENS_25__bucket_list_deallocatorINS_9allocatorISA_EEEEEC1B8ue170006ILb1EvEEv, symObjAddr: 0xBE18, symBinAddr: 0x10001AF70, symSize: 0x2C }
  - { offsetInCU: 0x1E3D1, offset: 0x5CC69, size: 0x8, addend: 0x0, symName: __ZNSt3__117__compressed_pairINS_16__hash_node_baseIPNS_11__hash_nodeINS_17__hash_value_typeI10HoldEmRankiEEPvEEEENS_9allocatorIS7_EEEC1B8ue170006ILb1EvEEv, symObjAddr: 0xBE44, symBinAddr: 0x10001AF9C, symSize: 0x2C }
  - { offsetInCU: 0x1E409, offset: 0x5CCA1, size: 0x8, addend: 0x0, symName: __ZNSt3__117__compressed_pairImNS_22__unordered_map_hasherI10HoldEmRankNS_17__hash_value_typeIS2_iEENS_4hashIS2_EENS_8equal_toIS2_EELb1EEEEC1B8ue170006IiNS_18__default_init_tagEEEOT_OT0_, symObjAddr: 0xBE70, symBinAddr: 0x10001AFC8, symSize: 0x3C }
  - { offsetInCU: 0x1E464, offset: 0x5CCFC, size: 0x8, addend: 0x0, symName: __ZNSt3__117__compressed_pairIfNS_21__unordered_map_equalI10HoldEmRankNS_17__hash_value_typeIS2_iEENS_8equal_toIS2_EENS_4hashIS2_EELb1EEEEC1B8ue170006IfNS_18__default_init_tagEEEOT_OT0_, symObjAddr: 0xBEAC, symBinAddr: 0x10001B004, symSize: 0x3C }
  - { offsetInCU: 0x1E4BA, offset: 0x5CD52, size: 0x8, addend: 0x0, symName: __ZNSt3__110unique_ptrIA_PNS_16__hash_node_baseIPNS_11__hash_nodeINS_17__hash_value_typeI10HoldEmRankiEEPvEEEENS_25__bucket_list_deallocatorINS_9allocatorISA_EEEEEC2B8ue170006ILb1EvEEv, symObjAddr: 0xBEE8, symBinAddr: 0x10001B040, symSize: 0x3C }
  - { offsetInCU: 0x1E4F2, offset: 0x5CD8A, size: 0x8, addend: 0x0, symName: __ZNSt3__117__compressed_pairIPPNS_16__hash_node_baseIPNS_11__hash_nodeINS_17__hash_value_typeI10HoldEmRankiEEPvEEEENS_25__bucket_list_deallocatorINS_9allocatorISA_EEEEEC1B8ue170006INS_16__value_init_tagESI_EEOT_OT0_, symObjAddr: 0xBF24, symBinAddr: 0x10001B07C, symSize: 0x3C }
  - { offsetInCU: 0x1E548, offset: 0x5CDE0, size: 0x8, addend: 0x0, symName: __ZNSt3__117__compressed_pairIPPNS_16__hash_node_baseIPNS_11__hash_nodeINS_17__hash_value_typeI10HoldEmRankiEEPvEEEENS_25__bucket_list_deallocatorINS_9allocatorISA_EEEEEC2B8ue170006INS_16__value_init_tagESI_EEOT_OT0_, symObjAddr: 0xBF60, symBinAddr: 0x10001B0B8, symSize: 0x40 }
  - { offsetInCU: 0x1E59E, offset: 0x5CE36, size: 0x8, addend: 0x0, symName: __ZNSt3__122__compressed_pair_elemIPPNS_16__hash_node_baseIPNS_11__hash_nodeINS_17__hash_value_typeI10HoldEmRankiEEPvEEEELi0ELb0EEC2B8ue170006ENS_16__value_init_tagE, symObjAddr: 0xBFA0, symBinAddr: 0x10001B0F8, symSize: 0x18 }
  - { offsetInCU: 0x1E5D0, offset: 0x5CE68, size: 0x8, addend: 0x0, symName: __ZNSt3__122__compressed_pair_elemINS_25__bucket_list_deallocatorINS_9allocatorIPNS_16__hash_node_baseIPNS_11__hash_nodeINS_17__hash_value_typeI10HoldEmRankiEEPvEEEEEEEELi1ELb0EEC2B8ue170006ENS_16__value_init_tagE, symObjAddr: 0xBFB8, symBinAddr: 0x10001B110, symSize: 0x2C }
  - { offsetInCU: 0x1E602, offset: 0x5CE9A, size: 0x8, addend: 0x0, symName: __ZNSt3__125__bucket_list_deallocatorINS_9allocatorIPNS_16__hash_node_baseIPNS_11__hash_nodeINS_17__hash_value_typeI10HoldEmRankiEEPvEEEEEEEC1B8ue170006Ev, symObjAddr: 0xBFE4, symBinAddr: 0x10001B13C, symSize: 0x2C }
  - { offsetInCU: 0x1E62A, offset: 0x5CEC2, size: 0x8, addend: 0x0, symName: __ZNSt3__125__bucket_list_deallocatorINS_9allocatorIPNS_16__hash_node_baseIPNS_11__hash_nodeINS_17__hash_value_typeI10HoldEmRankiEEPvEEEEEEEC2B8ue170006Ev, symObjAddr: 0xC010, symBinAddr: 0x10001B168, symSize: 0x40 }
  - { offsetInCU: 0x1E652, offset: 0x5CEEA, size: 0x8, addend: 0x0, symName: __ZNSt3__117__compressed_pairImNS_9allocatorIPNS_16__hash_node_baseIPNS_11__hash_nodeINS_17__hash_value_typeI10HoldEmRankiEEPvEEEEEEEC1B8ue170006IiNS_18__default_init_tagEEEOT_OT0_, symObjAddr: 0xC050, symBinAddr: 0x10001B1A8, symSize: 0x3C }
  - { offsetInCU: 0x1E6A8, offset: 0x5CF40, size: 0x8, addend: 0x0, symName: __ZNSt3__117__compressed_pairImNS_9allocatorIPNS_16__hash_node_baseIPNS_11__hash_nodeINS_17__hash_value_typeI10HoldEmRankiEEPvEEEEEEEC2B8ue170006IiNS_18__default_init_tagEEEOT_OT0_, symObjAddr: 0xC08C, symBinAddr: 0x10001B1E4, symSize: 0x40 }
  - { offsetInCU: 0x1E6FE, offset: 0x5CF96, size: 0x8, addend: 0x0, symName: __ZNSt3__122__compressed_pair_elemINS_9allocatorIPNS_16__hash_node_baseIPNS_11__hash_nodeINS_17__hash_value_typeI10HoldEmRankiEEPvEEEEEELi1ELb1EEC2B8ue170006ENS_18__default_init_tagE, symObjAddr: 0xC0F0, symBinAddr: 0x10001B224, symSize: 0x2C }
  - { offsetInCU: 0x1E730, offset: 0x5CFC8, size: 0x8, addend: 0x0, symName: __ZNSt3__19allocatorIPNS_16__hash_node_baseIPNS_11__hash_nodeINS_17__hash_value_typeI10HoldEmRankiEEPvEEEEEC2B8ue170006Ev, symObjAddr: 0xC11C, symBinAddr: 0x10001B250, symSize: 0x2C }
  - { offsetInCU: 0x1E758, offset: 0x5CFF0, size: 0x8, addend: 0x0, symName: __ZNSt3__116__non_trivial_ifILb1ENS_9allocatorIPNS_16__hash_node_baseIPNS_11__hash_nodeINS_17__hash_value_typeI10HoldEmRankiEEPvEEEEEEEC2B8ue170006Ev, symObjAddr: 0xC148, symBinAddr: 0x10001B27C, symSize: 0x14 }
  - { offsetInCU: 0x1E780, offset: 0x5D018, size: 0x8, addend: 0x0, symName: __ZNSt3__117__compressed_pairINS_16__hash_node_baseIPNS_11__hash_nodeINS_17__hash_value_typeI10HoldEmRankiEEPvEEEENS_9allocatorIS7_EEEC2B8ue170006ILb1EvEEv, symObjAddr: 0xC15C, symBinAddr: 0x10001B290, symSize: 0x34 }
  - { offsetInCU: 0x1E7B3, offset: 0x5D04B, size: 0x8, addend: 0x0, symName: __ZNSt3__122__compressed_pair_elemINS_16__hash_node_baseIPNS_11__hash_nodeINS_17__hash_value_typeI10HoldEmRankiEEPvEEEELi0ELb0EEC2B8ue170006ENS_16__value_init_tagE, symObjAddr: 0xC190, symBinAddr: 0x10001B2C4, symSize: 0x2C }
  - { offsetInCU: 0x1E7E5, offset: 0x5D07D, size: 0x8, addend: 0x0, symName: __ZNSt3__122__compressed_pair_elemINS_9allocatorINS_11__hash_nodeINS_17__hash_value_typeI10HoldEmRankiEEPvEEEELi1ELb1EEC2B8ue170006ENS_16__value_init_tagE, symObjAddr: 0xC1BC, symBinAddr: 0x10001B2F0, symSize: 0x2C }
  - { offsetInCU: 0x1E817, offset: 0x5D0AF, size: 0x8, addend: 0x0, symName: __ZNSt3__116__hash_node_baseIPNS_11__hash_nodeINS_17__hash_value_typeI10HoldEmRankiEEPvEEEC1B8ue170006Ev, symObjAddr: 0xC1E8, symBinAddr: 0x10001B31C, symSize: 0x2C }
  - { offsetInCU: 0x1E83F, offset: 0x5D0D7, size: 0x8, addend: 0x0, symName: __ZNSt3__116__hash_node_baseIPNS_11__hash_nodeINS_17__hash_value_typeI10HoldEmRankiEEPvEEEC2B8ue170006Ev, symObjAddr: 0xC214, symBinAddr: 0x10001B348, symSize: 0x18 }
  - { offsetInCU: 0x1E867, offset: 0x5D0FF, size: 0x8, addend: 0x0, symName: __ZNSt3__19allocatorINS_11__hash_nodeINS_17__hash_value_typeI10HoldEmRankiEEPvEEEC2B8ue170006Ev, symObjAddr: 0xC22C, symBinAddr: 0x10001B360, symSize: 0x2C }
  - { offsetInCU: 0x1E88F, offset: 0x5D127, size: 0x8, addend: 0x0, symName: __ZNSt3__116__non_trivial_ifILb1ENS_9allocatorINS_11__hash_nodeINS_17__hash_value_typeI10HoldEmRankiEEPvEEEEEC2B8ue170006Ev, symObjAddr: 0xC258, symBinAddr: 0x10001B38C, symSize: 0x14 }
  - { offsetInCU: 0x1E8B7, offset: 0x5D14F, size: 0x8, addend: 0x0, symName: __ZNSt3__117__compressed_pairImNS_22__unordered_map_hasherI10HoldEmRankNS_17__hash_value_typeIS2_iEENS_4hashIS2_EENS_8equal_toIS2_EELb1EEEEC2B8ue170006IiNS_18__default_init_tagEEEOT_OT0_, symObjAddr: 0xC26C, symBinAddr: 0x10001B3A0, symSize: 0x40 }
  - { offsetInCU: 0x1E90D, offset: 0x5D1A5, size: 0x8, addend: 0x0, symName: __ZNSt3__122__compressed_pair_elemINS_22__unordered_map_hasherI10HoldEmRankNS_17__hash_value_typeIS2_iEENS_4hashIS2_EENS_8equal_toIS2_EELb1EEELi1ELb1EEC2B8ue170006ENS_18__default_init_tagE, symObjAddr: 0xC2AC, symBinAddr: 0x10001B3E0, symSize: 0x2C }
  - { offsetInCU: 0x1E93F, offset: 0x5D1D7, size: 0x8, addend: 0x0, symName: __ZNSt3__122__unordered_map_hasherI10HoldEmRankNS_17__hash_value_typeIS1_iEENS_4hashIS1_EENS_8equal_toIS1_EELb1EEC2B8ue170006Ev, symObjAddr: 0xC2D8, symBinAddr: 0x10001B40C, symSize: 0x14 }
  - { offsetInCU: 0x1E967, offset: 0x5D1FF, size: 0x8, addend: 0x0, symName: __ZNSt3__117__compressed_pairIfNS_21__unordered_map_equalI10HoldEmRankNS_17__hash_value_typeIS2_iEENS_8equal_toIS2_EENS_4hashIS2_EELb1EEEEC2B8ue170006IfNS_18__default_init_tagEEEOT_OT0_, symObjAddr: 0xC2EC, symBinAddr: 0x10001B420, symSize: 0x40 }
  - { offsetInCU: 0x1E9BD, offset: 0x5D255, size: 0x8, addend: 0x0, symName: __ZNSt3__122__compressed_pair_elemINS_21__unordered_map_equalI10HoldEmRankNS_17__hash_value_typeIS2_iEENS_8equal_toIS2_EENS_4hashIS2_EELb1EEELi1ELb1EEC2B8ue170006ENS_18__default_init_tagE, symObjAddr: 0xC350, symBinAddr: 0x10001B460, symSize: 0x2C }
  - { offsetInCU: 0x1E9EF, offset: 0x5D287, size: 0x8, addend: 0x0, symName: __ZNSt3__121__unordered_map_equalI10HoldEmRankNS_17__hash_value_typeIS1_iEENS_8equal_toIS1_EENS_4hashIS1_EELb1EEC2B8ue170006Ev, symObjAddr: 0xC37C, symBinAddr: 0x10001B48C, symSize: 0x14 }
  - { offsetInCU: 0x1EA17, offset: 0x5D2AF, size: 0x8, addend: 0x0, symName: __ZNSt3__113unordered_mapI10HoldEmRankiNS_4hashIS1_EENS_8equal_toIS1_EENS_9allocatorINS_4pairIKS1_iEEEEED2B8ue170006Ev, symObjAddr: 0xC390, symBinAddr: 0x10001B4A0, symSize: 0x2C }
  - { offsetInCU: 0x1EA3F, offset: 0x5D2D7, size: 0x8, addend: 0x0, symName: __ZNSt3__112__hash_tableINS_17__hash_value_typeI10HoldEmRankiEENS_22__unordered_map_hasherIS2_S3_NS_4hashIS2_EENS_8equal_toIS2_EELb1EEENS_21__unordered_map_equalIS2_S3_S8_S6_Lb1EEENS_9allocatorIS3_EEED1Ev, symObjAddr: 0xC3BC, symBinAddr: 0x10001B4CC, symSize: 0x2C }
  - { offsetInCU: 0x1EA6A, offset: 0x5D302, size: 0x8, addend: 0x0, symName: __ZNSt3__112__hash_tableINS_17__hash_value_typeI10HoldEmRankiEENS_22__unordered_map_hasherIS2_S3_NS_4hashIS2_EENS_8equal_toIS2_EELb1EEENS_21__unordered_map_equalIS2_S3_S8_S6_Lb1EEENS_9allocatorIS3_EEED2Ev, symObjAddr: 0xC3E8, symBinAddr: 0x10001B4F8, symSize: 0x48 }
  - { offsetInCU: 0x1EA95, offset: 0x5D32D, size: 0x8, addend: 0x0, symName: __ZNSt3__112__hash_tableINS_17__hash_value_typeI10HoldEmRankiEENS_22__unordered_map_hasherIS2_S3_NS_4hashIS2_EENS_8equal_toIS2_EELb1EEENS_21__unordered_map_equalIS2_S3_S8_S6_Lb1EEENS_9allocatorIS3_EEE17__deallocate_nodeEPNS_16__hash_node_baseIPNS_11__hash_nodeIS3_PvEEEE, symObjAddr: 0xC430, symBinAddr: 0x10001B540, symSize: 0xA8 }
  - { offsetInCU: 0x1EAFD, offset: 0x5D395, size: 0x8, addend: 0x0, symName: __ZNSt3__117__compressed_pairINS_16__hash_node_baseIPNS_11__hash_nodeINS_17__hash_value_typeI10HoldEmRankiEEPvEEEENS_9allocatorIS7_EEE5firstB8ue170006Ev, symObjAddr: 0xC4D8, symBinAddr: 0x10001B5E8, symSize: 0x24 }
  - { offsetInCU: 0x1EB21, offset: 0x5D3B9, size: 0x8, addend: 0x0, symName: __ZNSt3__110unique_ptrIA_PNS_16__hash_node_baseIPNS_11__hash_nodeINS_17__hash_value_typeI10HoldEmRankiEEPvEEEENS_25__bucket_list_deallocatorINS_9allocatorISA_EEEEED1B8ue170006Ev, symObjAddr: 0xC4FC, symBinAddr: 0x10001B60C, symSize: 0x2C }
  - { offsetInCU: 0x1EB49, offset: 0x5D3E1, size: 0x8, addend: 0x0, symName: __ZNSt3__112__hash_tableINS_17__hash_value_typeI10HoldEmRankiEENS_22__unordered_map_hasherIS2_S3_NS_4hashIS2_EENS_8equal_toIS2_EELb1EEENS_21__unordered_map_equalIS2_S3_S8_S6_Lb1EEENS_9allocatorIS3_EEE12__node_allocB8ue170006Ev, symObjAddr: 0xC528, symBinAddr: 0x10001B638, symSize: 0x28 }
  - { offsetInCU: 0x1EB6D, offset: 0x5D405, size: 0x8, addend: 0x0, symName: __ZNSt3__116__hash_node_baseIPNS_11__hash_nodeINS_17__hash_value_typeI10HoldEmRankiEEPvEEE8__upcastB8ue170006Ev, symObjAddr: 0xC550, symBinAddr: 0x10001B660, symSize: 0x24 }
  - { offsetInCU: 0x1EB91, offset: 0x5D429, size: 0x8, addend: 0x0, symName: __ZNSt3__116allocator_traitsINS_9allocatorINS_11__hash_nodeINS_17__hash_value_typeI10HoldEmRankiEEPvEEEEE7destroyB8ue170006INS_4pairIKS4_iEEvvEEvRS8_PT_, symObjAddr: 0xC574, symBinAddr: 0x10001B684, symSize: 0x14 }
  - { offsetInCU: 0x1EBCB, offset: 0x5D463, size: 0x8, addend: 0x0, symName: __ZNSt3__122__hash_key_value_typesINS_17__hash_value_typeI10HoldEmRankiEEE9__get_ptrB8ue170006ERS3_, symObjAddr: 0xC588, symBinAddr: 0x10001B698, symSize: 0x24 }
  - { offsetInCU: 0x1EBEE, offset: 0x5D486, size: 0x8, addend: 0x0, symName: __ZNSt3__116allocator_traitsINS_9allocatorINS_11__hash_nodeINS_17__hash_value_typeI10HoldEmRankiEEPvEEEEE10deallocateB8ue170006ERS8_PS7_m, symObjAddr: 0xC5AC, symBinAddr: 0x10001B6BC, symSize: 0x34 }
  - { offsetInCU: 0x1EC30, offset: 0x5D4C8, size: 0x8, addend: 0x0, symName: __ZNSt3__117__compressed_pairINS_16__hash_node_baseIPNS_11__hash_nodeINS_17__hash_value_typeI10HoldEmRankiEEPvEEEENS_9allocatorIS7_EEE6secondB8ue170006Ev, symObjAddr: 0xC5E0, symBinAddr: 0x10001B6F0, symSize: 0x24 }
  - { offsetInCU: 0x1EC54, offset: 0x5D4EC, size: 0x8, addend: 0x0, symName: __ZNSt3__122__compressed_pair_elemINS_9allocatorINS_11__hash_nodeINS_17__hash_value_typeI10HoldEmRankiEEPvEEEELi1ELb1EE5__getB8ue170006Ev, symObjAddr: 0xC604, symBinAddr: 0x10001B714, symSize: 0x14 }
  - { offsetInCU: 0x1EC78, offset: 0x5D510, size: 0x8, addend: 0x0, symName: __ZNSt3__114pointer_traitsIPNS_16__hash_node_baseIPNS_11__hash_nodeINS_17__hash_value_typeI10HoldEmRankiEEPvEEEEE10pointer_toB8ue170006ERS9_, symObjAddr: 0xC618, symBinAddr: 0x10001B728, symSize: 0x14 }
  - { offsetInCU: 0x1EC9A, offset: 0x5D532, size: 0x8, addend: 0x0, symName: __ZNSt3__117__hash_value_typeI10HoldEmRankiE11__get_valueB8ue170006Ev, symObjAddr: 0xC62C, symBinAddr: 0x10001B73C, symSize: 0x24 }
  - { offsetInCU: 0x1ECBE, offset: 0x5D556, size: 0x8, addend: 0x0, symName: __ZNSt3__19allocatorINS_11__hash_nodeINS_17__hash_value_typeI10HoldEmRankiEEPvEEE10deallocateB8ue170006EPS6_m, symObjAddr: 0xC688, symBinAddr: 0x10001B798, symSize: 0x44 }
  - { offsetInCU: 0x1ECFE, offset: 0x5D596, size: 0x8, addend: 0x0, symName: __ZNSt3__122__compressed_pair_elemINS_16__hash_node_baseIPNS_11__hash_nodeINS_17__hash_value_typeI10HoldEmRankiEEPvEEEELi0ELb0EE5__getB8ue170006Ev, symObjAddr: 0xC6CC, symBinAddr: 0x10001B7DC, symSize: 0x14 }
  - { offsetInCU: 0x1ED22, offset: 0x5D5BA, size: 0x8, addend: 0x0, symName: __ZNSt3__110unique_ptrIA_PNS_16__hash_node_baseIPNS_11__hash_nodeINS_17__hash_value_typeI10HoldEmRankiEEPvEEEENS_25__bucket_list_deallocatorINS_9allocatorISA_EEEEED2B8ue170006Ev, symObjAddr: 0xC6E0, symBinAddr: 0x10001B7F0, symSize: 0x30 }
  - { offsetInCU: 0x1ED4A, offset: 0x5D5E2, size: 0x8, addend: 0x0, symName: __ZNSt3__110unique_ptrIA_PNS_16__hash_node_baseIPNS_11__hash_nodeINS_17__hash_value_typeI10HoldEmRankiEEPvEEEENS_25__bucket_list_deallocatorINS_9allocatorISA_EEEEE5resetB8ue170006EDn, symObjAddr: 0xC710, symBinAddr: 0x10001B820, symSize: 0x6C }
  - { offsetInCU: 0x1ED89, offset: 0x5D621, size: 0x8, addend: 0x0, symName: __ZNSt3__117__compressed_pairIPPNS_16__hash_node_baseIPNS_11__hash_nodeINS_17__hash_value_typeI10HoldEmRankiEEPvEEEENS_25__bucket_list_deallocatorINS_9allocatorISA_EEEEE5firstB8ue170006Ev, symObjAddr: 0xC77C, symBinAddr: 0x10001B88C, symSize: 0x24 }
  - { offsetInCU: 0x1EDAD, offset: 0x5D645, size: 0x8, addend: 0x0, symName: __ZNSt3__117__compressed_pairIPPNS_16__hash_node_baseIPNS_11__hash_nodeINS_17__hash_value_typeI10HoldEmRankiEEPvEEEENS_25__bucket_list_deallocatorINS_9allocatorISA_EEEEE6secondB8ue170006Ev, symObjAddr: 0xC7A0, symBinAddr: 0x10001B8B0, symSize: 0x28 }
  - { offsetInCU: 0x1EDD1, offset: 0x5D669, size: 0x8, addend: 0x0, symName: __ZNSt3__125__bucket_list_deallocatorINS_9allocatorIPNS_16__hash_node_baseIPNS_11__hash_nodeINS_17__hash_value_typeI10HoldEmRankiEEPvEEEEEEEclB8ue170006EPSB_, symObjAddr: 0xC7C8, symBinAddr: 0x10001B8D8, symSize: 0x58 }
  - { offsetInCU: 0x1EE04, offset: 0x5D69C, size: 0x8, addend: 0x0, symName: __ZNSt3__122__compressed_pair_elemIPPNS_16__hash_node_baseIPNS_11__hash_nodeINS_17__hash_value_typeI10HoldEmRankiEEPvEEEELi0ELb0EE5__getB8ue170006Ev, symObjAddr: 0xC820, symBinAddr: 0x10001B930, symSize: 0x14 }
  - { offsetInCU: 0x1EE28, offset: 0x5D6C0, size: 0x8, addend: 0x0, symName: __ZNSt3__122__compressed_pair_elemINS_25__bucket_list_deallocatorINS_9allocatorIPNS_16__hash_node_baseIPNS_11__hash_nodeINS_17__hash_value_typeI10HoldEmRankiEEPvEEEEEEEELi1ELb0EE5__getB8ue170006Ev, symObjAddr: 0xC834, symBinAddr: 0x10001B944, symSize: 0x14 }
  - { offsetInCU: 0x1EE4C, offset: 0x5D6E4, size: 0x8, addend: 0x0, symName: __ZNSt3__116allocator_traitsINS_9allocatorIPNS_16__hash_node_baseIPNS_11__hash_nodeINS_17__hash_value_typeI10HoldEmRankiEEPvEEEEEEE10deallocateB8ue170006ERSC_PSB_m, symObjAddr: 0xC848, symBinAddr: 0x10001B958, symSize: 0x34 }
  - { offsetInCU: 0x1EE8E, offset: 0x5D726, size: 0x8, addend: 0x0, symName: __ZNSt3__125__bucket_list_deallocatorINS_9allocatorIPNS_16__hash_node_baseIPNS_11__hash_nodeINS_17__hash_value_typeI10HoldEmRankiEEPvEEEEEEE7__allocB8ue170006Ev, symObjAddr: 0xC87C, symBinAddr: 0x10001B98C, symSize: 0x24 }
  - { offsetInCU: 0x1EEB2, offset: 0x5D74A, size: 0x8, addend: 0x0, symName: __ZNSt3__125__bucket_list_deallocatorINS_9allocatorIPNS_16__hash_node_baseIPNS_11__hash_nodeINS_17__hash_value_typeI10HoldEmRankiEEPvEEEEEEE4sizeB8ue170006Ev, symObjAddr: 0xC8A0, symBinAddr: 0x10001B9B0, symSize: 0x24 }
  - { offsetInCU: 0x1EED6, offset: 0x5D76E, size: 0x8, addend: 0x0, symName: __ZNSt3__19allocatorIPNS_16__hash_node_baseIPNS_11__hash_nodeINS_17__hash_value_typeI10HoldEmRankiEEPvEEEEE10deallocateB8ue170006EPSA_m, symObjAddr: 0xC8C4, symBinAddr: 0x10001B9D4, symSize: 0x40 }
  - { offsetInCU: 0x1EF16, offset: 0x5D7AE, size: 0x8, addend: 0x0, symName: __ZNSt3__117__compressed_pairImNS_9allocatorIPNS_16__hash_node_baseIPNS_11__hash_nodeINS_17__hash_value_typeI10HoldEmRankiEEPvEEEEEEE6secondB8ue170006Ev, symObjAddr: 0xC904, symBinAddr: 0x10001BA14, symSize: 0x24 }
  - { offsetInCU: 0x1EF3A, offset: 0x5D7D2, size: 0x8, addend: 0x0, symName: __ZNSt3__122__compressed_pair_elemINS_9allocatorIPNS_16__hash_node_baseIPNS_11__hash_nodeINS_17__hash_value_typeI10HoldEmRankiEEPvEEEEEELi1ELb1EE5__getB8ue170006Ev, symObjAddr: 0xC928, symBinAddr: 0x10001BA38, symSize: 0x14 }
  - { offsetInCU: 0x1EF5E, offset: 0x5D7F6, size: 0x8, addend: 0x0, symName: __ZNSt3__117__compressed_pairImNS_9allocatorIPNS_16__hash_node_baseIPNS_11__hash_nodeINS_17__hash_value_typeI10HoldEmRankiEEPvEEEEEEE5firstB8ue170006Ev, symObjAddr: 0xC93C, symBinAddr: 0x10001BA4C, symSize: 0x24 }
  - { offsetInCU: 0x1EF91, offset: 0x5D829, size: 0x8, addend: 0x0, symName: __ZNSt3__112__hash_tableINS_17__hash_value_typeI10HoldEmRankiEENS_22__unordered_map_hasherIS2_S3_NS_4hashIS2_EENS_8equal_toIS2_EELb1EEENS_21__unordered_map_equalIS2_S3_S8_S6_Lb1EEENS_9allocatorIS3_EEE25__emplace_unique_key_argsIS2_JRKNS_21piecewise_construct_tENS_5tupleIJRKS2_EEENSJ_IJEEEEEENS_4pairINS_15__hash_iteratorIPNS_11__hash_nodeIS3_PvEEEEbEERKT_DpOT0_, symObjAddr: 0xC974, symBinAddr: 0x10001BA70, symSize: 0x4E8 }
  - { offsetInCU: 0x1F099, offset: 0x5D931, size: 0x8, addend: 0x0, symName: __ZNKSt3__115__hash_iteratorIPNS_11__hash_nodeINS_17__hash_value_typeI10HoldEmRankiEEPvEEEptB8ue170006Ev, symObjAddr: 0xCE8C, symBinAddr: 0x10001BF84, symSize: 0x30 }
  - { offsetInCU: 0x1F0BD, offset: 0x5D955, size: 0x8, addend: 0x0, symName: __ZNSt3__112__hash_tableINS_17__hash_value_typeI10HoldEmRankiEENS_22__unordered_map_hasherIS2_S3_NS_4hashIS2_EENS_8equal_toIS2_EELb1EEENS_21__unordered_map_equalIS2_S3_S8_S6_Lb1EEENS_9allocatorIS3_EEE13hash_functionB8ue170006Ev, symObjAddr: 0xCEBC, symBinAddr: 0x10001BFB4, symSize: 0x28 }
  - { offsetInCU: 0x1F0E1, offset: 0x5D979, size: 0x8, addend: 0x0, symName: __ZNKSt3__122__unordered_map_hasherI10HoldEmRankNS_17__hash_value_typeIS1_iEENS_4hashIS1_EENS_8equal_toIS1_EELb1EEclB8ue170006ERKS1_, symObjAddr: 0xCEE4, symBinAddr: 0x10001BFDC, symSize: 0x30 }
  - { offsetInCU: 0x1F114, offset: 0x5D9AC, size: 0x8, addend: 0x0, symName: __ZNKSt3__112__hash_tableINS_17__hash_value_typeI10HoldEmRankiEENS_22__unordered_map_hasherIS2_S3_NS_4hashIS2_EENS_8equal_toIS2_EELb1EEENS_21__unordered_map_equalIS2_S3_S8_S6_Lb1EEENS_9allocatorIS3_EEE12bucket_countB8ue170006Ev, symObjAddr: 0xCF14, symBinAddr: 0x10001C00C, symSize: 0x28 }
  - { offsetInCU: 0x1F138, offset: 0x5D9D0, size: 0x8, addend: 0x0, symName: __ZNKSt3__110unique_ptrIA_PNS_16__hash_node_baseIPNS_11__hash_nodeINS_17__hash_value_typeI10HoldEmRankiEEPvEEEENS_25__bucket_list_deallocatorINS_9allocatorISA_EEEEEixB8ue170006Em, symObjAddr: 0xCFD4, symBinAddr: 0x10001C034, symSize: 0x34 }
  - { offsetInCU: 0x1F16B, offset: 0x5DA03, size: 0x8, addend: 0x0, symName: __ZNKSt3__116__hash_node_baseIPNS_11__hash_nodeINS_17__hash_value_typeI10HoldEmRankiEEPvEEE6__hashB8ue170006Ev, symObjAddr: 0xD008, symBinAddr: 0x10001C068, symSize: 0x18 }
  - { offsetInCU: 0x1F18F, offset: 0x5DA27, size: 0x8, addend: 0x0, symName: __ZNSt3__112__hash_tableINS_17__hash_value_typeI10HoldEmRankiEENS_22__unordered_map_hasherIS2_S3_NS_4hashIS2_EENS_8equal_toIS2_EELb1EEENS_21__unordered_map_equalIS2_S3_S8_S6_Lb1EEENS_9allocatorIS3_EEE6key_eqB8ue170006Ev, symObjAddr: 0xD020, symBinAddr: 0x10001C080, symSize: 0x28 }
  - { offsetInCU: 0x1F1B3, offset: 0x5DA4B, size: 0x8, addend: 0x0, symName: __ZNKSt3__121__unordered_map_equalI10HoldEmRankNS_17__hash_value_typeIS1_iEENS_8equal_toIS1_EENS_4hashIS1_EELb1EEclB8ue170006ERKS3_RKS1_, symObjAddr: 0xD048, symBinAddr: 0x10001C0A8, symSize: 0x48 }
  - { offsetInCU: 0x1F1F5, offset: 0x5DA8D, size: 0x8, addend: 0x0, symName: __ZNSt3__112__hash_tableINS_17__hash_value_typeI10HoldEmRankiEENS_22__unordered_map_hasherIS2_S3_NS_4hashIS2_EENS_8equal_toIS2_EELb1EEENS_21__unordered_map_equalIS2_S3_S8_S6_Lb1EEENS_9allocatorIS3_EEE21__construct_node_hashIRKNS_21piecewise_construct_tEJNS_5tupleIJRKS2_EEENSJ_IJEEEEEENS_10unique_ptrINS_11__hash_nodeIS3_PvEENS_22__hash_node_destructorINSC_ISR_EEEEEEmOT_DpOT0_, symObjAddr: 0xD090, symBinAddr: 0x10001C0F0, symSize: 0x150 }
  - { offsetInCU: 0x1F28F, offset: 0x5DB27, size: 0x8, addend: 0x0, symName: __ZNSt3__112__hash_tableINS_17__hash_value_typeI10HoldEmRankiEENS_22__unordered_map_hasherIS2_S3_NS_4hashIS2_EENS_8equal_toIS2_EELb1EEENS_21__unordered_map_equalIS2_S3_S8_S6_Lb1EEENS_9allocatorIS3_EEE4sizeB8ue170006Ev, symObjAddr: 0xD1E0, symBinAddr: 0x10001C240, symSize: 0x28 }
  - { offsetInCU: 0x1F2B3, offset: 0x5DB4B, size: 0x8, addend: 0x0, symName: __ZNSt3__112__hash_tableINS_17__hash_value_typeI10HoldEmRankiEENS_22__unordered_map_hasherIS2_S3_NS_4hashIS2_EENS_8equal_toIS2_EELb1EEENS_21__unordered_map_equalIS2_S3_S8_S6_Lb1EEENS_9allocatorIS3_EEE15max_load_factorB8ue170006Ev, symObjAddr: 0xD208, symBinAddr: 0x10001C268, symSize: 0x28 }
  - { offsetInCU: 0x1F2D7, offset: 0x5DB6F, size: 0x8, addend: 0x0, symName: __ZNSt3__112__hash_tableINS_17__hash_value_typeI10HoldEmRankiEENS_22__unordered_map_hasherIS2_S3_NS_4hashIS2_EENS_8equal_toIS2_EELb1EEENS_21__unordered_map_equalIS2_S3_S8_S6_Lb1EEENS_9allocatorIS3_EEE15__rehash_uniqueB8ue170006Em, symObjAddr: 0xD230, symBinAddr: 0x10001C290, symSize: 0x2C }
  - { offsetInCU: 0x1F30A, offset: 0x5DBA2, size: 0x8, addend: 0x0, symName: __ZNSt3__116__hash_node_baseIPNS_11__hash_nodeINS_17__hash_value_typeI10HoldEmRankiEEPvEEE5__ptrB8ue170006Ev, symObjAddr: 0xD2C4, symBinAddr: 0x10001C2BC, symSize: 0x24 }
  - { offsetInCU: 0x1F32E, offset: 0x5DBC6, size: 0x8, addend: 0x0, symName: __ZNKSt3__110unique_ptrINS_11__hash_nodeINS_17__hash_value_typeI10HoldEmRankiEEPvEENS_22__hash_node_destructorINS_9allocatorIS6_EEEEEptB8ue170006Ev, symObjAddr: 0xD2E8, symBinAddr: 0x10001C2E0, symSize: 0x28 }
  - { offsetInCU: 0x1F352, offset: 0x5DBEA, size: 0x8, addend: 0x0, symName: __ZNKSt3__110unique_ptrINS_11__hash_nodeINS_17__hash_value_typeI10HoldEmRankiEEPvEENS_22__hash_node_destructorINS_9allocatorIS6_EEEEE3getB8ue170006Ev, symObjAddr: 0xD310, symBinAddr: 0x10001C308, symSize: 0x28 }
  - { offsetInCU: 0x1F376, offset: 0x5DC0E, size: 0x8, addend: 0x0, symName: __ZNSt3__110unique_ptrINS_11__hash_nodeINS_17__hash_value_typeI10HoldEmRankiEEPvEENS_22__hash_node_destructorINS_9allocatorIS6_EEEEE7releaseB8ue170006Ev, symObjAddr: 0xD338, symBinAddr: 0x10001C330, symSize: 0x44 }
  - { offsetInCU: 0x1F3A9, offset: 0x5DC41, size: 0x8, addend: 0x0, symName: __ZNSt3__110unique_ptrINS_11__hash_nodeINS_17__hash_value_typeI10HoldEmRankiEEPvEENS_22__hash_node_destructorINS_9allocatorIS6_EEEEED1B8ue170006Ev, symObjAddr: 0xD37C, symBinAddr: 0x10001C374, symSize: 0x2C }
  - { offsetInCU: 0x1F3D1, offset: 0x5DC69, size: 0x8, addend: 0x0, symName: __ZNSt3__115__hash_iteratorIPNS_11__hash_nodeINS_17__hash_value_typeI10HoldEmRankiEEPvEEEC1B8ue170006EPNS_16__hash_node_baseIS7_EE, symObjAddr: 0xD3A8, symBinAddr: 0x10001C3A0, symSize: 0x34 }
  - { offsetInCU: 0x1F40D, offset: 0x5DCA5, size: 0x8, addend: 0x0, symName: __ZNSt3__14pairINS_15__hash_iteratorIPNS_11__hash_nodeINS_17__hash_value_typeI10HoldEmRankiEEPvEEEEbEC1B8ue170006IS9_RbLS6_0EEEOT_OT0_, symObjAddr: 0xD3DC, symBinAddr: 0x10001C3D4, symSize: 0x3C }
  - { offsetInCU: 0x1F46A, offset: 0x5DD02, size: 0x8, addend: 0x0, symName: __ZNSt3__117__compressed_pairImNS_22__unordered_map_hasherI10HoldEmRankNS_17__hash_value_typeIS2_iEENS_4hashIS2_EENS_8equal_toIS2_EELb1EEEE6secondB8ue170006Ev, symObjAddr: 0xD418, symBinAddr: 0x10001C410, symSize: 0x24 }
  - { offsetInCU: 0x1F48E, offset: 0x5DD26, size: 0x8, addend: 0x0, symName: __ZNSt3__122__compressed_pair_elemINS_22__unordered_map_hasherI10HoldEmRankNS_17__hash_value_typeIS2_iEENS_4hashIS2_EENS_8equal_toIS2_EELb1EEELi1ELb1EE5__getB8ue170006Ev, symObjAddr: 0xD43C, symBinAddr: 0x10001C434, symSize: 0x14 }
  - { offsetInCU: 0x1F4B2, offset: 0x5DD4A, size: 0x8, addend: 0x0, symName: __ZNKSt3__110unique_ptrIA_PNS_16__hash_node_baseIPNS_11__hash_nodeINS_17__hash_value_typeI10HoldEmRankiEEPvEEEENS_25__bucket_list_deallocatorINS_9allocatorISA_EEEEE11get_deleterB8ue170006Ev, symObjAddr: 0xD494, symBinAddr: 0x10001C474, symSize: 0x24 }
  - { offsetInCU: 0x1F4D6, offset: 0x5DD6E, size: 0x8, addend: 0x0, symName: __ZNKSt3__125__bucket_list_deallocatorINS_9allocatorIPNS_16__hash_node_baseIPNS_11__hash_nodeINS_17__hash_value_typeI10HoldEmRankiEEPvEEEEEEE4sizeB8ue170006Ev, symObjAddr: 0xD4B8, symBinAddr: 0x10001C498, symSize: 0x28 }
  - { offsetInCU: 0x1F4FA, offset: 0x5DD92, size: 0x8, addend: 0x0, symName: __ZNKSt3__117__compressed_pairIPPNS_16__hash_node_baseIPNS_11__hash_nodeINS_17__hash_value_typeI10HoldEmRankiEEPvEEEENS_25__bucket_list_deallocatorINS_9allocatorISA_EEEEE6secondB8ue170006Ev, symObjAddr: 0xD4E0, symBinAddr: 0x10001C4C0, symSize: 0x28 }
  - { offsetInCU: 0x1F51E, offset: 0x5DDB6, size: 0x8, addend: 0x0, symName: __ZNKSt3__122__compressed_pair_elemINS_25__bucket_list_deallocatorINS_9allocatorIPNS_16__hash_node_baseIPNS_11__hash_nodeINS_17__hash_value_typeI10HoldEmRankiEEPvEEEEEEEELi1ELb0EE5__getB8ue170006Ev, symObjAddr: 0xD508, symBinAddr: 0x10001C4E8, symSize: 0x14 }
  - { offsetInCU: 0x1F542, offset: 0x5DDDA, size: 0x8, addend: 0x0, symName: __ZNKSt3__117__compressed_pairImNS_9allocatorIPNS_16__hash_node_baseIPNS_11__hash_nodeINS_17__hash_value_typeI10HoldEmRankiEEPvEEEEEEE5firstB8ue170006Ev, symObjAddr: 0xD51C, symBinAddr: 0x10001C4FC, symSize: 0x24 }
  - { offsetInCU: 0x1F566, offset: 0x5DDFE, size: 0x8, addend: 0x0, symName: __ZNKSt3__117__compressed_pairIPPNS_16__hash_node_baseIPNS_11__hash_nodeINS_17__hash_value_typeI10HoldEmRankiEEPvEEEENS_25__bucket_list_deallocatorINS_9allocatorISA_EEEEE5firstB8ue170006Ev, symObjAddr: 0xD554, symBinAddr: 0x10001C520, symSize: 0x24 }
  - { offsetInCU: 0x1F58A, offset: 0x5DE22, size: 0x8, addend: 0x0, symName: __ZNKSt3__122__compressed_pair_elemIPPNS_16__hash_node_baseIPNS_11__hash_nodeINS_17__hash_value_typeI10HoldEmRankiEEPvEEEELi0ELb0EE5__getB8ue170006Ev, symObjAddr: 0xD578, symBinAddr: 0x10001C544, symSize: 0x14 }
  - { offsetInCU: 0x1F5AE, offset: 0x5DE46, size: 0x8, addend: 0x0, symName: __ZNSt3__117__compressed_pairIfNS_21__unordered_map_equalI10HoldEmRankNS_17__hash_value_typeIS2_iEENS_8equal_toIS2_EENS_4hashIS2_EELb1EEEE6secondB8ue170006Ev, symObjAddr: 0xD58C, symBinAddr: 0x10001C558, symSize: 0x24 }
  - { offsetInCU: 0x1F5D2, offset: 0x5DE6A, size: 0x8, addend: 0x0, symName: __ZNSt3__122__compressed_pair_elemINS_21__unordered_map_equalI10HoldEmRankNS_17__hash_value_typeIS2_iEENS_8equal_toIS2_EENS_4hashIS2_EELb1EEELi1ELb1EE5__getB8ue170006Ev, symObjAddr: 0xD5B0, symBinAddr: 0x10001C57C, symSize: 0x14 }
  - { offsetInCU: 0x1F5F6, offset: 0x5DE8E, size: 0x8, addend: 0x0, symName: __ZNKSt3__18equal_toI10HoldEmRankEclB8ue170006ERKS1_S4_, symObjAddr: 0xD5C4, symBinAddr: 0x10001C590, symSize: 0x34 }
  - { offsetInCU: 0x1F638, offset: 0x5DED0, size: 0x8, addend: 0x0, symName: __ZNKSt3__117__hash_value_typeI10HoldEmRankiE11__get_valueB8ue170006Ev, symObjAddr: 0xD5F8, symBinAddr: 0x10001C5C4, symSize: 0x24 }
  - { offsetInCU: 0x1F65C, offset: 0x5DEF4, size: 0x8, addend: 0x0, symName: __ZNSt3__116allocator_traitsINS_9allocatorINS_11__hash_nodeINS_17__hash_value_typeI10HoldEmRankiEEPvEEEEE8allocateB8ue170006ERS8_m, symObjAddr: 0xD654, symBinAddr: 0x10001C620, symSize: 0x2C }
  - { offsetInCU: 0x1F68F, offset: 0x5DF27, size: 0x8, addend: 0x0, symName: __ZNSt3__122__hash_node_destructorINS_9allocatorINS_11__hash_nodeINS_17__hash_value_typeI10HoldEmRankiEEPvEEEEEC1B8ue170006ERS8_b, symObjAddr: 0xD680, symBinAddr: 0x10001C64C, symSize: 0x48 }
  - { offsetInCU: 0x1F6DA, offset: 0x5DF72, size: 0x8, addend: 0x0, symName: __ZNSt3__110unique_ptrINS_11__hash_nodeINS_17__hash_value_typeI10HoldEmRankiEEPvEENS_22__hash_node_destructorINS_9allocatorIS6_EEEEEC1B8ue170006ILb1EvEEPS6_NS_16__dependent_typeINS_27__unique_ptr_deleter_sfinaeISA_EEXT_EE20__good_rval_ref_typeE, symObjAddr: 0xD6C8, symBinAddr: 0x10001C694, symSize: 0x3C }
  - { offsetInCU: 0x1F729, offset: 0x5DFC1, size: 0x8, addend: 0x0, symName: __ZNSt3__116allocator_traitsINS_9allocatorINS_11__hash_nodeINS_17__hash_value_typeI10HoldEmRankiEEPvEEEEE9constructB8ue170006INS_4pairIKS4_iEEJRKNS_21piecewise_construct_tENS_5tupleIJRSC_EEENSH_IJEEEEvEEvRS8_PT_DpOT0_, symObjAddr: 0xD704, symBinAddr: 0x10001C6D0, symSize: 0x44 }
  - { offsetInCU: 0x1F7A8, offset: 0x5E040, size: 0x8, addend: 0x0, symName: __ZNSt3__110unique_ptrINS_11__hash_nodeINS_17__hash_value_typeI10HoldEmRankiEEPvEENS_22__hash_node_destructorINS_9allocatorIS6_EEEEE11get_deleterB8ue170006Ev, symObjAddr: 0xD748, symBinAddr: 0x10001C714, symSize: 0x24 }
  - { offsetInCU: 0x1F7CC, offset: 0x5E064, size: 0x8, addend: 0x0, symName: __ZNSt3__19allocatorINS_11__hash_nodeINS_17__hash_value_typeI10HoldEmRankiEEPvEEE8allocateB8ue170006Em, symObjAddr: 0xD76C, symBinAddr: 0x10001C738, symSize: 0x5C }
  - { offsetInCU: 0x1F808, offset: 0x5E0A0, size: 0x8, addend: 0x0, symName: __ZNSt3__116allocator_traitsINS_9allocatorINS_11__hash_nodeINS_17__hash_value_typeI10HoldEmRankiEEPvEEEEE8max_sizeB8ue170006IS8_vEEmRKS8_, symObjAddr: 0xD7C8, symBinAddr: 0x10001C794, symSize: 0x24 }
  - { offsetInCU: 0x1F836, offset: 0x5E0CE, size: 0x8, addend: 0x0, symName: __ZNKSt3__19allocatorINS_11__hash_nodeINS_17__hash_value_typeI10HoldEmRankiEEPvEEE8max_sizeB8ue170006Ev, symObjAddr: 0xD7EC, symBinAddr: 0x10001C7B8, symSize: 0x18 }
  - { offsetInCU: 0x1F85A, offset: 0x5E0F2, size: 0x8, addend: 0x0, symName: __ZNSt3__122__hash_node_destructorINS_9allocatorINS_11__hash_nodeINS_17__hash_value_typeI10HoldEmRankiEEPvEEEEEC2B8ue170006ERS8_b, symObjAddr: 0xD804, symBinAddr: 0x10001C7D0, symSize: 0x38 }
  - { offsetInCU: 0x1F8A0, offset: 0x5E138, size: 0x8, addend: 0x0, symName: __ZNSt3__110unique_ptrINS_11__hash_nodeINS_17__hash_value_typeI10HoldEmRankiEEPvEENS_22__hash_node_destructorINS_9allocatorIS6_EEEEEC2B8ue170006ILb1EvEEPS6_NS_16__dependent_typeINS_27__unique_ptr_deleter_sfinaeISA_EEXT_EE20__good_rval_ref_typeE, symObjAddr: 0xD83C, symBinAddr: 0x10001C808, symSize: 0x48 }
  - { offsetInCU: 0x1F8EF, offset: 0x5E187, size: 0x8, addend: 0x0, symName: __ZNSt3__117__compressed_pairIPNS_11__hash_nodeINS_17__hash_value_typeI10HoldEmRankiEEPvEENS_22__hash_node_destructorINS_9allocatorIS6_EEEEEC1B8ue170006IRS7_SB_EEOT_OT0_, symObjAddr: 0xD884, symBinAddr: 0x10001C850, symSize: 0x3C }
  - { offsetInCU: 0x1F945, offset: 0x5E1DD, size: 0x8, addend: 0x0, symName: __ZNSt3__117__compressed_pairIPNS_11__hash_nodeINS_17__hash_value_typeI10HoldEmRankiEEPvEENS_22__hash_node_destructorINS_9allocatorIS6_EEEEEC2B8ue170006IRS7_SB_EEOT_OT0_, symObjAddr: 0xD8C0, symBinAddr: 0x10001C88C, symSize: 0x48 }
  - { offsetInCU: 0x1F99B, offset: 0x5E233, size: 0x8, addend: 0x0, symName: __ZNSt3__122__compressed_pair_elemIPNS_11__hash_nodeINS_17__hash_value_typeI10HoldEmRankiEEPvEELi0ELb0EEC2B8ue170006IRS7_vEEOT_, symObjAddr: 0xD908, symBinAddr: 0x10001C8D4, symSize: 0x24 }
  - { offsetInCU: 0x1F9DB, offset: 0x5E273, size: 0x8, addend: 0x0, symName: __ZNSt3__122__compressed_pair_elemINS_22__hash_node_destructorINS_9allocatorINS_11__hash_nodeINS_17__hash_value_typeI10HoldEmRankiEEPvEEEEEELi1ELb0EEC2B8ue170006ISA_vEEOT_, symObjAddr: 0xD92C, symBinAddr: 0x10001C8F8, symSize: 0x24 }
  - { offsetInCU: 0x1FA1B, offset: 0x5E2B3, size: 0x8, addend: 0x0, symName: __ZNSt3__19allocatorINS_11__hash_nodeINS_17__hash_value_typeI10HoldEmRankiEEPvEEE9constructB8ue170006INS_4pairIKS3_iEEJRKNS_21piecewise_construct_tENS_5tupleIJRSA_EEENSF_IJEEEEEEvPT_DpOT0_, symObjAddr: 0xD950, symBinAddr: 0x10001C91C, symSize: 0x44 }
  - { offsetInCU: 0x1FA95, offset: 0x5E32D, size: 0x8, addend: 0x0, symName: __ZNSt3__14pairIK10HoldEmRankiEC1B8ue170006IJRS2_EJEEENS_21piecewise_construct_tENS_5tupleIJDpT_EEENS7_IJDpT0_EEE, symObjAddr: 0xD994, symBinAddr: 0x10001C960, symSize: 0x44 }
  - { offsetInCU: 0x1FAFB, offset: 0x5E393, size: 0x8, addend: 0x0, symName: __ZNSt3__14pairIK10HoldEmRankiEC1B8ue170006IJRS2_EJEJLm0EEJEEENS_21piecewise_construct_tERNS_5tupleIJDpT_EEERNS7_IJDpT0_EEENS_15__tuple_indicesIJXspT1_EEEENSG_IJXspT2_EEEE, symObjAddr: 0xD9D8, symBinAddr: 0x10001C9A4, symSize: 0x3C }
  - { offsetInCU: 0x1FB8D, offset: 0x5E425, size: 0x8, addend: 0x0, symName: __ZNSt3__14pairIK10HoldEmRankiEC2B8ue170006IJRS2_EJEJLm0EEJEEENS_21piecewise_construct_tERNS_5tupleIJDpT_EEERNS7_IJDpT0_EEENS_15__tuple_indicesIJXspT1_EEEENSG_IJXspT2_EEEE, symObjAddr: 0xDA14, symBinAddr: 0x10001C9E0, symSize: 0x48 }
  - { offsetInCU: 0x1FC1F, offset: 0x5E4B7, size: 0x8, addend: 0x0, symName: __ZNSt3__112__tuple_leafILm0ERK10HoldEmRankLb0EE3getB8ue170006Ev, symObjAddr: 0xDA80, symBinAddr: 0x10001CA4C, symSize: 0x18 }
  - { offsetInCU: 0x1FC43, offset: 0x5E4DB, size: 0x8, addend: 0x0, symName: __ZNSt3__117__compressed_pairIPNS_11__hash_nodeINS_17__hash_value_typeI10HoldEmRankiEEPvEENS_22__hash_node_destructorINS_9allocatorIS6_EEEEE6secondB8ue170006Ev, symObjAddr: 0xDA98, symBinAddr: 0x10001CA64, symSize: 0x28 }
  - { offsetInCU: 0x1FC67, offset: 0x5E4FF, size: 0x8, addend: 0x0, symName: __ZNSt3__122__compressed_pair_elemINS_22__hash_node_destructorINS_9allocatorINS_11__hash_nodeINS_17__hash_value_typeI10HoldEmRankiEEPvEEEEEELi1ELb0EE5__getB8ue170006Ev, symObjAddr: 0xDAC0, symBinAddr: 0x10001CA8C, symSize: 0x14 }
  - { offsetInCU: 0x1FC8B, offset: 0x5E523, size: 0x8, addend: 0x0, symName: __ZNSt3__117__compressed_pairImNS_22__unordered_map_hasherI10HoldEmRankNS_17__hash_value_typeIS2_iEENS_4hashIS2_EENS_8equal_toIS2_EELb1EEEE5firstB8ue170006Ev, symObjAddr: 0xDAD4, symBinAddr: 0x10001CAA0, symSize: 0x24 }
  - { offsetInCU: 0x1FCAF, offset: 0x5E547, size: 0x8, addend: 0x0, symName: __ZNSt3__117__compressed_pairIfNS_21__unordered_map_equalI10HoldEmRankNS_17__hash_value_typeIS2_iEENS_8equal_toIS2_EENS_4hashIS2_EELb1EEEE5firstB8ue170006Ev, symObjAddr: 0xDAF8, symBinAddr: 0x10001CAC4, symSize: 0x24 }
  - { offsetInCU: 0x1FCD3, offset: 0x5E56B, size: 0x8, addend: 0x0, symName: __ZNSt3__112__hash_tableINS_17__hash_value_typeI10HoldEmRankiEENS_22__unordered_map_hasherIS2_S3_NS_4hashIS2_EENS_8equal_toIS2_EELb1EEENS_21__unordered_map_equalIS2_S3_S8_S6_Lb1EEENS_9allocatorIS3_EEE8__rehashILb1EEEvm, symObjAddr: 0xDB30, symBinAddr: 0x10001CAE8, symSize: 0x1A8 }
  - { offsetInCU: 0x1FD21, offset: 0x5E5B9, size: 0x8, addend: 0x0, symName: __ZNSt3__112__hash_tableINS_17__hash_value_typeI10HoldEmRankiEENS_22__unordered_map_hasherIS2_S3_NS_4hashIS2_EENS_8equal_toIS2_EELb1EEENS_21__unordered_map_equalIS2_S3_S8_S6_Lb1EEENS_9allocatorIS3_EEE11__do_rehashILb1EEEvm, symObjAddr: 0xDCD8, symBinAddr: 0x10001CC90, symSize: 0x288 }
  - { offsetInCU: 0x1FE06, offset: 0x5E69E, size: 0x8, addend: 0x0, symName: __ZNSt3__110unique_ptrIA_PNS_16__hash_node_baseIPNS_11__hash_nodeINS_17__hash_value_typeI10HoldEmRankiEEPvEEEENS_25__bucket_list_deallocatorINS_9allocatorISA_EEEEE11get_deleterB8ue170006Ev, symObjAddr: 0xDFCC, symBinAddr: 0x10001CF18, symSize: 0x24 }
  - { offsetInCU: 0x1FE2A, offset: 0x5E6C2, size: 0x8, addend: 0x0, symName: __ZNSt3__110unique_ptrIA_PNS_16__hash_node_baseIPNS_11__hash_nodeINS_17__hash_value_typeI10HoldEmRankiEEPvEEEENS_25__bucket_list_deallocatorINS_9allocatorISA_EEEEE5resetB8ue170006IPSA_EENS_9enable_ifIXsr28_CheckArrayPointerConversionIT_EE5valueEvE4typeESK_, symObjAddr: 0xDFF0, symBinAddr: 0x10001CF3C, symSize: 0x78 }
  - { offsetInCU: 0x1FE75, offset: 0x5E70D, size: 0x8, addend: 0x0, symName: __ZNSt3__116allocator_traitsINS_9allocatorIPNS_16__hash_node_baseIPNS_11__hash_nodeINS_17__hash_value_typeI10HoldEmRankiEEPvEEEEEEE8allocateB8ue170006ERSC_m, symObjAddr: 0xE068, symBinAddr: 0x10001CFB4, symSize: 0x2C }
  - { offsetInCU: 0x1FEA8, offset: 0x5E740, size: 0x8, addend: 0x0, symName: __ZNSt3__19allocatorIPNS_16__hash_node_baseIPNS_11__hash_nodeINS_17__hash_value_typeI10HoldEmRankiEEPvEEEEE8allocateB8ue170006Em, symObjAddr: 0xE094, symBinAddr: 0x10001CFE0, symSize: 0x58 }
  - { offsetInCU: 0x1FEE4, offset: 0x5E77C, size: 0x8, addend: 0x0, symName: __ZNSt3__116allocator_traitsINS_9allocatorIPNS_16__hash_node_baseIPNS_11__hash_nodeINS_17__hash_value_typeI10HoldEmRankiEEPvEEEEEEE8max_sizeB8ue170006ISC_vEEmRKSC_, symObjAddr: 0xE0EC, symBinAddr: 0x10001D038, symSize: 0x24 }
  - { offsetInCU: 0x1FF12, offset: 0x5E7AA, size: 0x8, addend: 0x0, symName: __ZNKSt3__19allocatorIPNS_16__hash_node_baseIPNS_11__hash_nodeINS_17__hash_value_typeI10HoldEmRankiEEPvEEEEE8max_sizeB8ue170006Ev, symObjAddr: 0xE110, symBinAddr: 0x10001D05C, symSize: 0x14 }
  - { offsetInCU: 0x1FF36, offset: 0x5E7CE, size: 0x8, addend: 0x0, symName: __ZNKSt3__117__compressed_pairIPNS_11__hash_nodeINS_17__hash_value_typeI10HoldEmRankiEEPvEENS_22__hash_node_destructorINS_9allocatorIS6_EEEEE5firstB8ue170006Ev, symObjAddr: 0xE124, symBinAddr: 0x10001D070, symSize: 0x24 }
  - { offsetInCU: 0x1FF5A, offset: 0x5E7F2, size: 0x8, addend: 0x0, symName: __ZNKSt3__122__compressed_pair_elemIPNS_11__hash_nodeINS_17__hash_value_typeI10HoldEmRankiEEPvEELi0ELb0EE5__getB8ue170006Ev, symObjAddr: 0xE148, symBinAddr: 0x10001D094, symSize: 0x14 }
  - { offsetInCU: 0x1FF7E, offset: 0x5E816, size: 0x8, addend: 0x0, symName: __ZNSt3__117__compressed_pairIPNS_11__hash_nodeINS_17__hash_value_typeI10HoldEmRankiEEPvEENS_22__hash_node_destructorINS_9allocatorIS6_EEEEE5firstB8ue170006Ev, symObjAddr: 0xE15C, symBinAddr: 0x10001D0A8, symSize: 0x24 }
  - { offsetInCU: 0x1FFA2, offset: 0x5E83A, size: 0x8, addend: 0x0, symName: __ZNSt3__122__compressed_pair_elemIPNS_11__hash_nodeINS_17__hash_value_typeI10HoldEmRankiEEPvEELi0ELb0EE5__getB8ue170006Ev, symObjAddr: 0xE180, symBinAddr: 0x10001D0CC, symSize: 0x14 }
  - { offsetInCU: 0x1FFC6, offset: 0x5E85E, size: 0x8, addend: 0x0, symName: __ZNSt3__110unique_ptrINS_11__hash_nodeINS_17__hash_value_typeI10HoldEmRankiEEPvEENS_22__hash_node_destructorINS_9allocatorIS6_EEEEED2B8ue170006Ev, symObjAddr: 0xE194, symBinAddr: 0x10001D0E0, symSize: 0x30 }
  - { offsetInCU: 0x1FFEE, offset: 0x5E886, size: 0x8, addend: 0x0, symName: __ZNSt3__110unique_ptrINS_11__hash_nodeINS_17__hash_value_typeI10HoldEmRankiEEPvEENS_22__hash_node_destructorINS_9allocatorIS6_EEEEE5resetB8ue170006EPS6_, symObjAddr: 0xE1C4, symBinAddr: 0x10001D110, symSize: 0x78 }
  - { offsetInCU: 0x20030, offset: 0x5E8C8, size: 0x8, addend: 0x0, symName: __ZNSt3__122__hash_node_destructorINS_9allocatorINS_11__hash_nodeINS_17__hash_value_typeI10HoldEmRankiEEPvEEEEEclB8ue170006EPS7_, symObjAddr: 0xE23C, symBinAddr: 0x10001D188, symSize: 0x94 }
  - { offsetInCU: 0x20063, offset: 0x5E8FB, size: 0x8, addend: 0x0, symName: __ZNSt3__115__hash_iteratorIPNS_11__hash_nodeINS_17__hash_value_typeI10HoldEmRankiEEPvEEEC2B8ue170006EPNS_16__hash_node_baseIS7_EE, symObjAddr: 0xE2D0, symBinAddr: 0x10001D21C, symSize: 0x20 }
  - { offsetInCU: 0x2009A, offset: 0x5E932, size: 0x8, addend: 0x0, symName: __ZNSt3__14pairINS_15__hash_iteratorIPNS_11__hash_nodeINS_17__hash_value_typeI10HoldEmRankiEEPvEEEEbEC2B8ue170006IS9_RbLS6_0EEEOT_OT0_, symObjAddr: 0xE2F0, symBinAddr: 0x10001D23C, symSize: 0x38 }
  - { offsetInCU: 0x200F7, offset: 0x5E98F, size: 0x8, addend: 0x0, symName: __ZNSt3__15tupleIJRK10HoldEmRankEEC1B8ue170006INS_4_AndELi0EEES3_, symObjAddr: 0xE328, symBinAddr: 0x10001D274, symSize: 0x34 }
  - { offsetInCU: 0x2013F, offset: 0x5E9D7, size: 0x8, addend: 0x0, symName: __ZNSt3__15tupleIJRK10HoldEmRankEEC2B8ue170006INS_4_AndELi0EEES3_, symObjAddr: 0xE35C, symBinAddr: 0x10001D2A8, symSize: 0x34 }
  - { offsetInCU: 0x20187, offset: 0x5EA1F, size: 0x8, addend: 0x0, symName: __ZNSt3__112__tuple_implINS_15__tuple_indicesIJLm0EEEEJRK10HoldEmRankEEC1B8ue170006IJLm0EEJS5_EJEJEJS5_EEENS1_IJXspT_EEEENS_13__tuple_typesIJDpT0_EEENS1_IJXspT1_EEEENS9_IJDpT2_EEEDpOT3_, symObjAddr: 0xE390, symBinAddr: 0x10001D2DC, symSize: 0x34 }
  - { offsetInCU: 0x2021D, offset: 0x5EAB5, size: 0x8, addend: 0x0, symName: __ZNSt3__112__tuple_implINS_15__tuple_indicesIJLm0EEEEJRK10HoldEmRankEEC2B8ue170006IJLm0EEJS5_EJEJEJS5_EEENS1_IJXspT_EEEENS_13__tuple_typesIJDpT0_EEENS1_IJXspT1_EEEENS9_IJDpT2_EEEDpOT3_, symObjAddr: 0xE3C4, symBinAddr: 0x10001D310, symSize: 0x34 }
  - { offsetInCU: 0x202B3, offset: 0x5EB4B, size: 0x8, addend: 0x0, symName: __ZNSt3__112__tuple_leafILm0ERK10HoldEmRankLb0EEC2B8ue170006IS3_vEEOT_, symObjAddr: 0xE3F8, symBinAddr: 0x10001D344, symSize: 0x20 }
  - { offsetInCU: 0x202F4, offset: 0x5EB8C, size: 0x8, addend: 0x0, symName: __ZNSt3__114pointer_traitsIPNS_17__hash_value_typeI10HoldEmRankiEEE10pointer_toB8ue170006ERS3_, symObjAddr: 0xE418, symBinAddr: 0x10001D364, symSize: 0x14 }
  - { offsetInCU: 0x20316, offset: 0x5EBAE, size: 0x8, addend: 0x0, symName: __ZNSt3__112__hash_tableINS_17__hash_value_typeI10HoldEmRankiEENS_22__unordered_map_hasherIS2_S3_NS_4hashIS2_EENS_8equal_toIS2_EELb1EEENS_21__unordered_map_equalIS2_S3_S8_S6_Lb1EEENS_9allocatorIS3_EEE5beginEv, symObjAddr: 0xE42C, symBinAddr: 0x10001D378, symSize: 0x38 }
  - { offsetInCU: 0x2033C, offset: 0x5EBD4, size: 0x8, addend: 0x0, symName: __ZNSt3__119__hash_map_iteratorINS_15__hash_iteratorIPNS_11__hash_nodeINS_17__hash_value_typeI10HoldEmRankiEEPvEEEEEC1B8ue170006ES9_, symObjAddr: 0xE464, symBinAddr: 0x10001D3B0, symSize: 0x34 }
  - { offsetInCU: 0x20373, offset: 0x5EC0B, size: 0x8, addend: 0x0, symName: __ZNSt3__119__hash_map_iteratorINS_15__hash_iteratorIPNS_11__hash_nodeINS_17__hash_value_typeI10HoldEmRankiEEPvEEEEEC2B8ue170006ES9_, symObjAddr: 0xE498, symBinAddr: 0x10001D3E4, symSize: 0x20 }
  - { offsetInCU: 0x203AA, offset: 0x5EC42, size: 0x8, addend: 0x0, symName: __ZNSt3__112__hash_tableINS_17__hash_value_typeI10HoldEmRankiEENS_22__unordered_map_hasherIS2_S3_NS_4hashIS2_EENS_8equal_toIS2_EELb1EEENS_21__unordered_map_equalIS2_S3_S8_S6_Lb1EEENS_9allocatorIS3_EEE3endEv, symObjAddr: 0xE4B8, symBinAddr: 0x10001D404, symSize: 0x2C }
  - { offsetInCU: 0x203D0, offset: 0x5EC68, size: 0x8, addend: 0x0, symName: __ZNSt3__115__hash_iteratorIPNS_11__hash_nodeINS_17__hash_value_typeI10HoldEmRankiEEPvEEEppB8ue170006Ev, symObjAddr: 0xE548, symBinAddr: 0x10001D494, symSize: 0x20 }
  - { offsetInCU: 0x203F4, offset: 0x5EC8C, size: 0x8, addend: 0x0, symName: __ZNSt3__18_IterOpsINS_17_ClassicAlgPolicyEE4nextB8ue170006INS_11__wrap_iterIP4CardI10HoldEmRank4SuitEEEEET_SB_SB_, symObjAddr: 0xE92C, symBinAddr: 0x10001D638, symSize: 0x20 }
  - { offsetInCU: 0x20429, offset: 0x5ECC1, size: 0x8, addend: 0x0, symName: __ZNSt3__111__wrap_iterIP4CardI10HoldEmRank4SuitEEmmB8ue170006Ev, symObjAddr: 0xE9D0, symBinAddr: 0x10001D6A0, symSize: 0x20 }
  - { offsetInCU: 0x20452, offset: 0x5ECEA, size: 0x8, addend: 0x0, symName: __ZNSt3__18_IterOpsINS_17_ClassicAlgPolicyEE9iter_swapB8ue170006IRNS_11__wrap_iterIP4CardI10HoldEmRank4SuitEEESA_EEvOT_OT0_, symObjAddr: 0xEBE8, symBinAddr: 0x10001D708, symSize: 0x44 }
  - { offsetInCU: 0x20495, offset: 0x5ED2D, size: 0x8, addend: 0x0, symName: __ZNKSt3__111__wrap_iterIP4CardI10HoldEmRank4SuitEEplB8ue170006El, symObjAddr: 0xEC2C, symBinAddr: 0x10001D74C, symSize: 0x3C }
  - { offsetInCU: 0x204D6, offset: 0x5ED6E, size: 0x8, addend: 0x0, symName: __ZNSt3__111__wrap_iterIP4CardI10HoldEmRank4SuitEEpLB8ue170006El, symObjAddr: 0xF484, symBinAddr: 0x10001D7D8, symSize: 0x28 }
  - { offsetInCU: 0x20508, offset: 0x5EDA0, size: 0x8, addend: 0x0, symName: __ZNSt3__16vectorIN10HoldEmGame6PlayerENS_9allocatorIS2_EEEC2B8ue170006Ev, symObjAddr: 0xF4AC, symBinAddr: 0x10001D800, symSize: 0x4C }
  - { offsetInCU: 0x20530, offset: 0x5EDC8, size: 0x8, addend: 0x0, symName: __ZNSt3__117__compressed_pairIPN10HoldEmGame6PlayerENS_9allocatorIS2_EEEC1B8ue170006IDnNS_18__default_init_tagEEEOT_OT0_, symObjAddr: 0xF4F8, symBinAddr: 0x10001D84C, symSize: 0x3C }
  - { offsetInCU: 0x20586, offset: 0x5EE1E, size: 0x8, addend: 0x0, symName: __ZNSt3__117__compressed_pairIPN10HoldEmGame6PlayerENS_9allocatorIS2_EEEC2B8ue170006IDnNS_18__default_init_tagEEEOT_OT0_, symObjAddr: 0xF534, symBinAddr: 0x10001D888, symSize: 0x40 }
  - { offsetInCU: 0x205DC, offset: 0x5EE74, size: 0x8, addend: 0x0, symName: __ZNSt3__122__compressed_pair_elemIPN10HoldEmGame6PlayerELi0ELb0EEC2B8ue170006IDnvEEOT_, symObjAddr: 0xF574, symBinAddr: 0x10001D8C8, symSize: 0x1C }
  - { offsetInCU: 0x2061C, offset: 0x5EEB4, size: 0x8, addend: 0x0, symName: __ZNSt3__122__compressed_pair_elemINS_9allocatorIN10HoldEmGame6PlayerEEELi1ELb1EEC2B8ue170006ENS_18__default_init_tagE, symObjAddr: 0xF590, symBinAddr: 0x10001D8E4, symSize: 0x2C }
  - { offsetInCU: 0x2064E, offset: 0x5EEE6, size: 0x8, addend: 0x0, symName: __ZNSt3__19allocatorIN10HoldEmGame6PlayerEEC2B8ue170006Ev, symObjAddr: 0xF5BC, symBinAddr: 0x10001D910, symSize: 0x2C }
  - { offsetInCU: 0x20676, offset: 0x5EF0E, size: 0x8, addend: 0x0, symName: __ZNSt3__116__non_trivial_ifILb1ENS_9allocatorIN10HoldEmGame6PlayerEEEEC2B8ue170006Ev, symObjAddr: 0xF5E8, symBinAddr: 0x10001D93C, symSize: 0x14 }
  - { offsetInCU: 0x2069E, offset: 0x5EF36, size: 0x8, addend: 0x0, symName: __ZNSt3__16vectorIN10HoldEmGame6PlayerENS_9allocatorIS2_EEED2B8ue170006Ev, symObjAddr: 0xF5FC, symBinAddr: 0x10001D950, symSize: 0x44 }
  - { offsetInCU: 0x206C6, offset: 0x5EF5E, size: 0x8, addend: 0x0, symName: __ZNSt3__16vectorIN10HoldEmGame6PlayerENS_9allocatorIS2_EEE16__destroy_vectorC1B8ue170006ERS5_, symObjAddr: 0xF640, symBinAddr: 0x10001D994, symSize: 0x34 }
  - { offsetInCU: 0x206FD, offset: 0x5EF95, size: 0x8, addend: 0x0, symName: __ZNSt3__16vectorIN10HoldEmGame6PlayerENS_9allocatorIS2_EEE16__destroy_vectorclB8ue170006Ev, symObjAddr: 0xF674, symBinAddr: 0x10001D9C8, symSize: 0x90 }
  - { offsetInCU: 0x20721, offset: 0x5EFB9, size: 0x8, addend: 0x0, symName: __ZNSt3__16vectorIN10HoldEmGame6PlayerENS_9allocatorIS2_EEE16__destroy_vectorC2B8ue170006ERS5_, symObjAddr: 0xF704, symBinAddr: 0x10001DA58, symSize: 0x20 }
  - { offsetInCU: 0x20758, offset: 0x5EFF0, size: 0x8, addend: 0x0, symName: __ZNSt3__16vectorIN10HoldEmGame6PlayerENS_9allocatorIS2_EEE7__clearB8ue170006Ev, symObjAddr: 0xF724, symBinAddr: 0x10001DA78, symSize: 0x28 }
  - { offsetInCU: 0x2077C, offset: 0x5F014, size: 0x8, addend: 0x0, symName: __ZNKSt3__16vectorIN10HoldEmGame6PlayerENS_9allocatorIS2_EEE17__annotate_deleteB8ue170006Ev, symObjAddr: 0xF74C, symBinAddr: 0x10001DAA0, symSize: 0xB8 }
  - { offsetInCU: 0x207A0, offset: 0x5F038, size: 0x8, addend: 0x0, symName: __ZNSt3__116allocator_traitsINS_9allocatorIN10HoldEmGame6PlayerEEEE10deallocateB8ue170006ERS4_PS3_m, symObjAddr: 0xF804, symBinAddr: 0x10001DB58, symSize: 0x34 }
  - { offsetInCU: 0x207E2, offset: 0x5F07A, size: 0x8, addend: 0x0, symName: __ZNSt3__16vectorIN10HoldEmGame6PlayerENS_9allocatorIS2_EEE7__allocB8ue170006Ev, symObjAddr: 0xF838, symBinAddr: 0x10001DB8C, symSize: 0x28 }
  - { offsetInCU: 0x20806, offset: 0x5F09E, size: 0x8, addend: 0x0, symName: __ZNKSt3__16vectorIN10HoldEmGame6PlayerENS_9allocatorIS2_EEE8capacityB8ue170006Ev, symObjAddr: 0xF860, symBinAddr: 0x10001DBB4, symSize: 0x40 }
  - { offsetInCU: 0x2082A, offset: 0x5F0C2, size: 0x8, addend: 0x0, symName: __ZNSt3__16vectorIN10HoldEmGame6PlayerENS_9allocatorIS2_EEE22__base_destruct_at_endB8ue170006EPS2_, symObjAddr: 0xF8A0, symBinAddr: 0x10001DBF4, symSize: 0x8C }
  - { offsetInCU: 0x2086C, offset: 0x5F104, size: 0x8, addend: 0x0, symName: __ZNSt3__116allocator_traitsINS_9allocatorIN10HoldEmGame6PlayerEEEE7destroyB8ue170006IS3_vEEvRS4_PT_, symObjAddr: 0xF92C, symBinAddr: 0x10001DC80, symSize: 0x2C }
  - { offsetInCU: 0x208A9, offset: 0x5F141, size: 0x8, addend: 0x0, symName: __ZNSt3__19allocatorIN10HoldEmGame6PlayerEE7destroyB8ue170006EPS2_, symObjAddr: 0xF96C, symBinAddr: 0x10001DCC0, symSize: 0x28 }
  - { offsetInCU: 0x208DB, offset: 0x5F173, size: 0x8, addend: 0x0, symName: __ZN10HoldEmGame6PlayerD1Ev, symObjAddr: 0xF994, symBinAddr: 0x10001DCE8, symSize: 0x2C }
  - { offsetInCU: 0x20906, offset: 0x5F19E, size: 0x8, addend: 0x0, symName: __ZN10HoldEmGame6PlayerD2Ev, symObjAddr: 0xF9C0, symBinAddr: 0x10001DD14, symSize: 0x38 }
  - { offsetInCU: 0x20931, offset: 0x5F1C9, size: 0x8, addend: 0x0, symName: __ZNKSt3__16vectorIN10HoldEmGame6PlayerENS_9allocatorIS2_EEE31__annotate_contiguous_containerB8ue170006EPKvS7_S7_S7_, symObjAddr: 0xF9F8, symBinAddr: 0x10001DD4C, symSize: 0x20 }
  - { offsetInCU: 0x20985, offset: 0x5F21D, size: 0x8, addend: 0x0, symName: __ZNKSt3__16vectorIN10HoldEmGame6PlayerENS_9allocatorIS2_EEE4dataB8ue170006Ev, symObjAddr: 0xFA18, symBinAddr: 0x10001DD6C, symSize: 0x28 }
  - { offsetInCU: 0x209A9, offset: 0x5F241, size: 0x8, addend: 0x0, symName: __ZNSt3__19allocatorIN10HoldEmGame6PlayerEE10deallocateB8ue170006EPS2_m, symObjAddr: 0xFA40, symBinAddr: 0x10001DD94, symSize: 0x40 }
  - { offsetInCU: 0x209E9, offset: 0x5F281, size: 0x8, addend: 0x0, symName: __ZNSt3__117__compressed_pairIPN10HoldEmGame6PlayerENS_9allocatorIS2_EEE6secondB8ue170006Ev, symObjAddr: 0xFA80, symBinAddr: 0x10001DDD4, symSize: 0x24 }
  - { offsetInCU: 0x20A0D, offset: 0x5F2A5, size: 0x8, addend: 0x0, symName: __ZNSt3__122__compressed_pair_elemINS_9allocatorIN10HoldEmGame6PlayerEEELi1ELb1EE5__getB8ue170006Ev, symObjAddr: 0xFAA4, symBinAddr: 0x10001DDF8, symSize: 0x14 }
  - { offsetInCU: 0x20A31, offset: 0x5F2C9, size: 0x8, addend: 0x0, symName: __ZNKSt3__16vectorIN10HoldEmGame6PlayerENS_9allocatorIS2_EEE9__end_capB8ue170006Ev, symObjAddr: 0xFAB8, symBinAddr: 0x10001DE0C, symSize: 0x28 }
  - { offsetInCU: 0x20A55, offset: 0x5F2ED, size: 0x8, addend: 0x0, symName: __ZNKSt3__117__compressed_pairIPN10HoldEmGame6PlayerENS_9allocatorIS2_EEE5firstB8ue170006Ev, symObjAddr: 0xFAE0, symBinAddr: 0x10001DE34, symSize: 0x24 }
  - { offsetInCU: 0x20A79, offset: 0x5F311, size: 0x8, addend: 0x0, symName: __ZNKSt3__122__compressed_pair_elemIPN10HoldEmGame6PlayerELi0ELb0EE5__getB8ue170006Ev, symObjAddr: 0xFB04, symBinAddr: 0x10001DE58, symSize: 0x14 }
  - { offsetInCU: 0x20A9D, offset: 0x5F335, size: 0x8, addend: 0x0, symName: __ZNSt3__16vectorIN10HoldEmGame6PlayerENS_9allocatorIS2_EEE9__end_capB8ue170006Ev, symObjAddr: 0xFB18, symBinAddr: 0x10001DE6C, symSize: 0x28 }
  - { offsetInCU: 0x20AC1, offset: 0x5F359, size: 0x8, addend: 0x0, symName: __ZNSt3__16vectorIN10HoldEmGame6PlayerENS_9allocatorIS2_EEE22__construct_one_at_endB8ue170006IJR7CardSetI10HoldEmRank4SuitERNS_12basic_stringIcNS_11char_traitsIcEENS3_IcEEEE14HoldEmHandRankEEEvDpOT_, symObjAddr: 0xFB40, symBinAddr: 0x10001DE94, symSize: 0xA0 }
  - { offsetInCU: 0x20B36, offset: 0x5F3CE, size: 0x8, addend: 0x0, symName: __ZNSt3__16vectorIN10HoldEmGame6PlayerENS_9allocatorIS2_EEE24__emplace_back_slow_pathIJR7CardSetI10HoldEmRank4SuitERNS_12basic_stringIcNS_11char_traitsIcEENS3_IcEEEE14HoldEmHandRankEEEvDpOT_, symObjAddr: 0xFBE0, symBinAddr: 0x10001DF34, symSize: 0xE8 }
  - { offsetInCU: 0x20BBC, offset: 0x5F454, size: 0x8, addend: 0x0, symName: __ZNSt3__16vectorIN10HoldEmGame6PlayerENS_9allocatorIS2_EEE4backB8ue170006Ev, symObjAddr: 0xFCC8, symBinAddr: 0x10001E01C, symSize: 0x1C }
  - { offsetInCU: 0x20BE0, offset: 0x5F478, size: 0x8, addend: 0x0, symName: __ZNSt3__117__compressed_pairIPN10HoldEmGame6PlayerENS_9allocatorIS2_EEE5firstB8ue170006Ev, symObjAddr: 0xFCE4, symBinAddr: 0x10001E038, symSize: 0x24 }
  - { offsetInCU: 0x20C04, offset: 0x5F49C, size: 0x8, addend: 0x0, symName: __ZNSt3__122__compressed_pair_elemIPN10HoldEmGame6PlayerELi0ELb0EE5__getB8ue170006Ev, symObjAddr: 0xFD08, symBinAddr: 0x10001E05C, symSize: 0x14 }
  - { offsetInCU: 0x20C41, offset: 0x5F4D9, size: 0x8, addend: 0x0, symName: __ZNSt3__16vectorIN10HoldEmGame6PlayerENS_9allocatorIS2_EEE21_ConstructTransactionC1B8ue170006ERS5_m, symObjAddr: 0xFD1C, symBinAddr: 0x10001E070, symSize: 0x3C }
  - { offsetInCU: 0x20C87, offset: 0x5F51F, size: 0x8, addend: 0x0, symName: __ZNSt3__116allocator_traitsINS_9allocatorIN10HoldEmGame6PlayerEEEE9constructB8ue170006IS3_JR7CardSetI10HoldEmRank4SuitERNS_12basic_stringIcNS_11char_traitsIcEENS1_IcEEEE14HoldEmHandRankEvEEvRS4_PT_DpOT0_, symObjAddr: 0xFD58, symBinAddr: 0x10001E0AC, symSize: 0x44 }
  - { offsetInCU: 0x20D06, offset: 0x5F59E, size: 0x8, addend: 0x0, symName: __ZNSt3__16vectorIN10HoldEmGame6PlayerENS_9allocatorIS2_EEE21_ConstructTransactionD1B8ue170006Ev, symObjAddr: 0xFD9C, symBinAddr: 0x10001E0F0, symSize: 0x2C }
  - { offsetInCU: 0x20D2E, offset: 0x5F5C6, size: 0x8, addend: 0x0, symName: __ZNSt3__16vectorIN10HoldEmGame6PlayerENS_9allocatorIS2_EEE21_ConstructTransactionC2B8ue170006ERS5_m, symObjAddr: 0xFDC8, symBinAddr: 0x10001E11C, symSize: 0x44 }
  - { offsetInCU: 0x20D74, offset: 0x5F60C, size: 0x8, addend: 0x0, symName: __ZNSt3__19allocatorIN10HoldEmGame6PlayerEE9constructB8ue170006IS2_JR7CardSetI10HoldEmRank4SuitERNS_12basic_stringIcNS_11char_traitsIcEENS0_IcEEEE14HoldEmHandRankEEEvPT_DpOT0_, symObjAddr: 0xFE0C, symBinAddr: 0x10001E160, symSize: 0x44 }
  - { offsetInCU: 0x20DEE, offset: 0x5F686, size: 0x8, addend: 0x0, symName: __ZNSt3__16vectorIN10HoldEmGame6PlayerENS_9allocatorIS2_EEE21_ConstructTransactionD2B8ue170006Ev, symObjAddr: 0xFE50, symBinAddr: 0x10001E1A4, symSize: 0x20 }
  - { offsetInCU: 0x20E16, offset: 0x5F6AE, size: 0x8, addend: 0x0, symName: __ZNKSt3__16vectorIN10HoldEmGame6PlayerENS_9allocatorIS2_EEE11__recommendB8ue170006Em, symObjAddr: 0xFE70, symBinAddr: 0x10001E1C4, symSize: 0xB4 }
  - { offsetInCU: 0x20E69, offset: 0x5F701, size: 0x8, addend: 0x0, symName: __ZNSt3__114__split_bufferIN10HoldEmGame6PlayerERNS_9allocatorIS2_EEEC1EmmS5_, symObjAddr: 0xFF24, symBinAddr: 0x10001E278, symSize: 0x44 }
  - { offsetInCU: 0x20EBE, offset: 0x5F756, size: 0x8, addend: 0x0, symName: __ZNSt3__114__split_bufferIN10HoldEmGame6PlayerERNS_9allocatorIS2_EEED1Ev, symObjAddr: 0x10078, symBinAddr: 0x10001E3CC, symSize: 0x2C }
  - { offsetInCU: 0x20EE9, offset: 0x5F781, size: 0x8, addend: 0x0, symName: __ZNKSt3__16vectorIN10HoldEmGame6PlayerENS_9allocatorIS2_EEE8max_sizeEv, symObjAddr: 0x100A4, symBinAddr: 0x10001E3F8, symSize: 0x60 }
  - { offsetInCU: 0x20F0F, offset: 0x5F7A7, size: 0x8, addend: 0x0, symName: __ZNKSt3__16vectorIN10HoldEmGame6PlayerENS_9allocatorIS2_EEE20__throw_length_errorB8ue170006Ev, symObjAddr: 0x10104, symBinAddr: 0x10001E458, symSize: 0x1C }
  - { offsetInCU: 0x20F3D, offset: 0x5F7D5, size: 0x8, addend: 0x0, symName: __ZNSt3__116allocator_traitsINS_9allocatorIN10HoldEmGame6PlayerEEEE8max_sizeB8ue170006IS4_vEEmRKS4_, symObjAddr: 0x10120, symBinAddr: 0x10001E474, symSize: 0x24 }
  - { offsetInCU: 0x20F6B, offset: 0x5F803, size: 0x8, addend: 0x0, symName: __ZNKSt3__16vectorIN10HoldEmGame6PlayerENS_9allocatorIS2_EEE7__allocB8ue170006Ev, symObjAddr: 0x10144, symBinAddr: 0x10001E498, symSize: 0x28 }
  - { offsetInCU: 0x20F8F, offset: 0x5F827, size: 0x8, addend: 0x0, symName: __ZNKSt3__19allocatorIN10HoldEmGame6PlayerEE8max_sizeB8ue170006Ev, symObjAddr: 0x1016C, symBinAddr: 0x10001E4C0, symSize: 0x14 }
  - { offsetInCU: 0x20FB3, offset: 0x5F84B, size: 0x8, addend: 0x0, symName: __ZNKSt3__117__compressed_pairIPN10HoldEmGame6PlayerENS_9allocatorIS2_EEE6secondB8ue170006Ev, symObjAddr: 0x10180, symBinAddr: 0x10001E4D4, symSize: 0x24 }
  - { offsetInCU: 0x20FD7, offset: 0x5F86F, size: 0x8, addend: 0x0, symName: __ZNKSt3__122__compressed_pair_elemINS_9allocatorIN10HoldEmGame6PlayerEEELi1ELb1EE5__getB8ue170006Ev, symObjAddr: 0x101A4, symBinAddr: 0x10001E4F8, symSize: 0x14 }
  - { offsetInCU: 0x20FFB, offset: 0x5F893, size: 0x8, addend: 0x0, symName: __ZNSt3__114__split_bufferIN10HoldEmGame6PlayerERNS_9allocatorIS2_EEEC2EmmS5_, symObjAddr: 0x101B8, symBinAddr: 0x10001E50C, symSize: 0xD4 }
  - { offsetInCU: 0x2106E, offset: 0x5F906, size: 0x8, addend: 0x0, symName: __ZNSt3__117__compressed_pairIPN10HoldEmGame6PlayerERNS_9allocatorIS2_EEEC1B8ue170006IDnS6_EEOT_OT0_, symObjAddr: 0x1028C, symBinAddr: 0x10001E5E0, symSize: 0x3C }
  - { offsetInCU: 0x210C4, offset: 0x5F95C, size: 0x8, addend: 0x0, symName: __ZNSt3__114__split_bufferIN10HoldEmGame6PlayerERNS_9allocatorIS2_EEE7__allocB8ue170006Ev, symObjAddr: 0x10308, symBinAddr: 0x10001E65C, symSize: 0x28 }
  - { offsetInCU: 0x210E8, offset: 0x5F980, size: 0x8, addend: 0x0, symName: __ZNSt3__114__split_bufferIN10HoldEmGame6PlayerERNS_9allocatorIS2_EEE9__end_capB8ue170006Ev, symObjAddr: 0x10330, symBinAddr: 0x10001E684, symSize: 0x28 }
  - { offsetInCU: 0x2110C, offset: 0x5F9A4, size: 0x8, addend: 0x0, symName: __ZNSt3__117__compressed_pairIPN10HoldEmGame6PlayerERNS_9allocatorIS2_EEEC2B8ue170006IDnS6_EEOT_OT0_, symObjAddr: 0x10358, symBinAddr: 0x10001E6AC, symSize: 0x48 }
  - { offsetInCU: 0x21162, offset: 0x5F9FA, size: 0x8, addend: 0x0, symName: __ZNSt3__122__compressed_pair_elemIRNS_9allocatorIN10HoldEmGame6PlayerEEELi1ELb0EEC2B8ue170006IS5_vEEOT_, symObjAddr: 0x103A0, symBinAddr: 0x10001E6F4, symSize: 0x20 }
  - { offsetInCU: 0x211A2, offset: 0x5FA3A, size: 0x8, addend: 0x0, symName: __ZNSt3__19allocatorIN10HoldEmGame6PlayerEE8allocateB8ue170006Em, symObjAddr: 0x103C0, symBinAddr: 0x10001E714, symSize: 0x58 }
  - { offsetInCU: 0x211D4, offset: 0x5FA6C, size: 0x8, addend: 0x0, symName: __ZNSt3__117__compressed_pairIPN10HoldEmGame6PlayerERNS_9allocatorIS2_EEE6secondB8ue170006Ev, symObjAddr: 0x10418, symBinAddr: 0x10001E76C, symSize: 0x28 }
  - { offsetInCU: 0x211F8, offset: 0x5FA90, size: 0x8, addend: 0x0, symName: __ZNSt3__122__compressed_pair_elemIRNS_9allocatorIN10HoldEmGame6PlayerEEELi1ELb0EE5__getB8ue170006Ev, symObjAddr: 0x10440, symBinAddr: 0x10001E794, symSize: 0x18 }
  - { offsetInCU: 0x2121C, offset: 0x5FAB4, size: 0x8, addend: 0x0, symName: __ZNSt3__117__compressed_pairIPN10HoldEmGame6PlayerERNS_9allocatorIS2_EEE5firstB8ue170006Ev, symObjAddr: 0x10458, symBinAddr: 0x10001E7AC, symSize: 0x24 }
  - { offsetInCU: 0x21240, offset: 0x5FAD8, size: 0x8, addend: 0x0, symName: __ZNSt3__116reverse_iteratorIPN10HoldEmGame6PlayerEEC1B8ue170006ES3_, symObjAddr: 0x105A8, symBinAddr: 0x10001E8FC, symSize: 0x34 }
  - { offsetInCU: 0x21276, offset: 0x5FB0E, size: 0x8, addend: 0x0, symName: __ZNKSt3__116reverse_iteratorIPN10HoldEmGame6PlayerEE4baseB8ue170006Ev, symObjAddr: 0x105DC, symBinAddr: 0x10001E930, symSize: 0x18 }
  - { offsetInCU: 0x2129A, offset: 0x5FB32, size: 0x8, addend: 0x0, symName: __ZNKSt3__16vectorIN10HoldEmGame6PlayerENS_9allocatorIS2_EEE14__annotate_newB8ue170006Em, symObjAddr: 0x10630, symBinAddr: 0x10001E984, symSize: 0xAC }
  - { offsetInCU: 0x212CD, offset: 0x5FB65, size: 0x8, addend: 0x0, symName: __ZNSt3__129_AllocatorDestroyRangeReverseINS_9allocatorIN10HoldEmGame6PlayerEEENS_16reverse_iteratorIPS3_EEEC1B8ue170006ERS4_RS7_SA_, symObjAddr: 0x10728, symBinAddr: 0x10001EA7C, symSize: 0x44 }
  - { offsetInCU: 0x21322, offset: 0x5FBBA, size: 0x8, addend: 0x0, symName: __ZNSt3__116allocator_traitsINS_9allocatorIN10HoldEmGame6PlayerEEEE9constructB8ue170006IS3_JRKS3_EvEEvRS4_PT_DpOT0_, symObjAddr: 0x107B4, symBinAddr: 0x10001EB08, symSize: 0x34 }
  - { offsetInCU: 0x21379, offset: 0x5FC11, size: 0x8, addend: 0x0, symName: __ZNKSt3__116reverse_iteratorIPN10HoldEmGame6PlayerEEdeB8ue170006Ev, symObjAddr: 0x1080C, symBinAddr: 0x10001EB60, symSize: 0x28 }
  - { offsetInCU: 0x213AC, offset: 0x5FC44, size: 0x8, addend: 0x0, symName: __ZNSt3__116reverse_iteratorIPN10HoldEmGame6PlayerEEppB8ue170006Ev, symObjAddr: 0x10834, symBinAddr: 0x10001EB88, symSize: 0x20 }
  - { offsetInCU: 0x213D0, offset: 0x5FC68, size: 0x8, addend: 0x0, symName: __ZNSt3__128__exception_guard_exceptionsINS_29_AllocatorDestroyRangeReverseINS_9allocatorIN10HoldEmGame6PlayerEEENS_16reverse_iteratorIPS4_EEEEE10__completeB8ue170006Ev, symObjAddr: 0x10854, symBinAddr: 0x10001EBA8, symSize: 0x1C }
  - { offsetInCU: 0x213F4, offset: 0x5FC8C, size: 0x8, addend: 0x0, symName: __ZNSt3__128__exception_guard_exceptionsINS_29_AllocatorDestroyRangeReverseINS_9allocatorIN10HoldEmGame6PlayerEEENS_16reverse_iteratorIPS4_EEEEED1B8ue170006Ev, symObjAddr: 0x10870, symBinAddr: 0x10001EBC4, symSize: 0x2C }
  - { offsetInCU: 0x2141C, offset: 0x5FCB4, size: 0x8, addend: 0x0, symName: __ZNSt3__128__exception_guard_exceptionsINS_29_AllocatorDestroyRangeReverseINS_9allocatorIN10HoldEmGame6PlayerEEENS_16reverse_iteratorIPS4_EEEEEC1B8ue170006ES9_, symObjAddr: 0x1089C, symBinAddr: 0x10001EBF0, symSize: 0x34 }
  - { offsetInCU: 0x21453, offset: 0x5FCEB, size: 0x8, addend: 0x0, symName: __ZNSt3__128__exception_guard_exceptionsINS_29_AllocatorDestroyRangeReverseINS_9allocatorIN10HoldEmGame6PlayerEEENS_16reverse_iteratorIPS4_EEEEEC2B8ue170006ES9_, symObjAddr: 0x108D0, symBinAddr: 0x10001EC24, symSize: 0x30 }
  - { offsetInCU: 0x2148A, offset: 0x5FD22, size: 0x8, addend: 0x0, symName: __ZNSt3__129_AllocatorDestroyRangeReverseINS_9allocatorIN10HoldEmGame6PlayerEEENS_16reverse_iteratorIPS3_EEEC2B8ue170006ERS4_RS7_SA_, symObjAddr: 0x10900, symBinAddr: 0x10001EC54, symSize: 0x38 }
  - { offsetInCU: 0x214DF, offset: 0x5FD77, size: 0x8, addend: 0x0, symName: __ZNSt3__19allocatorIN10HoldEmGame6PlayerEE9constructB8ue170006IS2_JRKS2_EEEvPT_DpOT0_, symObjAddr: 0x10938, symBinAddr: 0x10001EC8C, symSize: 0x30 }
  - { offsetInCU: 0x21533, offset: 0x5FDCB, size: 0x8, addend: 0x0, symName: __ZN10HoldEmGame6PlayerC1ERKS0_, symObjAddr: 0x10968, symBinAddr: 0x10001ECBC, symSize: 0x34 }
  - { offsetInCU: 0x21567, offset: 0x5FDFF, size: 0x8, addend: 0x0, symName: __ZN10HoldEmGame6PlayerC2ERKS0_, symObjAddr: 0x1099C, symBinAddr: 0x10001ECF0, symSize: 0x7C }
  - { offsetInCU: 0x215A0, offset: 0x5FE38, size: 0x8, addend: 0x0, symName: __ZNSt3__119__to_address_helperINS_16reverse_iteratorIPN10HoldEmGame6PlayerEEEvE6__callB8ue170006ERKS5_, symObjAddr: 0x10A18, symBinAddr: 0x10001ED6C, symSize: 0x38 }
  - { offsetInCU: 0x215C3, offset: 0x5FE5B, size: 0x8, addend: 0x0, symName: __ZNKSt3__116reverse_iteratorIPN10HoldEmGame6PlayerEEptB8ue170006Ev, symObjAddr: 0x10A50, symBinAddr: 0x10001EDA4, symSize: 0x24 }
  - { offsetInCU: 0x215E7, offset: 0x5FE7F, size: 0x8, addend: 0x0, symName: __ZNSt3__128__exception_guard_exceptionsINS_29_AllocatorDestroyRangeReverseINS_9allocatorIN10HoldEmGame6PlayerEEENS_16reverse_iteratorIPS4_EEEEED2B8ue170006Ev, symObjAddr: 0x10A74, symBinAddr: 0x10001EDC8, symSize: 0x50 }
  - { offsetInCU: 0x2160F, offset: 0x5FEA7, size: 0x8, addend: 0x0, symName: __ZNKSt3__129_AllocatorDestroyRangeReverseINS_9allocatorIN10HoldEmGame6PlayerEEENS_16reverse_iteratorIPS3_EEEclB8ue170006Ev, symObjAddr: 0x10AC4, symBinAddr: 0x10001EE18, symSize: 0xB4 }
  - { offsetInCU: 0x21634, offset: 0x5FECC, size: 0x8, addend: 0x0, symName: __ZNSt3__116reverse_iteratorINS0_IPN10HoldEmGame6PlayerEEEEC1B8ue170006ES4_, symObjAddr: 0x10BE8, symBinAddr: 0x10001EF3C, symSize: 0x3C }
  - { offsetInCU: 0x2166A, offset: 0x5FF02, size: 0x8, addend: 0x0, symName: __ZNSt3__116reverse_iteratorINS0_IPN10HoldEmGame6PlayerEEEEppB8ue170006Ev, symObjAddr: 0x10CA8, symBinAddr: 0x10001EFFC, symSize: 0x30 }
  - { offsetInCU: 0x2168E, offset: 0x5FF26, size: 0x8, addend: 0x0, symName: __ZNKSt3__116reverse_iteratorINS0_IPN10HoldEmGame6PlayerEEEE4baseB8ue170006Ev, symObjAddr: 0x10CD8, symBinAddr: 0x10001F02C, symSize: 0x24 }
  - { offsetInCU: 0x216B7, offset: 0x5FF4F, size: 0x8, addend: 0x0, symName: __ZNSt3__119__to_address_helperINS_16reverse_iteratorINS1_IPN10HoldEmGame6PlayerEEEEEvE6__callB8ue170006ERKS6_, symObjAddr: 0x10CFC, symBinAddr: 0x10001F050, symSize: 0x38 }
  - { offsetInCU: 0x216DA, offset: 0x5FF72, size: 0x8, addend: 0x0, symName: __ZNKSt3__116reverse_iteratorINS0_IPN10HoldEmGame6PlayerEEEEptB8ue170006Ev, symObjAddr: 0x10D34, symBinAddr: 0x10001F088, symSize: 0x24 }
  - { offsetInCU: 0x216FE, offset: 0x5FF96, size: 0x8, addend: 0x0, symName: __ZNKSt3__116reverse_iteratorINS0_IPN10HoldEmGame6PlayerEEEEdeB8ue170006Ev, symObjAddr: 0x10D58, symBinAddr: 0x10001F0AC, symSize: 0x34 }
  - { offsetInCU: 0x21731, offset: 0x5FFC9, size: 0x8, addend: 0x0, symName: __ZNSt3__116reverse_iteratorIPN10HoldEmGame6PlayerEEmmB8ue170006Ev, symObjAddr: 0x10D8C, symBinAddr: 0x10001F0E0, symSize: 0x20 }
  - { offsetInCU: 0x21755, offset: 0x5FFED, size: 0x8, addend: 0x0, symName: __ZNSt3__116reverse_iteratorINS0_IPN10HoldEmGame6PlayerEEEEC2B8ue170006ES4_, symObjAddr: 0x10DAC, symBinAddr: 0x10001F100, symSize: 0x2C }
  - { offsetInCU: 0x2178B, offset: 0x60023, size: 0x8, addend: 0x0, symName: __ZNSt3__116reverse_iteratorIPN10HoldEmGame6PlayerEEC2B8ue170006ES3_, symObjAddr: 0x10DD8, symBinAddr: 0x10001F12C, symSize: 0x28 }
  - { offsetInCU: 0x217C1, offset: 0x60059, size: 0x8, addend: 0x0, symName: __ZNSt3__114__split_bufferIN10HoldEmGame6PlayerERNS_9allocatorIS2_EEED2Ev, symObjAddr: 0x10E00, symBinAddr: 0x10001F154, symSize: 0x8C }
  - { offsetInCU: 0x217EC, offset: 0x60084, size: 0x8, addend: 0x0, symName: __ZNSt3__114__split_bufferIN10HoldEmGame6PlayerERNS_9allocatorIS2_EEE5clearB8ue170006Ev, symObjAddr: 0x10E8C, symBinAddr: 0x10001F1E0, symSize: 0x28 }
  - { offsetInCU: 0x21810, offset: 0x600A8, size: 0x8, addend: 0x0, symName: __ZNKSt3__114__split_bufferIN10HoldEmGame6PlayerERNS_9allocatorIS2_EEE8capacityB8ue170006Ev, symObjAddr: 0x10EB4, symBinAddr: 0x10001F208, symSize: 0x40 }
  - { offsetInCU: 0x21834, offset: 0x600CC, size: 0x8, addend: 0x0, symName: __ZNSt3__114__split_bufferIN10HoldEmGame6PlayerERNS_9allocatorIS2_EEE17__destruct_at_endB8ue170006EPS2_, symObjAddr: 0x10EF4, symBinAddr: 0x10001F248, symSize: 0x2C }
  - { offsetInCU: 0x21866, offset: 0x600FE, size: 0x8, addend: 0x0, symName: __ZNSt3__114__split_bufferIN10HoldEmGame6PlayerERNS_9allocatorIS2_EEE17__destruct_at_endB8ue170006EPS2_NS_17integral_constantIbLb0EEE, symObjAddr: 0x10F20, symBinAddr: 0x10001F274, symSize: 0x80 }
  - { offsetInCU: 0x218A4, offset: 0x6013C, size: 0x8, addend: 0x0, symName: __ZNKSt3__114__split_bufferIN10HoldEmGame6PlayerERNS_9allocatorIS2_EEE9__end_capB8ue170006Ev, symObjAddr: 0x10FA0, symBinAddr: 0x10001F2F4, symSize: 0x28 }
  - { offsetInCU: 0x218C8, offset: 0x60160, size: 0x8, addend: 0x0, symName: __ZNKSt3__117__compressed_pairIPN10HoldEmGame6PlayerERNS_9allocatorIS2_EEE5firstB8ue170006Ev, symObjAddr: 0x10FC8, symBinAddr: 0x10001F31C, symSize: 0x24 }
  - { offsetInCU: 0x218EC, offset: 0x60184, size: 0x8, addend: 0x0, symName: __ZNSt3__16vectorIN10HoldEmGame6PlayerENS_9allocatorIS2_EEE11__make_iterB8ue170006EPS2_, symObjAddr: 0x10FEC, symBinAddr: 0x10001F340, symSize: 0x30 }
  - { offsetInCU: 0x2191F, offset: 0x601B7, size: 0x8, addend: 0x0, symName: __ZNSt3__111__wrap_iterIPN10HoldEmGame6PlayerEEC1B8ue170006ES3_, symObjAddr: 0x1101C, symBinAddr: 0x10001F370, symSize: 0x34 }
  - { offsetInCU: 0x21955, offset: 0x601ED, size: 0x8, addend: 0x0, symName: __ZNSt3__111__wrap_iterIPN10HoldEmGame6PlayerEEC2B8ue170006ES3_, symObjAddr: 0x11050, symBinAddr: 0x10001F3A4, symSize: 0x20 }
  - { offsetInCU: 0x21995, offset: 0x6022D, size: 0x8, addend: 0x0, symName: '__ZZN10HoldEmGame4playEvENK3$_2clERKNS_6PlayerES3_', symObjAddr: 0x11620, symBinAddr: 0x10001F974, symSize: 0x34 }
  - { offsetInCU: 0x219D9, offset: 0x60271, size: 0x8, addend: 0x0, symName: __ZNSt3__18_IterOpsINS_17_ClassicAlgPolicyEE9iter_swapB8ue170006IRPN10HoldEmGame6PlayerES7_EEvOT_OT0_, symObjAddr: 0x11654, symBinAddr: 0x10001F9A8, symSize: 0x34 }
  - { offsetInCU: 0x21A21, offset: 0x602B9, size: 0x8, addend: 0x0, symName: __ZNSt3__18_IterOpsINS_17_ClassicAlgPolicyEE9iter_swapB8ue170006IRPN10HoldEmGame6PlayerES6_EEvOT_OT0_, symObjAddr: 0x11C2C, symBinAddr: 0x10001FF80, symSize: 0x34 }
  - { offsetInCU: 0x21A69, offset: 0x60301, size: 0x8, addend: 0x0, symName: __ZN10HoldEmGame6PlayerC1EOS0_, symObjAddr: 0x12974, symBinAddr: 0x100020CC8, symSize: 0x34 }
  - { offsetInCU: 0x21A9D, offset: 0x60335, size: 0x8, addend: 0x0, symName: __ZN10HoldEmGame6PlayeraSEOS0_, symObjAddr: 0x129A8, symBinAddr: 0x100020CFC, symSize: 0x54 }
  - { offsetInCU: 0x21ACD, offset: 0x60365, size: 0x8, addend: 0x0, symName: __ZN10HoldEmGame6PlayerC2EOS0_, symObjAddr: 0x129FC, symBinAddr: 0x100020D50, symSize: 0x54 }
  - { offsetInCU: 0x21B01, offset: 0x60399, size: 0x8, addend: 0x0, symName: __ZN7CardSetI10HoldEmRank4SuitEaSERKS2_, symObjAddr: 0x12ACC, symBinAddr: 0x100020DA4, symSize: 0x3C }
  - { offsetInCU: 0x21B31, offset: 0x603C9, size: 0x8, addend: 0x0, symName: __ZNSt3__112basic_stringIcNS_11char_traitsIcEENS_9allocatorIcEEEaSB8ue170006EOS5_, symObjAddr: 0x12B08, symBinAddr: 0x100020DE0, symSize: 0x34 }
  - { offsetInCU: 0x21B64, offset: 0x603FC, size: 0x8, addend: 0x0, symName: __ZNSt3__16vectorI4CardI10HoldEmRank4SuitENS_9allocatorIS4_EEEaSB8ue170006ERKS7_, symObjAddr: 0x12B3C, symBinAddr: 0x100020E14, symSize: 0x68 }
  - { offsetInCU: 0x21B99, offset: 0x60431, size: 0x8, addend: 0x0, symName: __ZNSt3__16vectorI4CardI10HoldEmRank4SuitENS_9allocatorIS4_EEE19__copy_assign_allocB8ue170006ERKS7_, symObjAddr: 0x12BA4, symBinAddr: 0x100020E7C, symSize: 0x2C }
  - { offsetInCU: 0x21BCC, offset: 0x60464, size: 0x8, addend: 0x0, symName: __ZNSt3__16vectorI4CardI10HoldEmRank4SuitENS_9allocatorIS4_EEE6assignIPS4_Li0EEEvT_SA_, symObjAddr: 0x12BD0, symBinAddr: 0x100020EA8, symSize: 0x5C }
  - { offsetInCU: 0x21C20, offset: 0x604B8, size: 0x8, addend: 0x0, symName: __ZNSt3__16vectorI4CardI10HoldEmRank4SuitENS_9allocatorIS4_EEE19__copy_assign_allocB8ue170006ERKS7_NS_17integral_constantIbLb0EEE, symObjAddr: 0x12C2C, symBinAddr: 0x100020F04, symSize: 0x14 }
  - { offsetInCU: 0x21C5C, offset: 0x604F4, size: 0x8, addend: 0x0, symName: __ZNSt3__16vectorI4CardI10HoldEmRank4SuitENS_9allocatorIS4_EEE18__assign_with_sizeB8ue170006IPS4_S9_EEvT_T0_l, symObjAddr: 0x12C40, symBinAddr: 0x100020F18, symSize: 0x164 }
  - { offsetInCU: 0x21D0C, offset: 0x605A4, size: 0x8, addend: 0x0, symName: __ZNSt3__16vectorI4CardI10HoldEmRank4SuitENS_9allocatorIS4_EEE13__vdeallocateEv, symObjAddr: 0x12E04, symBinAddr: 0x1000210DC, symSize: 0x94 }
  - { offsetInCU: 0x21D32, offset: 0x605CA, size: 0x8, addend: 0x0, symName: __ZNSt3__16vectorI4CardI10HoldEmRank4SuitENS_9allocatorIS4_EEE5clearB8ue170006Ev, symObjAddr: 0x12F0C, symBinAddr: 0x1000211E4, symSize: 0x44 }
  - { offsetInCU: 0x21D65, offset: 0x605FD, size: 0x8, addend: 0x0, symName: __ZNSt3__112basic_stringIcNS_11char_traitsIcEENS_9allocatorIcEEE13__move_assignB8ue170006ERS5_NS_17integral_constantIbLb1EEE, symObjAddr: 0x12F78, symBinAddr: 0x100021250, symSize: 0xC8 }
  - { offsetInCU: 0x21DA6, offset: 0x6063E, size: 0x8, addend: 0x0, symName: __ZNSt3__116allocator_traitsINS_9allocatorIcEEE10deallocateB8ue170006ERS2_Pcm, symObjAddr: 0x13040, symBinAddr: 0x100021318, symSize: 0x34 }
  - { offsetInCU: 0x21DE8, offset: 0x60680, size: 0x8, addend: 0x0, symName: __ZNSt3__112basic_stringIcNS_11char_traitsIcEENS_9allocatorIcEEE7__allocB8ue170006Ev, symObjAddr: 0x13074, symBinAddr: 0x10002134C, symSize: 0x24 }
  - { offsetInCU: 0x21E0C, offset: 0x606A4, size: 0x8, addend: 0x0, symName: __ZNKSt3__112basic_stringIcNS_11char_traitsIcEENS_9allocatorIcEEE14__get_long_capB8ue170006Ev, symObjAddr: 0x13098, symBinAddr: 0x100021370, symSize: 0x30 }
  - { offsetInCU: 0x21E30, offset: 0x606C8, size: 0x8, addend: 0x0, symName: __ZNSt3__112basic_stringIcNS_11char_traitsIcEENS_9allocatorIcEEE19__move_assign_allocB8ue170006ERS5_, symObjAddr: 0x130C8, symBinAddr: 0x1000213A0, symSize: 0x2C }
  - { offsetInCU: 0x21E63, offset: 0x606FB, size: 0x8, addend: 0x0, symName: __ZNSt3__19allocatorIcE10deallocateB8ue170006EPcm, symObjAddr: 0x13190, symBinAddr: 0x1000213CC, symSize: 0x40 }
  - { offsetInCU: 0x21EA3, offset: 0x6073B, size: 0x8, addend: 0x0, symName: __ZNSt3__117__compressed_pairINS_12basic_stringIcNS_11char_traitsIcEENS_9allocatorIcEEE5__repES5_E6secondB8ue170006Ev, symObjAddr: 0x131D0, symBinAddr: 0x10002140C, symSize: 0x24 }
  - { offsetInCU: 0x21EC7, offset: 0x6075F, size: 0x8, addend: 0x0, symName: __ZNSt3__122__compressed_pair_elemINS_9allocatorIcEELi1ELb1EE5__getB8ue170006Ev, symObjAddr: 0x131F4, symBinAddr: 0x100021430, symSize: 0x14 }
  - { offsetInCU: 0x21EEB, offset: 0x60783, size: 0x8, addend: 0x0, symName: __ZNSt3__112basic_stringIcNS_11char_traitsIcEENS_9allocatorIcEEE19__move_assign_allocB8ue170006ERS5_NS_17integral_constantIbLb1EEE, symObjAddr: 0x13208, symBinAddr: 0x100021444, symSize: 0x38 }
  - { offsetInCU: 0x21F2A, offset: 0x607C2, size: 0x8, addend: 0x0, symName: __ZNSt3__18_IterOpsINS_17_ClassicAlgPolicyEE11__iter_moveB8ue170006IRPN10HoldEmGame6PlayerEEENS_9enable_ifIXsr12is_referenceIDTdeclsr3stdE7declvalIRT_EEEEE5valueEDTclsr3stdE4movedeclsr3stdE7declvalISA_EEEEE4typeEOS9_, symObjAddr: 0x133E0, symBinAddr: 0x10002161C, symSize: 0x28 }
  - { offsetInCU: 0x21F56, offset: 0x607EE, size: 0x8, addend: 0x0, symName: __ZNSt3__18_IterOpsINS_17_ClassicAlgPolicyEE25__validate_iter_referenceB8ue170006IRPN10HoldEmGame6PlayerEEEvv, symObjAddr: 0x13408, symBinAddr: 0x100021644, symSize: 0x4 }
  - { offsetInCU: 0x21F73, offset: 0x6080B, size: 0x8, addend: 0x0, symName: __ZNSt3__18_IterOpsINS_17_ClassicAlgPolicyEE4nextB8ue170006IPN10HoldEmGame6PlayerEEET_S7_S7_, symObjAddr: 0x1340C, symBinAddr: 0x100021648, symSize: 0x18 }
  - { offsetInCU: 0x21FA8, offset: 0x60840, size: 0x8, addend: 0x0, symName: __ZNSt3__18_IterOpsINS_17_ClassicAlgPolicyEE9iter_swapB8ue170006IPN10HoldEmGame6PlayerES6_EEvOT_OT0_, symObjAddr: 0x143F8, symBinAddr: 0x100022634, symSize: 0x34 }
  - { offsetInCU: 0x22004, offset: 0x6089C, size: 0x8, addend: 0x0, symName: __ZNSt3__14pairIPN10HoldEmGame6PlayerEbEC1B8ue170006IRS3_RbLPv0EEEOT_OT0_, symObjAddr: 0x1442C, symBinAddr: 0x100022668, symSize: 0x3C }
  - { offsetInCU: 0x22061, offset: 0x608F9, size: 0x8, addend: 0x0, symName: __ZNSt3__14pairIPN10HoldEmGame6PlayerEbEC2B8ue170006IRS3_RbLPv0EEEOT_OT0_, symObjAddr: 0x14468, symBinAddr: 0x1000226A4, symSize: 0x38 }
  - { offsetInCU: 0x220BE, offset: 0x60956, size: 0x8, addend: 0x0, symName: __ZNSt3__118__unwrap_iter_implINS_11__wrap_iterIPN10HoldEmGame6PlayerEEELb1EE8__unwrapB8ue170006ES5_, symObjAddr: 0x144A0, symBinAddr: 0x1000226DC, symSize: 0x28 }
  - { offsetInCU: 0x220EB, offset: 0x60983, size: 0x8, addend: 0x0, symName: __ZNSt3__119__to_address_helperINS_11__wrap_iterIPN10HoldEmGame6PlayerEEEvE6__callB8ue170006ERKS5_, symObjAddr: 0x144EC, symBinAddr: 0x100022728, symSize: 0x30 }
  - { offsetInCU: 0x2210E, offset: 0x609A6, size: 0x8, addend: 0x0, symName: __ZNSt3__114pointer_traitsINS_11__wrap_iterIPN10HoldEmGame6PlayerEEEE10to_addressB8ue170006ES5_, symObjAddr: 0x1451C, symBinAddr: 0x100022758, symSize: 0x2C }
  - { offsetInCU: 0x22131, offset: 0x609C9, size: 0x8, addend: 0x0, symName: __ZNSt3__16vectorI10HoldEmRankNS_9allocatorIS1_EEED2B8ue170006Ev, symObjAddr: 0x14548, symBinAddr: 0x100022784, symSize: 0x44 }
  - { offsetInCU: 0x22159, offset: 0x609F1, size: 0x8, addend: 0x0, symName: __ZNSt3__16vectorI10HoldEmRankNS_9allocatorIS1_EEE16__destroy_vectorC1B8ue170006ERS4_, symObjAddr: 0x1458C, symBinAddr: 0x1000227C8, symSize: 0x34 }
  - { offsetInCU: 0x22190, offset: 0x60A28, size: 0x8, addend: 0x0, symName: __ZNSt3__16vectorI10HoldEmRankNS_9allocatorIS1_EEE16__destroy_vectorclB8ue170006Ev, symObjAddr: 0x145C0, symBinAddr: 0x1000227FC, symSize: 0x90 }
  - { offsetInCU: 0x221B4, offset: 0x60A4C, size: 0x8, addend: 0x0, symName: __ZNSt3__16vectorI10HoldEmRankNS_9allocatorIS1_EEE16__destroy_vectorC2B8ue170006ERS4_, symObjAddr: 0x14650, symBinAddr: 0x10002288C, symSize: 0x20 }
  - { offsetInCU: 0x221EB, offset: 0x60A83, size: 0x8, addend: 0x0, symName: __ZNSt3__16vectorI10HoldEmRankNS_9allocatorIS1_EEE7__clearB8ue170006Ev, symObjAddr: 0x14670, symBinAddr: 0x1000228AC, symSize: 0x28 }
  - { offsetInCU: 0x2220F, offset: 0x60AA7, size: 0x8, addend: 0x0, symName: __ZNKSt3__16vectorI10HoldEmRankNS_9allocatorIS1_EEE17__annotate_deleteB8ue170006Ev, symObjAddr: 0x14698, symBinAddr: 0x1000228D4, symSize: 0xB8 }
  - { offsetInCU: 0x22233, offset: 0x60ACB, size: 0x8, addend: 0x0, symName: __ZNSt3__116allocator_traitsINS_9allocatorI10HoldEmRankEEE10deallocateB8ue170006ERS3_PS2_m, symObjAddr: 0x14750, symBinAddr: 0x10002298C, symSize: 0x34 }
  - { offsetInCU: 0x22275, offset: 0x60B0D, size: 0x8, addend: 0x0, symName: __ZNSt3__16vectorI10HoldEmRankNS_9allocatorIS1_EEE7__allocB8ue170006Ev, symObjAddr: 0x14784, symBinAddr: 0x1000229C0, symSize: 0x28 }
  - { offsetInCU: 0x22299, offset: 0x60B31, size: 0x8, addend: 0x0, symName: __ZNKSt3__16vectorI10HoldEmRankNS_9allocatorIS1_EEE8capacityB8ue170006Ev, symObjAddr: 0x147AC, symBinAddr: 0x1000229E8, symSize: 0x40 }
  - { offsetInCU: 0x222BD, offset: 0x60B55, size: 0x8, addend: 0x0, symName: __ZNSt3__16vectorI10HoldEmRankNS_9allocatorIS1_EEE22__base_destruct_at_endB8ue170006EPS1_, symObjAddr: 0x147EC, symBinAddr: 0x100022A28, symSize: 0x8C }
  - { offsetInCU: 0x222FF, offset: 0x60B97, size: 0x8, addend: 0x0, symName: __ZNSt3__116allocator_traitsINS_9allocatorI10HoldEmRankEEE7destroyB8ue170006IS2_vEEvRS3_PT_, symObjAddr: 0x14878, symBinAddr: 0x100022AB4, symSize: 0x2C }
  - { offsetInCU: 0x2233C, offset: 0x60BD4, size: 0x8, addend: 0x0, symName: __ZNSt3__19allocatorI10HoldEmRankE7destroyB8ue170006EPS1_, symObjAddr: 0x148B8, symBinAddr: 0x100022AF4, symSize: 0x14 }
  - { offsetInCU: 0x2236E, offset: 0x60C06, size: 0x8, addend: 0x0, symName: __ZNKSt3__16vectorI10HoldEmRankNS_9allocatorIS1_EEE31__annotate_contiguous_containerB8ue170006EPKvS6_S6_S6_, symObjAddr: 0x148CC, symBinAddr: 0x100022B08, symSize: 0x20 }
  - { offsetInCU: 0x223C2, offset: 0x60C5A, size: 0x8, addend: 0x0, symName: __ZNKSt3__16vectorI10HoldEmRankNS_9allocatorIS1_EEE4dataB8ue170006Ev, symObjAddr: 0x148EC, symBinAddr: 0x100022B28, symSize: 0x28 }
  - { offsetInCU: 0x223E6, offset: 0x60C7E, size: 0x8, addend: 0x0, symName: __ZNSt3__19allocatorI10HoldEmRankE10deallocateB8ue170006EPS1_m, symObjAddr: 0x14914, symBinAddr: 0x100022B50, symSize: 0x40 }
  - { offsetInCU: 0x22426, offset: 0x60CBE, size: 0x8, addend: 0x0, symName: __ZNSt3__117__compressed_pairIP10HoldEmRankNS_9allocatorIS1_EEE6secondB8ue170006Ev, symObjAddr: 0x14954, symBinAddr: 0x100022B90, symSize: 0x24 }
  - { offsetInCU: 0x2244A, offset: 0x60CE2, size: 0x8, addend: 0x0, symName: __ZNSt3__122__compressed_pair_elemINS_9allocatorI10HoldEmRankEELi1ELb1EE5__getB8ue170006Ev, symObjAddr: 0x14978, symBinAddr: 0x100022BB4, symSize: 0x14 }
  - { offsetInCU: 0x2246E, offset: 0x60D06, size: 0x8, addend: 0x0, symName: __ZNKSt3__16vectorI10HoldEmRankNS_9allocatorIS1_EEE9__end_capB8ue170006Ev, symObjAddr: 0x1498C, symBinAddr: 0x100022BC8, symSize: 0x28 }
  - { offsetInCU: 0x22492, offset: 0x60D2A, size: 0x8, addend: 0x0, symName: __ZNKSt3__117__compressed_pairIP10HoldEmRankNS_9allocatorIS1_EEE5firstB8ue170006Ev, symObjAddr: 0x149B4, symBinAddr: 0x100022BF0, symSize: 0x24 }
  - { offsetInCU: 0x224B6, offset: 0x60D4E, size: 0x8, addend: 0x0, symName: __ZNKSt3__122__compressed_pair_elemIP10HoldEmRankLi0ELb0EE5__getB8ue170006Ev, symObjAddr: 0x149D8, symBinAddr: 0x100022C14, symSize: 0x14 }
  - { offsetInCU: 0x224DA, offset: 0x60D72, size: 0x8, addend: 0x0, symName: __ZNSt3__16vectorI10HoldEmRankNS_9allocatorIS1_EEEC2B8ue170006Ev, symObjAddr: 0x149EC, symBinAddr: 0x100022C28, symSize: 0x4C }
  - { offsetInCU: 0x22502, offset: 0x60D9A, size: 0x8, addend: 0x0, symName: __ZNSt3__117__compressed_pairIP10HoldEmRankNS_9allocatorIS1_EEEC1B8ue170006IDnNS_18__default_init_tagEEEOT_OT0_, symObjAddr: 0x14A38, symBinAddr: 0x100022C74, symSize: 0x3C }
  - { offsetInCU: 0x22558, offset: 0x60DF0, size: 0x8, addend: 0x0, symName: __ZNSt3__117__compressed_pairIP10HoldEmRankNS_9allocatorIS1_EEEC2B8ue170006IDnNS_18__default_init_tagEEEOT_OT0_, symObjAddr: 0x14A74, symBinAddr: 0x100022CB0, symSize: 0x40 }
  - { offsetInCU: 0x225AE, offset: 0x60E46, size: 0x8, addend: 0x0, symName: __ZNSt3__122__compressed_pair_elemIP10HoldEmRankLi0ELb0EEC2B8ue170006IDnvEEOT_, symObjAddr: 0x14AB4, symBinAddr: 0x100022CF0, symSize: 0x1C }
  - { offsetInCU: 0x225EE, offset: 0x60E86, size: 0x8, addend: 0x0, symName: __ZNSt3__122__compressed_pair_elemINS_9allocatorI10HoldEmRankEELi1ELb1EEC2B8ue170006ENS_18__default_init_tagE, symObjAddr: 0x14AD0, symBinAddr: 0x100022D0C, symSize: 0x2C }
  - { offsetInCU: 0x22620, offset: 0x60EB8, size: 0x8, addend: 0x0, symName: __ZNSt3__19allocatorI10HoldEmRankEC2B8ue170006Ev, symObjAddr: 0x14AFC, symBinAddr: 0x100022D38, symSize: 0x2C }
  - { offsetInCU: 0x22648, offset: 0x60EE0, size: 0x8, addend: 0x0, symName: __ZNSt3__116__non_trivial_ifILb1ENS_9allocatorI10HoldEmRankEEEC2B8ue170006Ev, symObjAddr: 0x14B28, symBinAddr: 0x100022D64, symSize: 0x14 }
  - { offsetInCU: 0x22670, offset: 0x60F08, size: 0x8, addend: 0x0, symName: __ZNSt3__16vectorI10HoldEmRankNS_9allocatorIS1_EEE9__end_capB8ue170006Ev, symObjAddr: 0x14B3C, symBinAddr: 0x100022D78, symSize: 0x28 }
  - { offsetInCU: 0x22694, offset: 0x60F2C, size: 0x8, addend: 0x0, symName: __ZNSt3__16vectorI10HoldEmRankNS_9allocatorIS1_EEE22__construct_one_at_endB8ue170006IJRKS1_EEEvDpOT_, symObjAddr: 0x14B64, symBinAddr: 0x100022DA0, symSize: 0x90 }
  - { offsetInCU: 0x226E1, offset: 0x60F79, size: 0x8, addend: 0x0, symName: __ZNSt3__16vectorI10HoldEmRankNS_9allocatorIS1_EEE21__push_back_slow_pathIRKS1_EEvOT_, symObjAddr: 0x14BF4, symBinAddr: 0x100022E30, symSize: 0xD8 }
  - { offsetInCU: 0x2273D, offset: 0x60FD5, size: 0x8, addend: 0x0, symName: __ZNSt3__117__compressed_pairIP10HoldEmRankNS_9allocatorIS1_EEE5firstB8ue170006Ev, symObjAddr: 0x14CCC, symBinAddr: 0x100022F08, symSize: 0x24 }
  - { offsetInCU: 0x22761, offset: 0x60FF9, size: 0x8, addend: 0x0, symName: __ZNSt3__122__compressed_pair_elemIP10HoldEmRankLi0ELb0EE5__getB8ue170006Ev, symObjAddr: 0x14CF0, symBinAddr: 0x100022F2C, symSize: 0x14 }
  - { offsetInCU: 0x2279E, offset: 0x61036, size: 0x8, addend: 0x0, symName: __ZNSt3__16vectorI10HoldEmRankNS_9allocatorIS1_EEE21_ConstructTransactionC1B8ue170006ERS4_m, symObjAddr: 0x14D04, symBinAddr: 0x100022F40, symSize: 0x3C }
  - { offsetInCU: 0x227E4, offset: 0x6107C, size: 0x8, addend: 0x0, symName: __ZNSt3__116allocator_traitsINS_9allocatorI10HoldEmRankEEE9constructB8ue170006IS2_JRKS2_EvEEvRS3_PT_DpOT0_, symObjAddr: 0x14D40, symBinAddr: 0x100022F7C, symSize: 0x34 }
  - { offsetInCU: 0x2283B, offset: 0x610D3, size: 0x8, addend: 0x0, symName: __ZNSt3__16vectorI10HoldEmRankNS_9allocatorIS1_EEE21_ConstructTransactionD1B8ue170006Ev, symObjAddr: 0x14D74, symBinAddr: 0x100022FB0, symSize: 0x2C }
  - { offsetInCU: 0x22863, offset: 0x610FB, size: 0x8, addend: 0x0, symName: __ZNSt3__16vectorI10HoldEmRankNS_9allocatorIS1_EEE21_ConstructTransactionC2B8ue170006ERS4_m, symObjAddr: 0x14DA0, symBinAddr: 0x100022FDC, symSize: 0x44 }
  - { offsetInCU: 0x228A9, offset: 0x61141, size: 0x8, addend: 0x0, symName: __ZNSt3__19allocatorI10HoldEmRankE9constructB8ue170006IS1_JRKS1_EEEvPT_DpOT0_, symObjAddr: 0x14DE4, symBinAddr: 0x100023020, symSize: 0x28 }
  - { offsetInCU: 0x228FD, offset: 0x61195, size: 0x8, addend: 0x0, symName: __ZNSt3__16vectorI10HoldEmRankNS_9allocatorIS1_EEE21_ConstructTransactionD2B8ue170006Ev, symObjAddr: 0x14E0C, symBinAddr: 0x100023048, symSize: 0x20 }
  - { offsetInCU: 0x22925, offset: 0x611BD, size: 0x8, addend: 0x0, symName: __ZNKSt3__16vectorI10HoldEmRankNS_9allocatorIS1_EEE11__recommendB8ue170006Em, symObjAddr: 0x14E2C, symBinAddr: 0x100023068, symSize: 0xB4 }
  - { offsetInCU: 0x22978, offset: 0x61210, size: 0x8, addend: 0x0, symName: __ZNSt3__114__split_bufferI10HoldEmRankRNS_9allocatorIS1_EEEC1EmmS4_, symObjAddr: 0x14EE0, symBinAddr: 0x10002311C, symSize: 0x44 }
  - { offsetInCU: 0x229CD, offset: 0x61265, size: 0x8, addend: 0x0, symName: __ZNSt3__114__split_bufferI10HoldEmRankRNS_9allocatorIS1_EEED1Ev, symObjAddr: 0x15034, symBinAddr: 0x100023270, symSize: 0x2C }
  - { offsetInCU: 0x229F8, offset: 0x61290, size: 0x8, addend: 0x0, symName: __ZNKSt3__16vectorI10HoldEmRankNS_9allocatorIS1_EEE8max_sizeEv, symObjAddr: 0x15060, symBinAddr: 0x10002329C, symSize: 0x60 }
  - { offsetInCU: 0x22A1E, offset: 0x612B6, size: 0x8, addend: 0x0, symName: __ZNKSt3__16vectorI10HoldEmRankNS_9allocatorIS1_EEE20__throw_length_errorB8ue170006Ev, symObjAddr: 0x150C0, symBinAddr: 0x1000232FC, symSize: 0x1C }
  - { offsetInCU: 0x22A4C, offset: 0x612E4, size: 0x8, addend: 0x0, symName: __ZNSt3__116allocator_traitsINS_9allocatorI10HoldEmRankEEE8max_sizeB8ue170006IS3_vEEmRKS3_, symObjAddr: 0x150DC, symBinAddr: 0x100023318, symSize: 0x24 }
  - { offsetInCU: 0x22A7A, offset: 0x61312, size: 0x8, addend: 0x0, symName: __ZNKSt3__16vectorI10HoldEmRankNS_9allocatorIS1_EEE7__allocB8ue170006Ev, symObjAddr: 0x15100, symBinAddr: 0x10002333C, symSize: 0x28 }
  - { offsetInCU: 0x22A9E, offset: 0x61336, size: 0x8, addend: 0x0, symName: __ZNKSt3__19allocatorI10HoldEmRankE8max_sizeB8ue170006Ev, symObjAddr: 0x15128, symBinAddr: 0x100023364, symSize: 0x14 }
  - { offsetInCU: 0x22AC2, offset: 0x6135A, size: 0x8, addend: 0x0, symName: __ZNKSt3__117__compressed_pairIP10HoldEmRankNS_9allocatorIS1_EEE6secondB8ue170006Ev, symObjAddr: 0x1513C, symBinAddr: 0x100023378, symSize: 0x24 }
  - { offsetInCU: 0x22AE6, offset: 0x6137E, size: 0x8, addend: 0x0, symName: __ZNKSt3__122__compressed_pair_elemINS_9allocatorI10HoldEmRankEELi1ELb1EE5__getB8ue170006Ev, symObjAddr: 0x15160, symBinAddr: 0x10002339C, symSize: 0x14 }
  - { offsetInCU: 0x22B0A, offset: 0x613A2, size: 0x8, addend: 0x0, symName: __ZNSt3__114__split_bufferI10HoldEmRankRNS_9allocatorIS1_EEEC2EmmS4_, symObjAddr: 0x15174, symBinAddr: 0x1000233B0, symSize: 0xD4 }
  - { offsetInCU: 0x22B7D, offset: 0x61415, size: 0x8, addend: 0x0, symName: __ZNSt3__117__compressed_pairIP10HoldEmRankRNS_9allocatorIS1_EEEC1B8ue170006IDnS5_EEOT_OT0_, symObjAddr: 0x15248, symBinAddr: 0x100023484, symSize: 0x3C }
  - { offsetInCU: 0x22BD3, offset: 0x6146B, size: 0x8, addend: 0x0, symName: __ZNSt3__114__split_bufferI10HoldEmRankRNS_9allocatorIS1_EEE7__allocB8ue170006Ev, symObjAddr: 0x152C4, symBinAddr: 0x100023500, symSize: 0x28 }
  - { offsetInCU: 0x22BF7, offset: 0x6148F, size: 0x8, addend: 0x0, symName: __ZNSt3__114__split_bufferI10HoldEmRankRNS_9allocatorIS1_EEE9__end_capB8ue170006Ev, symObjAddr: 0x152EC, symBinAddr: 0x100023528, symSize: 0x28 }
  - { offsetInCU: 0x22C1B, offset: 0x614B3, size: 0x8, addend: 0x0, symName: __ZNSt3__117__compressed_pairIP10HoldEmRankRNS_9allocatorIS1_EEEC2B8ue170006IDnS5_EEOT_OT0_, symObjAddr: 0x15314, symBinAddr: 0x100023550, symSize: 0x48 }
  - { offsetInCU: 0x22C71, offset: 0x61509, size: 0x8, addend: 0x0, symName: __ZNSt3__122__compressed_pair_elemIRNS_9allocatorI10HoldEmRankEELi1ELb0EEC2B8ue170006IS4_vEEOT_, symObjAddr: 0x1535C, symBinAddr: 0x100023598, symSize: 0x20 }
  - { offsetInCU: 0x22CB1, offset: 0x61549, size: 0x8, addend: 0x0, symName: __ZNSt3__19allocatorI10HoldEmRankE8allocateB8ue170006Em, symObjAddr: 0x1537C, symBinAddr: 0x1000235B8, symSize: 0x58 }
  - { offsetInCU: 0x22CE3, offset: 0x6157B, size: 0x8, addend: 0x0, symName: __ZNSt3__117__compressed_pairIP10HoldEmRankRNS_9allocatorIS1_EEE6secondB8ue170006Ev, symObjAddr: 0x153D4, symBinAddr: 0x100023610, symSize: 0x28 }
  - { offsetInCU: 0x22D07, offset: 0x6159F, size: 0x8, addend: 0x0, symName: __ZNSt3__122__compressed_pair_elemIRNS_9allocatorI10HoldEmRankEELi1ELb0EE5__getB8ue170006Ev, symObjAddr: 0x153FC, symBinAddr: 0x100023638, symSize: 0x18 }
  - { offsetInCU: 0x22D2B, offset: 0x615C3, size: 0x8, addend: 0x0, symName: __ZNSt3__117__compressed_pairIP10HoldEmRankRNS_9allocatorIS1_EEE5firstB8ue170006Ev, symObjAddr: 0x15414, symBinAddr: 0x100023650, symSize: 0x24 }
  - { offsetInCU: 0x22D4F, offset: 0x615E7, size: 0x8, addend: 0x0, symName: __ZNSt3__116reverse_iteratorIP10HoldEmRankEC1B8ue170006ES2_, symObjAddr: 0x154B0, symBinAddr: 0x1000236EC, symSize: 0x34 }
  - { offsetInCU: 0x22D85, offset: 0x6161D, size: 0x8, addend: 0x0, symName: __ZNKSt3__116reverse_iteratorIP10HoldEmRankE4baseB8ue170006Ev, symObjAddr: 0x154E4, symBinAddr: 0x100023720, symSize: 0x18 }
  - { offsetInCU: 0x22DA9, offset: 0x61641, size: 0x8, addend: 0x0, symName: __ZNKSt3__16vectorI10HoldEmRankNS_9allocatorIS1_EEE14__annotate_newB8ue170006Em, symObjAddr: 0x15538, symBinAddr: 0x100023774, symSize: 0xAC }
  - { offsetInCU: 0x22DF5, offset: 0x6168D, size: 0x8, addend: 0x0, symName: __ZNKSt3__111__move_loopINS_17_ClassicAlgPolicyEEclB8ue170006INS_16reverse_iteratorIP10HoldEmRankEES7_S7_EENS_4pairIT_T1_EES9_T0_SA_, symObjAddr: 0x158D4, symBinAddr: 0x100023B10, symSize: 0xA0 }
  - { offsetInCU: 0x22E63, offset: 0x616FB, size: 0x8, addend: 0x0, symName: __ZNSt3__18_IterOpsINS_17_ClassicAlgPolicyEE11__iter_moveB8ue170006IRNS_16reverse_iteratorIP10HoldEmRankEEEENS_9enable_ifIXsr12is_referenceIDTdeclsr3stdE7declvalIRT_EEEEE5valueEDTclsr3stdE4movedeclsr3stdE7declvalISB_EEEEE4typeEOSA_, symObjAddr: 0x15B08, symBinAddr: 0x100023D44, symSize: 0x28 }
  - { offsetInCU: 0x22E8F, offset: 0x61727, size: 0x8, addend: 0x0, symName: __ZNKSt3__116reverse_iteratorIP10HoldEmRankEdeB8ue170006Ev, symObjAddr: 0x15B30, symBinAddr: 0x100023D6C, symSize: 0x28 }
  - { offsetInCU: 0x22EC2, offset: 0x6175A, size: 0x8, addend: 0x0, symName: __ZNSt3__116reverse_iteratorIP10HoldEmRankEppB8ue170006Ev, symObjAddr: 0x15B58, symBinAddr: 0x100023D94, symSize: 0x20 }
  - { offsetInCU: 0x22EE6, offset: 0x6177E, size: 0x8, addend: 0x0, symName: __ZNSt3__18_IterOpsINS_17_ClassicAlgPolicyEE25__validate_iter_referenceB8ue170006IRNS_16reverse_iteratorIP10HoldEmRankEEEEvv, symObjAddr: 0x15B78, symBinAddr: 0x100023DB4, symSize: 0x4 }
  - { offsetInCU: 0x22F03, offset: 0x6179B, size: 0x8, addend: 0x0, symName: __ZNSt3__118__unwrap_iter_implINS_16reverse_iteratorIP10HoldEmRankEELb0EE8__unwrapB8ue170006ES4_, symObjAddr: 0x15B7C, symBinAddr: 0x100023DB8, symSize: 0x24 }
  - { offsetInCU: 0x22F2A, offset: 0x617C2, size: 0x8, addend: 0x0, symName: __ZNSt3__14pairINS_16reverse_iteratorIP10HoldEmRankEES4_EC1B8ue170006IS4_S4_LPv0EEEOT_OT0_, symObjAddr: 0x15BA0, symBinAddr: 0x100023DDC, symSize: 0x3C }
  - { offsetInCU: 0x22F87, offset: 0x6181F, size: 0x8, addend: 0x0, symName: __ZNSt3__14pairINS_16reverse_iteratorIP10HoldEmRankEES4_EC2B8ue170006IS4_S4_LPv0EEEOT_OT0_, symObjAddr: 0x15BDC, symBinAddr: 0x100023E18, symSize: 0x34 }
  - { offsetInCU: 0x22FE4, offset: 0x6187C, size: 0x8, addend: 0x0, symName: __ZNSt3__118__unwrap_iter_implINS_16reverse_iteratorIP10HoldEmRankEELb0EE8__rewrapB8ue170006ES4_S4_, symObjAddr: 0x15C10, symBinAddr: 0x100023E4C, symSize: 0x2C }
  - { offsetInCU: 0x23010, offset: 0x618A8, size: 0x8, addend: 0x0, symName: __ZNSt3__116reverse_iteratorIP10HoldEmRankEC2B8ue170006ES2_, symObjAddr: 0x15C3C, symBinAddr: 0x100023E78, symSize: 0x28 }
  - { offsetInCU: 0x23046, offset: 0x618DE, size: 0x8, addend: 0x0, symName: __ZNSt3__114__split_bufferI10HoldEmRankRNS_9allocatorIS1_EEED2Ev, symObjAddr: 0x15C64, symBinAddr: 0x100023EA0, symSize: 0x8C }
  - { offsetInCU: 0x23071, offset: 0x61909, size: 0x8, addend: 0x0, symName: __ZNSt3__114__split_bufferI10HoldEmRankRNS_9allocatorIS1_EEE5clearB8ue170006Ev, symObjAddr: 0x15CF0, symBinAddr: 0x100023F2C, symSize: 0x28 }
  - { offsetInCU: 0x23095, offset: 0x6192D, size: 0x8, addend: 0x0, symName: __ZNKSt3__114__split_bufferI10HoldEmRankRNS_9allocatorIS1_EEE8capacityB8ue170006Ev, symObjAddr: 0x15D18, symBinAddr: 0x100023F54, symSize: 0x40 }
  - { offsetInCU: 0x230B9, offset: 0x61951, size: 0x8, addend: 0x0, symName: __ZNSt3__114__split_bufferI10HoldEmRankRNS_9allocatorIS1_EEE17__destruct_at_endB8ue170006EPS1_, symObjAddr: 0x15D58, symBinAddr: 0x100023F94, symSize: 0x2C }
  - { offsetInCU: 0x230EB, offset: 0x61983, size: 0x8, addend: 0x0, symName: __ZNSt3__114__split_bufferI10HoldEmRankRNS_9allocatorIS1_EEE17__destruct_at_endB8ue170006EPS1_NS_17integral_constantIbLb0EEE, symObjAddr: 0x15D84, symBinAddr: 0x100023FC0, symSize: 0x80 }
  - { offsetInCU: 0x23129, offset: 0x619C1, size: 0x8, addend: 0x0, symName: __ZNKSt3__114__split_bufferI10HoldEmRankRNS_9allocatorIS1_EEE9__end_capB8ue170006Ev, symObjAddr: 0x15E04, symBinAddr: 0x100024040, symSize: 0x28 }
  - { offsetInCU: 0x2314D, offset: 0x619E5, size: 0x8, addend: 0x0, symName: __ZNKSt3__117__compressed_pairIP10HoldEmRankRNS_9allocatorIS1_EEE5firstB8ue170006Ev, symObjAddr: 0x15E2C, symBinAddr: 0x100024068, symSize: 0x24 }
  - { offsetInCU: 0x23171, offset: 0x61A09, size: 0x8, addend: 0x0, symName: __ZNSt3__116reverse_iteratorINS_11__wrap_iterIP10HoldEmRankEEEC1B8ue170006ES4_, symObjAddr: 0x15E50, symBinAddr: 0x10002408C, symSize: 0x34 }
  - { offsetInCU: 0x231A7, offset: 0x61A3F, size: 0x8, addend: 0x0, symName: __ZNSt3__116reverse_iteratorINS_11__wrap_iterIP10HoldEmRankEEEC2B8ue170006ES4_, symObjAddr: 0x15E84, symBinAddr: 0x1000240C0, symSize: 0x28 }
  - { offsetInCU: 0x231DD, offset: 0x61A75, size: 0x8, addend: 0x0, symName: __ZNKSt3__116reverse_iteratorINS_11__wrap_iterIP10HoldEmRankEEE4baseB8ue170006Ev, symObjAddr: 0x16960, symBinAddr: 0x100024B9C, symSize: 0x20 }
  - { offsetInCU: 0x23201, offset: 0x61A99, size: 0x8, addend: 0x0, symName: __ZNKSt3__111__wrap_iterIP10HoldEmRankE4baseB8ue170006Ev, symObjAddr: 0x16980, symBinAddr: 0x100024BBC, symSize: 0x18 }
  - { offsetInCU: 0x23225, offset: 0x61ABD, size: 0x8, addend: 0x0, symName: __ZNKSt3__16__lessIvvEclB8ue170006I10HoldEmRankS3_EEbRKT_RKT0_, symObjAddr: 0x16998, symBinAddr: 0x100024BD4, symSize: 0x34 }
  - { offsetInCU: 0x23277, offset: 0x61B0F, size: 0x8, addend: 0x0, symName: __ZNSt3__116reverse_iteratorINS_11__wrap_iterIP10HoldEmRankEEEmmB8ue170006Ev, symObjAddr: 0x169CC, symBinAddr: 0x100024C08, symSize: 0x30 }
  - { offsetInCU: 0x2329B, offset: 0x61B33, size: 0x8, addend: 0x0, symName: __ZNKSt3__116reverse_iteratorINS_11__wrap_iterIP10HoldEmRankEEEdeB8ue170006Ev, symObjAddr: 0x169FC, symBinAddr: 0x100024C38, symSize: 0x34 }
  - { offsetInCU: 0x232CE, offset: 0x61B66, size: 0x8, addend: 0x0, symName: __ZNSt3__18_IterOpsINS_17_ClassicAlgPolicyEE9iter_swapB8ue170006IRNS_16reverse_iteratorINS_11__wrap_iterIP10HoldEmRankEEEESA_EEvOT_OT0_, symObjAddr: 0x16A30, symBinAddr: 0x100024C6C, symSize: 0x4C }
  - { offsetInCU: 0x23311, offset: 0x61BA9, size: 0x8, addend: 0x0, symName: __ZNKSt3__116reverse_iteratorINS_11__wrap_iterIP10HoldEmRankEEEplB8ue170006El, symObjAddr: 0x16AE8, symBinAddr: 0x100024D24, symSize: 0x48 }
  - { offsetInCU: 0x23343, offset: 0x61BDB, size: 0x8, addend: 0x0, symName: __ZNKSt3__116reverse_iteratorINS_11__wrap_iterIP10HoldEmRankEEEmiB8ue170006El, symObjAddr: 0x172AC, symBinAddr: 0x1000254E8, symSize: 0x48 }
  - { offsetInCU: 0x2337A, offset: 0x61C12, size: 0x8, addend: 0x0, symName: __ZNSt3__18_IterOpsINS_17_ClassicAlgPolicyEE9iter_swapB8ue170006IRNS_16reverse_iteratorINS_11__wrap_iterIP10HoldEmRankEEEES9_EEvOT_OT0_, symObjAddr: 0x172F4, symBinAddr: 0x100025530, symSize: 0x4C }
  - { offsetInCU: 0x233BD, offset: 0x61C55, size: 0x8, addend: 0x0, symName: __ZNSt3__116reverse_iteratorINS_11__wrap_iterIP10HoldEmRankEEEppB8ue170006Ev, symObjAddr: 0x18108, symBinAddr: 0x100026344, symSize: 0x30 }
  - { offsetInCU: 0x233E1, offset: 0x61C79, size: 0x8, addend: 0x0, symName: __ZNSt3__111__wrap_iterIP10HoldEmRankEppB8ue170006Ev, symObjAddr: 0x18138, symBinAddr: 0x100026374, symSize: 0x20 }
  - { offsetInCU: 0x23405, offset: 0x61C9D, size: 0x8, addend: 0x0, symName: __ZNSt3__111__wrap_iterIP10HoldEmRankEmmB8ue170006Ev, symObjAddr: 0x18158, symBinAddr: 0x100026394, symSize: 0x20 }
  - { offsetInCU: 0x23429, offset: 0x61CC1, size: 0x8, addend: 0x0, symName: __ZNKSt3__111__wrap_iterIP10HoldEmRankEdeB8ue170006Ev, symObjAddr: 0x18178, symBinAddr: 0x1000263B4, symSize: 0x18 }
  - { offsetInCU: 0x2344D, offset: 0x61CE5, size: 0x8, addend: 0x0, symName: __ZNKSt3__111__wrap_iterIP10HoldEmRankEmiB8ue170006El, symObjAddr: 0x18224, symBinAddr: 0x100026460, symSize: 0x3C }
  - { offsetInCU: 0x2347F, offset: 0x61D17, size: 0x8, addend: 0x0, symName: __ZNKSt3__111__wrap_iterIP10HoldEmRankEplB8ue170006El, symObjAddr: 0x18260, symBinAddr: 0x10002649C, symSize: 0x3C }
  - { offsetInCU: 0x234C0, offset: 0x61D58, size: 0x8, addend: 0x0, symName: __ZNSt3__111__wrap_iterIP10HoldEmRankEpLB8ue170006El, symObjAddr: 0x1829C, symBinAddr: 0x1000264D8, symSize: 0x28 }
  - { offsetInCU: 0x234F2, offset: 0x61D8A, size: 0x8, addend: 0x0, symName: __ZNSt3__18_IterOpsINS_17_ClassicAlgPolicyEE11__iter_moveB8ue170006IRNS_16reverse_iteratorINS_11__wrap_iterIP10HoldEmRankEEEEEENS_9enable_ifIXsr12is_referenceIDTdeclsr3stdE7declvalIRT_EEEEE5valueEDTclsr3stdE4movedeclsr3stdE7declvalISD_EEEEE4typeEOSC_, symObjAddr: 0x186A4, symBinAddr: 0x1000268E0, symSize: 0x28 }
  - { offsetInCU: 0x2351E, offset: 0x61DB6, size: 0x8, addend: 0x0, symName: __ZNSt3__18_IterOpsINS_17_ClassicAlgPolicyEE25__validate_iter_referenceB8ue170006IRNS_16reverse_iteratorINS_11__wrap_iterIP10HoldEmRankEEEEEEvv, symObjAddr: 0x18748, symBinAddr: 0x100026984, symSize: 0x4 }
  - { offsetInCU: 0x2353B, offset: 0x61DD3, size: 0x8, addend: 0x0, symName: __ZNSt3__18_IterOpsINS_17_ClassicAlgPolicyEE4nextB8ue170006INS_16reverse_iteratorINS_11__wrap_iterIP10HoldEmRankEEEEEET_SA_SA_, symObjAddr: 0x1874C, symBinAddr: 0x100026988, symSize: 0x2C }
  - { offsetInCU: 0x23570, offset: 0x61E08, size: 0x8, addend: 0x0, symName: __ZNSt3__116reverse_iteratorINS_11__wrap_iterIP10HoldEmRankEEEpLB8ue170006El, symObjAddr: 0x19200, symBinAddr: 0x10002743C, symSize: 0x38 }
  - { offsetInCU: 0x235A2, offset: 0x61E3A, size: 0x8, addend: 0x0, symName: __ZNSt3__111__wrap_iterIP10HoldEmRankEmIB8ue170006El, symObjAddr: 0x19238, symBinAddr: 0x100027474, symSize: 0x3C }
  - { offsetInCU: 0x235D4, offset: 0x61E6C, size: 0x8, addend: 0x0, symName: __ZNSt3__116reverse_iteratorINS_11__wrap_iterIP10HoldEmRankEEEmIB8ue170006El, symObjAddr: 0x19624, symBinAddr: 0x100027860, symSize: 0x38 }
  - { offsetInCU: 0x23606, offset: 0x61E9E, size: 0x8, addend: 0x0, symName: __ZNSt3__18_IterOpsINS_17_ClassicAlgPolicyEE9iter_swapB8ue170006INS_16reverse_iteratorINS_11__wrap_iterIP10HoldEmRankEEEES9_EEvOT_OT0_, symObjAddr: 0x19B94, symBinAddr: 0x100027DD0, symSize: 0x4C }
  - { offsetInCU: 0x23662, offset: 0x61EFA, size: 0x8, addend: 0x0, symName: __ZNSt3__14pairINS_16reverse_iteratorINS_11__wrap_iterIP10HoldEmRankEEEEbEC1B8ue170006IRS6_RbLPv0EEEOT_OT0_, symObjAddr: 0x19BE0, symBinAddr: 0x100027E1C, symSize: 0x3C }
  - { offsetInCU: 0x236BF, offset: 0x61F57, size: 0x8, addend: 0x0, symName: __ZNSt3__14pairINS_16reverse_iteratorINS_11__wrap_iterIP10HoldEmRankEEEEbEC2B8ue170006IRS6_RbLPv0EEEOT_OT0_, symObjAddr: 0x19C1C, symBinAddr: 0x100027E58, symSize: 0x38 }
  - { offsetInCU: 0x2371C, offset: 0x61FB4, size: 0x8, addend: 0x0, symName: __ZNSt3__118__unwrap_iter_implINS_16reverse_iteratorINS_11__wrap_iterIP10HoldEmRankEEEELb0EE8__unwrapB8ue170006ES6_, symObjAddr: 0x19C54, symBinAddr: 0x100027E90, symSize: 0x24 }
  - { offsetInCU: 0x2373E, offset: 0x61FD6, size: 0x8, addend: 0x0, symName: __ZNSt3__16vectorI10HoldEmRankNS_9allocatorIS1_EEE11__make_iterB8ue170006EPS1_, symObjAddr: 0x19C78, symBinAddr: 0x100027EB4, symSize: 0x30 }
  - { offsetInCU: 0x23771, offset: 0x62009, size: 0x8, addend: 0x0, symName: __ZNSt3__111__wrap_iterIP10HoldEmRankEC1B8ue170006ES2_, symObjAddr: 0x19CA8, symBinAddr: 0x100027EE4, symSize: 0x34 }
  - { offsetInCU: 0x237A7, offset: 0x6203F, size: 0x8, addend: 0x0, symName: __ZNSt3__111__wrap_iterIP10HoldEmRankEC2B8ue170006ES2_, symObjAddr: 0x19CDC, symBinAddr: 0x100027F18, symSize: 0x20 }
  - { offsetInCU: 0x237E7, offset: 0x6207F, size: 0x8, addend: 0x0, symName: __ZNKSt3__17greaterI10HoldEmRankEclB8ue170006ERKS1_S4_, symObjAddr: 0x1A2AC, symBinAddr: 0x1000284E8, symSize: 0x34 }
  - { offsetInCU: 0x23829, offset: 0x620C1, size: 0x8, addend: 0x0, symName: __ZNSt3__18_IterOpsINS_17_ClassicAlgPolicyEE9iter_swapB8ue170006IRP10HoldEmRankS6_EEvOT_OT0_, symObjAddr: 0x1A2E0, symBinAddr: 0x10002851C, symSize: 0x34 }
  - { offsetInCU: 0x23871, offset: 0x62109, size: 0x8, addend: 0x0, symName: __ZNSt3__18_IterOpsINS_17_ClassicAlgPolicyEE9iter_swapB8ue170006IRP10HoldEmRankS5_EEvOT_OT0_, symObjAddr: 0x1A828, symBinAddr: 0x100028A64, symSize: 0x34 }
  - { offsetInCU: 0x238B4, offset: 0x6214C, size: 0x8, addend: 0x0, symName: __ZNSt3__18_IterOpsINS_17_ClassicAlgPolicyEE11__iter_moveB8ue170006IRP10HoldEmRankEENS_9enable_ifIXsr12is_referenceIDTdeclsr3stdE7declvalIRT_EEEEE5valueEDTclsr3stdE4movedeclsr3stdE7declvalIS9_EEEEE4typeEOS8_, symObjAddr: 0x1B490, symBinAddr: 0x1000296CC, symSize: 0x28 }
  - { offsetInCU: 0x238E0, offset: 0x62178, size: 0x8, addend: 0x0, symName: __ZNSt3__18_IterOpsINS_17_ClassicAlgPolicyEE25__validate_iter_referenceB8ue170006IRP10HoldEmRankEEvv, symObjAddr: 0x1B4B8, symBinAddr: 0x1000296F4, symSize: 0x4 }
  - { offsetInCU: 0x238FD, offset: 0x62195, size: 0x8, addend: 0x0, symName: __ZNSt3__18_IterOpsINS_17_ClassicAlgPolicyEE4nextB8ue170006IP10HoldEmRankEET_S6_S6_, symObjAddr: 0x1B4BC, symBinAddr: 0x1000296F8, symSize: 0x18 }
  - { offsetInCU: 0x23932, offset: 0x621CA, size: 0x8, addend: 0x0, symName: __ZNSt3__18_IterOpsINS_17_ClassicAlgPolicyEE9iter_swapB8ue170006IP10HoldEmRankS5_EEvOT_OT0_, symObjAddr: 0x1C3BC, symBinAddr: 0x10002A5F8, symSize: 0x34 }
  - { offsetInCU: 0x2398E, offset: 0x62226, size: 0x8, addend: 0x0, symName: __ZNSt3__14pairIP10HoldEmRankbEC1B8ue170006IRS2_RbLPv0EEEOT_OT0_, symObjAddr: 0x1C3F0, symBinAddr: 0x10002A62C, symSize: 0x3C }
  - { offsetInCU: 0x239EB, offset: 0x62283, size: 0x8, addend: 0x0, symName: __ZNSt3__14pairIP10HoldEmRankbEC2B8ue170006IRS2_RbLPv0EEEOT_OT0_, symObjAddr: 0x1C42C, symBinAddr: 0x10002A668, symSize: 0x38 }
  - { offsetInCU: 0x23A48, offset: 0x622E0, size: 0x8, addend: 0x0, symName: __ZNSt3__118__unwrap_iter_implINS_11__wrap_iterIP10HoldEmRankEELb1EE8__unwrapB8ue170006ES4_, symObjAddr: 0x1C464, symBinAddr: 0x10002A6A0, symSize: 0x28 }
  - { offsetInCU: 0x23A75, offset: 0x6230D, size: 0x8, addend: 0x0, symName: __ZNSt3__119__to_address_helperINS_11__wrap_iterIP10HoldEmRankEEvE6__callB8ue170006ERKS4_, symObjAddr: 0x1C4B0, symBinAddr: 0x10002A6EC, symSize: 0x30 }
  - { offsetInCU: 0x23A98, offset: 0x62330, size: 0x8, addend: 0x0, symName: __ZNSt3__114pointer_traitsINS_11__wrap_iterIP10HoldEmRankEEE10to_addressB8ue170006ES4_, symObjAddr: 0x1C4E0, symBinAddr: 0x10002A71C, symSize: 0x2C }
  - { offsetInCU: 0x8239, offset: 0x6A86F, size: 0x8, addend: 0x0, symName: __ZNSt3__111make_sharedB8ue170006I12PinochleGameJRiRPPKcEvEENS_10shared_ptrIT_EEDpOT0_, symObjAddr: 0x29C, symBinAddr: 0x10002A904, symSize: 0x48 }
  - { offsetInCU: 0x84AC, offset: 0x6AAE2, size: 0x8, addend: 0x0, symName: __ZNSt3__111make_sharedB8ue170006I10HoldEmGameJRiRPPKcEvEENS_10shared_ptrIT_EEDpOT0_, symObjAddr: 0x360, symBinAddr: 0x10002A9C8, symSize: 0x48 }
  - { offsetInCU: 0x871F, offset: 0x6AD55, size: 0x8, addend: 0x0, symName: __ZNSt3__134__libcpp_atomic_refcount_decrementB8ue170006IlEET_RS1_, symObjAddr: 0xED0, symBinAddr: 0x10002B26C, symSize: 0x30 }
  - { offsetInCU: 0x8754, offset: 0x6AD8A, size: 0x8, addend: 0x0, symName: __ZNSt3__115allocate_sharedB8ue170006I12PinochleGameNS_9allocatorIS1_EEJRiRPPKcEvEENS_10shared_ptrIT_EERKT0_DpOT1_, symObjAddr: 0x1020, symBinAddr: 0x10002B29C, symSize: 0xA0 }
  - { offsetInCU: 0x8B13, offset: 0x6B149, size: 0x8, addend: 0x0, symName: __ZNSt3__14swapB8ue170006IP4GameEENS_9enable_ifIXaasr21is_move_constructibleIT_EE5valuesr18is_move_assignableIS4_EE5valueEvE4typeERS4_S7_, symObjAddr: 0x1CD8, symBinAddr: 0x10002BD48, symSize: 0x3C }
  - { offsetInCU: 0x8B65, offset: 0x6B19B, size: 0x8, addend: 0x0, symName: __ZNSt3__14swapB8ue170006IPNS_19__shared_weak_countEEENS_9enable_ifIXaasr21is_move_constructibleIT_EE5valuesr18is_move_assignableIS4_EE5valueEvE4typeERS4_S7_, symObjAddr: 0x1D14, symBinAddr: 0x10002BD84, symSize: 0x3C }
  - { offsetInCU: 0x8BB7, offset: 0x6B1ED, size: 0x8, addend: 0x0, symName: __ZNSt3__115allocate_sharedB8ue170006I10HoldEmGameNS_9allocatorIS1_EEJRiRPPKcEvEENS_10shared_ptrIT_EERKT0_DpOT1_, symObjAddr: 0x1D50, symBinAddr: 0x10002BDC0, symSize: 0xA0 }
  - { offsetInCU: 0xBA9A, offset: 0x6E0D0, size: 0x8, addend: 0x0, symName: __Z6createiPPKc, symObjAddr: 0x0, symBinAddr: 0x10002A748, symSize: 0x190 }
  - { offsetInCU: 0xBAF4, offset: 0x6E12A, size: 0x8, addend: 0x0, symName: __ZNSt3__110shared_ptrI4GameEC1B8ue170006Ev, symObjAddr: 0x190, symBinAddr: 0x10002A8D8, symSize: 0x2C }
  - { offsetInCU: 0xBB44, offset: 0x6E17A, size: 0x8, addend: 0x0, symName: __ZNSt3__110shared_ptrI4GameEaSB8ue170006I12PinochleGamevEERS2_ONS0_IT_EE, symObjAddr: 0x2E4, symBinAddr: 0x10002A94C, symSize: 0x50 }
  - { offsetInCU: 0xBB81, offset: 0x6E1B7, size: 0x8, addend: 0x0, symName: __ZNSt3__110shared_ptrI12PinochleGameED1B8ue170006Ev, symObjAddr: 0x334, symBinAddr: 0x10002A99C, symSize: 0x2C }
  - { offsetInCU: 0xBBCC, offset: 0x6E202, size: 0x8, addend: 0x0, symName: __ZNSt3__110shared_ptrI4GameEaSB8ue170006I10HoldEmGamevEERS2_ONS0_IT_EE, symObjAddr: 0x3A8, symBinAddr: 0x10002AA10, symSize: 0x50 }
  - { offsetInCU: 0xBC09, offset: 0x6E23F, size: 0x8, addend: 0x0, symName: __ZNSt3__110shared_ptrI10HoldEmGameED1B8ue170006Ev, symObjAddr: 0x3F8, symBinAddr: 0x10002AA60, symSize: 0x2C }
  - { offsetInCU: 0xBC31, offset: 0x6E267, size: 0x8, addend: 0x0, symName: __ZNSt3__110shared_ptrI4GameED1B8ue170006Ev, symObjAddr: 0x424, symBinAddr: 0x10002AA8C, symSize: 0x2C }
  - { offsetInCU: 0xBC58, offset: 0x6E28E, size: 0x8, addend: 0x0, symName: __Z30checkIfAllPlayerNamesAreUniqueiPPKc, symObjAddr: 0x450, symBinAddr: 0x10002AAB8, symSize: 0xF0 }
  - { offsetInCU: 0xBCCF, offset: 0x6E305, size: 0x8, addend: 0x0, symName: _main, symObjAddr: 0x540, symBinAddr: 0x10002ABA8, symSize: 0x504 }
  - { offsetInCU: 0xBD3B, offset: 0x6E371, size: 0x8, addend: 0x0, symName: __ZNSt3__110shared_ptrI4GameEaSB8ue170006EOS2_, symObjAddr: 0xA8C, symBinAddr: 0x10002B0AC, symSize: 0x50 }
  - { offsetInCU: 0xBD6E, offset: 0x6E3A4, size: 0x8, addend: 0x0, symName: __ZNKSt3__110shared_ptrI4GameEcvbB8ue170006Ev, symObjAddr: 0xB28, symBinAddr: 0x10002B0FC, symSize: 0x30 }
  - { offsetInCU: 0xBD92, offset: 0x6E3C8, size: 0x8, addend: 0x0, symName: __ZNKSt3__110shared_ptrI4GameEptB8ue170006Ev, symObjAddr: 0xB58, symBinAddr: 0x10002B12C, symSize: 0x18 }
  - { offsetInCU: 0xBDB6, offset: 0x6E3EC, size: 0x8, addend: 0x0, symName: __ZNSt3__110shared_ptrI4GameEC2B8ue170006Ev, symObjAddr: 0xC00, symBinAddr: 0x10002B144, symSize: 0x1C }
  - { offsetInCU: 0xBDDE, offset: 0x6E414, size: 0x8, addend: 0x0, symName: __ZNSt3__110shared_ptrI4GameED2B8ue170006Ev, symObjAddr: 0xDC4, symBinAddr: 0x10002B160, symSize: 0x54 }
  - { offsetInCU: 0xBE06, offset: 0x6E43C, size: 0x8, addend: 0x0, symName: __ZNSt3__119__shared_weak_count16__release_sharedB8ue170006Ev, symObjAddr: 0xE18, symBinAddr: 0x10002B1B4, symSize: 0x3C }
  - { offsetInCU: 0xBE2A, offset: 0x6E460, size: 0x8, addend: 0x0, symName: __ZNSt3__114__shared_count16__release_sharedB8ue170006Ev, symObjAddr: 0xE54, symBinAddr: 0x10002B1F0, symSize: 0x7C }
  - { offsetInCU: 0xBE4E, offset: 0x6E484, size: 0x8, addend: 0x0, symName: __ZNSt3__19allocatorI12PinochleGameEC1B8ue170006Ev, symObjAddr: 0x10C0, symBinAddr: 0x10002B33C, symSize: 0x2C }
  - { offsetInCU: 0xBEC1, offset: 0x6E4F7, size: 0x8, addend: 0x0, symName: __ZNSt3__118__allocation_guardINS_9allocatorINS_20__shared_ptr_emplaceI12PinochleGameNS1_IS3_EEEEEEEC1B8ue170006IS4_EET_m, symObjAddr: 0x10EC, symBinAddr: 0x10002B368, symSize: 0x34 }
  - { offsetInCU: 0xBF0E, offset: 0x6E544, size: 0x8, addend: 0x0, symName: __ZNKSt3__118__allocation_guardINS_9allocatorINS_20__shared_ptr_emplaceI12PinochleGameNS1_IS3_EEEEEEE5__getB8ue170006Ev, symObjAddr: 0x1120, symBinAddr: 0x10002B39C, symSize: 0x18 }
  - { offsetInCU: 0xBF3C, offset: 0x6E572, size: 0x8, addend: 0x0, symName: __ZNSt3__120__shared_ptr_emplaceI12PinochleGameNS_9allocatorIS1_EEEC1B8ue170006IJRiRPPKcEEES3_DpOT_, symObjAddr: 0x1138, symBinAddr: 0x10002B3B4, symSize: 0x3C }
  - { offsetInCU: 0xBFA1, offset: 0x6E5D7, size: 0x8, addend: 0x0, symName: __ZNSt3__118__allocation_guardINS_9allocatorINS_20__shared_ptr_emplaceI12PinochleGameNS1_IS3_EEEEEEE13__release_ptrB8ue170006Ev, symObjAddr: 0x1174, symBinAddr: 0x10002B3F0, symSize: 0x24 }
  - { offsetInCU: 0xBFD4, offset: 0x6E60A, size: 0x8, addend: 0x0, symName: __ZNSt3__110shared_ptrI12PinochleGameE27__create_with_control_blockB8ue170006IS1_NS_20__shared_ptr_emplaceIS1_NS_9allocatorIS1_EEEEEES2_PT_PT0_, symObjAddr: 0x1198, symBinAddr: 0x10002B414, symSize: 0xA4 }
  - { offsetInCU: 0xC029, offset: 0x6E65F, size: 0x8, addend: 0x0, symName: __ZNSt3__120__shared_ptr_emplaceI12PinochleGameNS_9allocatorIS1_EEE10__get_elemB8ue170006Ev, symObjAddr: 0x123C, symBinAddr: 0x10002B4B8, symSize: 0x28 }
  - { offsetInCU: 0xC04D, offset: 0x6E683, size: 0x8, addend: 0x0, symName: __ZNSt3__118__allocation_guardINS_9allocatorINS_20__shared_ptr_emplaceI12PinochleGameNS1_IS3_EEEEEEED1B8ue170006Ev, symObjAddr: 0x1264, symBinAddr: 0x10002B4E0, symSize: 0x2C }
  - { offsetInCU: 0xC075, offset: 0x6E6AB, size: 0x8, addend: 0x0, symName: __ZNSt3__118__allocation_guardINS_9allocatorINS_20__shared_ptr_emplaceI12PinochleGameNS1_IS3_EEEEEEEC2B8ue170006IS4_EET_m, symObjAddr: 0x1290, symBinAddr: 0x10002B50C, symSize: 0x50 }
  - { offsetInCU: 0xC0C2, offset: 0x6E6F8, size: 0x8, addend: 0x0, symName: __ZNSt3__19allocatorINS_20__shared_ptr_emplaceI12PinochleGameNS0_IS2_EEEEEC1B8ue170006IS2_EERKNS0_IT_EE, symObjAddr: 0x12E0, symBinAddr: 0x10002B55C, symSize: 0x34 }
  - { offsetInCU: 0xC0FD, offset: 0x6E733, size: 0x8, addend: 0x0, symName: __ZNSt3__116allocator_traitsINS_9allocatorINS_20__shared_ptr_emplaceI12PinochleGameNS1_IS3_EEEEEEE8allocateB8ue170006ERS6_m, symObjAddr: 0x1314, symBinAddr: 0x10002B590, symSize: 0x2C }
  - { offsetInCU: 0xC130, offset: 0x6E766, size: 0x8, addend: 0x0, symName: __ZNSt3__19allocatorINS_20__shared_ptr_emplaceI12PinochleGameNS0_IS2_EEEEEC2B8ue170006IS2_EERKNS0_IT_EE, symObjAddr: 0x1340, symBinAddr: 0x10002B5BC, symSize: 0x30 }
  - { offsetInCU: 0xC16B, offset: 0x6E7A1, size: 0x8, addend: 0x0, symName: __ZNSt3__116__non_trivial_ifILb1ENS_9allocatorINS_20__shared_ptr_emplaceI12PinochleGameNS1_IS3_EEEEEEEC2B8ue170006Ev, symObjAddr: 0x1370, symBinAddr: 0x10002B5EC, symSize: 0x14 }
  - { offsetInCU: 0xC193, offset: 0x6E7C9, size: 0x8, addend: 0x0, symName: __ZNSt3__19allocatorINS_20__shared_ptr_emplaceI12PinochleGameNS0_IS2_EEEEE8allocateB8ue170006Em, symObjAddr: 0x1384, symBinAddr: 0x10002B600, symSize: 0x5C }
  - { offsetInCU: 0xC1CF, offset: 0x6E805, size: 0x8, addend: 0x0, symName: __ZNSt3__116allocator_traitsINS_9allocatorINS_20__shared_ptr_emplaceI12PinochleGameNS1_IS3_EEEEEEE8max_sizeB8ue170006IS6_vEEmRKS6_, symObjAddr: 0x13E0, symBinAddr: 0x10002B65C, symSize: 0x24 }
  - { offsetInCU: 0xC1FD, offset: 0x6E833, size: 0x8, addend: 0x0, symName: __ZNKSt3__19allocatorINS_20__shared_ptr_emplaceI12PinochleGameNS0_IS2_EEEEE8max_sizeB8ue170006Ev, symObjAddr: 0x1498, symBinAddr: 0x10002B680, symSize: 0x20 }
  - { offsetInCU: 0xC221, offset: 0x6E857, size: 0x8, addend: 0x0, symName: __ZNSt3__120__shared_ptr_emplaceI12PinochleGameNS_9allocatorIS1_EEEC2B8ue170006IJRiRPPKcEEES3_DpOT_, symObjAddr: 0x1528, symBinAddr: 0x10002B6A0, symSize: 0xC8 }
  - { offsetInCU: 0xC286, offset: 0x6E8BC, size: 0x8, addend: 0x0, symName: __ZNSt3__119__shared_weak_countC2B8ue170006El, symObjAddr: 0x15F0, symBinAddr: 0x10002B768, symSize: 0x54 }
  - { offsetInCU: 0xC2BC, offset: 0x6E8F2, size: 0x8, addend: 0x0, symName: __ZNSt3__120__shared_ptr_emplaceI12PinochleGameNS_9allocatorIS1_EEE8_StorageC1B8ue170006EOS3_, symObjAddr: 0x1644, symBinAddr: 0x10002B7BC, symSize: 0x34 }
  - { offsetInCU: 0xC2F3, offset: 0x6E929, size: 0x8, addend: 0x0, symName: __ZNSt3__120__shared_ptr_emplaceI12PinochleGameNS_9allocatorIS1_EEE8_StorageD1B8ue170006Ev, symObjAddr: 0x1678, symBinAddr: 0x10002B7F0, symSize: 0x2C }
  - { offsetInCU: 0xC31B, offset: 0x6E951, size: 0x8, addend: 0x0, symName: __ZNSt3__120__shared_ptr_emplaceI12PinochleGameNS_9allocatorIS1_EEED1Ev, symObjAddr: 0x16A4, symBinAddr: 0x10002B81C, symSize: 0x2C }
  - { offsetInCU: 0xC347, offset: 0x6E97D, size: 0x8, addend: 0x0, symName: __ZNSt3__120__shared_ptr_emplaceI12PinochleGameNS_9allocatorIS1_EEED0Ev, symObjAddr: 0x16D0, symBinAddr: 0x10002B848, symSize: 0x30 }
  - { offsetInCU: 0xC373, offset: 0x6E9A9, size: 0x8, addend: 0x0, symName: __ZNSt3__120__shared_ptr_emplaceI12PinochleGameNS_9allocatorIS1_EEE16__on_zero_sharedEv, symObjAddr: 0x1700, symBinAddr: 0x10002B878, symSize: 0x30 }
  - { offsetInCU: 0xC397, offset: 0x6E9CD, size: 0x8, addend: 0x0, symName: __ZNSt3__120__shared_ptr_emplaceI12PinochleGameNS_9allocatorIS1_EEE21__on_zero_shared_weakEv, symObjAddr: 0x1730, symBinAddr: 0x10002B8A8, symSize: 0x5C }
  - { offsetInCU: 0xC3D6, offset: 0x6EA0C, size: 0x8, addend: 0x0, symName: __ZNSt3__114__shared_countC2B8ue170006El, symObjAddr: 0x178C, symBinAddr: 0x10002B904, symSize: 0x30 }
  - { offsetInCU: 0xC40C, offset: 0x6EA42, size: 0x8, addend: 0x0, symName: __ZNSt3__120__shared_ptr_emplaceI12PinochleGameNS_9allocatorIS1_EEE8_StorageC2B8ue170006EOS3_, symObjAddr: 0x17BC, symBinAddr: 0x10002B934, symSize: 0x30 }
  - { offsetInCU: 0xC443, offset: 0x6EA79, size: 0x8, addend: 0x0, symName: __ZNSt3__120__shared_ptr_emplaceI12PinochleGameNS_9allocatorIS1_EEE8_Storage11__get_allocB8ue170006Ev, symObjAddr: 0x17EC, symBinAddr: 0x10002B964, symSize: 0x3C }
  - { offsetInCU: 0xC494, offset: 0x6EACA, size: 0x8, addend: 0x0, symName: __ZNSt3__117__compressed_pairINS_9allocatorI12PinochleGameEES2_E16__get_first_baseB8ue170006EPS4_, symObjAddr: 0x1828, symBinAddr: 0x10002B9A0, symSize: 0x14 }
  - { offsetInCU: 0xC4B6, offset: 0x6EAEC, size: 0x8, addend: 0x0, symName: __ZNSt3__120__shared_ptr_emplaceI12PinochleGameNS_9allocatorIS1_EEE8_StorageD2B8ue170006Ev, symObjAddr: 0x183C, symBinAddr: 0x10002B9B4, symSize: 0x2C }
  - { offsetInCU: 0xC4DE, offset: 0x6EB14, size: 0x8, addend: 0x0, symName: __ZNSt3__120__shared_ptr_emplaceI12PinochleGameNS_9allocatorIS1_EEED2Ev, symObjAddr: 0x1868, symBinAddr: 0x10002B9E0, symSize: 0x48 }
  - { offsetInCU: 0xC50A, offset: 0x6EB40, size: 0x8, addend: 0x0, symName: __ZNSt3__120__shared_ptr_emplaceI12PinochleGameNS_9allocatorIS1_EEE11__get_allocB8ue170006Ev, symObjAddr: 0x18B0, symBinAddr: 0x10002BA28, symSize: 0x28 }
  - { offsetInCU: 0xC52E, offset: 0x6EB64, size: 0x8, addend: 0x0, symName: __ZNSt3__116allocator_traitsINS_9allocatorINS_20__shared_ptr_emplaceI12PinochleGameNS1_IS3_EEEEEEE10deallocateB8ue170006ERS6_PS5_m, symObjAddr: 0x18D8, symBinAddr: 0x10002BA50, symSize: 0x34 }
  - { offsetInCU: 0xC570, offset: 0x6EBA6, size: 0x8, addend: 0x0, symName: __ZNSt3__114pointer_traitsIPNS_20__shared_ptr_emplaceI12PinochleGameNS_9allocatorIS2_EEEEE10pointer_toB8ue170006ERS5_, symObjAddr: 0x190C, symBinAddr: 0x10002BA84, symSize: 0x14 }
  - { offsetInCU: 0xC592, offset: 0x6EBC8, size: 0x8, addend: 0x0, symName: __ZNSt3__19allocatorINS_20__shared_ptr_emplaceI12PinochleGameNS0_IS2_EEEEE10deallocateB8ue170006EPS4_m, symObjAddr: 0x1920, symBinAddr: 0x10002BA98, symSize: 0x44 }
  - { offsetInCU: 0xC5D2, offset: 0x6EC08, size: 0x8, addend: 0x0, symName: __ZNSt3__110shared_ptrI12PinochleGameEC1B8ue170006Ev, symObjAddr: 0x1A6C, symBinAddr: 0x10002BADC, symSize: 0x2C }
  - { offsetInCU: 0xC5FA, offset: 0x6EC30, size: 0x8, addend: 0x0, symName: __ZNSt3__110shared_ptrI12PinochleGameE18__enable_weak_thisB8ue170006Ez, symObjAddr: 0x1A98, symBinAddr: 0x10002BB08, symSize: 0x10 }
  - { offsetInCU: 0xC61F, offset: 0x6EC55, size: 0x8, addend: 0x0, symName: __ZNSt3__110shared_ptrI12PinochleGameEC2B8ue170006Ev, symObjAddr: 0x1AA8, symBinAddr: 0x10002BB18, symSize: 0x1C }
  - { offsetInCU: 0xC647, offset: 0x6EC7D, size: 0x8, addend: 0x0, symName: __ZNSt3__120__shared_ptr_emplaceI12PinochleGameNS_9allocatorIS1_EEE8_Storage10__get_elemB8ue170006Ev, symObjAddr: 0x1AC4, symBinAddr: 0x10002BB34, symSize: 0x3C }
  - { offsetInCU: 0xC698, offset: 0x6ECCE, size: 0x8, addend: 0x0, symName: __ZNSt3__117__compressed_pairINS_9allocatorI12PinochleGameEES2_E17__get_second_baseB8ue170006EPS4_, symObjAddr: 0x1B00, symBinAddr: 0x10002BB70, symSize: 0x14 }
  - { offsetInCU: 0xC6BA, offset: 0x6ECF0, size: 0x8, addend: 0x0, symName: __ZNSt3__118__allocation_guardINS_9allocatorINS_20__shared_ptr_emplaceI12PinochleGameNS1_IS3_EEEEEEED2B8ue170006Ev, symObjAddr: 0x1B14, symBinAddr: 0x10002BB84, symSize: 0x2C }
  - { offsetInCU: 0xC6E2, offset: 0x6ED18, size: 0x8, addend: 0x0, symName: __ZNSt3__118__allocation_guardINS_9allocatorINS_20__shared_ptr_emplaceI12PinochleGameNS1_IS3_EEEEEEE9__destroyB8ue170006Ev, symObjAddr: 0x1B40, symBinAddr: 0x10002BBB0, symSize: 0x4C }
  - { offsetInCU: 0xC706, offset: 0x6ED3C, size: 0x8, addend: 0x0, symName: __ZNSt3__19allocatorI12PinochleGameEC2B8ue170006Ev, symObjAddr: 0x1B8C, symBinAddr: 0x10002BBFC, symSize: 0x2C }
  - { offsetInCU: 0xC72E, offset: 0x6ED64, size: 0x8, addend: 0x0, symName: __ZNSt3__116__non_trivial_ifILb1ENS_9allocatorI12PinochleGameEEEC2B8ue170006Ev, symObjAddr: 0x1BB8, symBinAddr: 0x10002BC28, symSize: 0x14 }
  - { offsetInCU: 0xC756, offset: 0x6ED8C, size: 0x8, addend: 0x0, symName: __ZNSt3__110shared_ptrI12PinochleGameED2B8ue170006Ev, symObjAddr: 0x1BCC, symBinAddr: 0x10002BC3C, symSize: 0x54 }
  - { offsetInCU: 0xC77E, offset: 0x6EDB4, size: 0x8, addend: 0x0, symName: __ZNSt3__110shared_ptrI4GameEC1B8ue170006I12PinochleGamevEEONS0_IT_EE, symObjAddr: 0x1C20, symBinAddr: 0x10002BC90, symSize: 0x34 }
  - { offsetInCU: 0xC7BF, offset: 0x6EDF5, size: 0x8, addend: 0x0, symName: __ZNSt3__110shared_ptrI4GameE4swapB8ue170006ERS2_, symObjAddr: 0x1C54, symBinAddr: 0x10002BCC4, symSize: 0x44 }
  - { offsetInCU: 0xC7F2, offset: 0x6EE28, size: 0x8, addend: 0x0, symName: __ZNSt3__110shared_ptrI4GameEC2B8ue170006I12PinochleGamevEEONS0_IT_EE, symObjAddr: 0x1C98, symBinAddr: 0x10002BD08, symSize: 0x40 }
  - { offsetInCU: 0xC833, offset: 0x6EE69, size: 0x8, addend: 0x0, symName: __ZNSt3__19allocatorI10HoldEmGameEC1B8ue170006Ev, symObjAddr: 0x1DF0, symBinAddr: 0x10002BE60, symSize: 0x2C }
  - { offsetInCU: 0xC8A6, offset: 0x6EEDC, size: 0x8, addend: 0x0, symName: __ZNSt3__118__allocation_guardINS_9allocatorINS_20__shared_ptr_emplaceI10HoldEmGameNS1_IS3_EEEEEEEC1B8ue170006IS4_EET_m, symObjAddr: 0x1E1C, symBinAddr: 0x10002BE8C, symSize: 0x34 }
  - { offsetInCU: 0xC8F3, offset: 0x6EF29, size: 0x8, addend: 0x0, symName: __ZNKSt3__118__allocation_guardINS_9allocatorINS_20__shared_ptr_emplaceI10HoldEmGameNS1_IS3_EEEEEEE5__getB8ue170006Ev, symObjAddr: 0x1E50, symBinAddr: 0x10002BEC0, symSize: 0x18 }
  - { offsetInCU: 0xC917, offset: 0x6EF4D, size: 0x8, addend: 0x0, symName: __ZNSt3__120__shared_ptr_emplaceI10HoldEmGameNS_9allocatorIS1_EEEC1B8ue170006IJRiRPPKcEEES3_DpOT_, symObjAddr: 0x1E68, symBinAddr: 0x10002BED8, symSize: 0x3C }
  - { offsetInCU: 0xC97C, offset: 0x6EFB2, size: 0x8, addend: 0x0, symName: __ZNSt3__118__allocation_guardINS_9allocatorINS_20__shared_ptr_emplaceI10HoldEmGameNS1_IS3_EEEEEEE13__release_ptrB8ue170006Ev, symObjAddr: 0x1EA4, symBinAddr: 0x10002BF14, symSize: 0x24 }
  - { offsetInCU: 0xC9AF, offset: 0x6EFE5, size: 0x8, addend: 0x0, symName: __ZNSt3__110shared_ptrI10HoldEmGameE27__create_with_control_blockB8ue170006IS1_NS_20__shared_ptr_emplaceIS1_NS_9allocatorIS1_EEEEEES2_PT_PT0_, symObjAddr: 0x1EC8, symBinAddr: 0x10002BF38, symSize: 0xA4 }
  - { offsetInCU: 0xCA04, offset: 0x6F03A, size: 0x8, addend: 0x0, symName: __ZNSt3__120__shared_ptr_emplaceI10HoldEmGameNS_9allocatorIS1_EEE10__get_elemB8ue170006Ev, symObjAddr: 0x1F6C, symBinAddr: 0x10002BFDC, symSize: 0x28 }
  - { offsetInCU: 0xCA28, offset: 0x6F05E, size: 0x8, addend: 0x0, symName: __ZNSt3__118__allocation_guardINS_9allocatorINS_20__shared_ptr_emplaceI10HoldEmGameNS1_IS3_EEEEEEED1B8ue170006Ev, symObjAddr: 0x1F94, symBinAddr: 0x10002C004, symSize: 0x2C }
  - { offsetInCU: 0xCA50, offset: 0x6F086, size: 0x8, addend: 0x0, symName: __ZNSt3__118__allocation_guardINS_9allocatorINS_20__shared_ptr_emplaceI10HoldEmGameNS1_IS3_EEEEEEEC2B8ue170006IS4_EET_m, symObjAddr: 0x1FC0, symBinAddr: 0x10002C030, symSize: 0x50 }
  - { offsetInCU: 0xCA9D, offset: 0x6F0D3, size: 0x8, addend: 0x0, symName: __ZNSt3__19allocatorINS_20__shared_ptr_emplaceI10HoldEmGameNS0_IS2_EEEEEC1B8ue170006IS2_EERKNS0_IT_EE, symObjAddr: 0x2010, symBinAddr: 0x10002C080, symSize: 0x34 }
  - { offsetInCU: 0xCAD8, offset: 0x6F10E, size: 0x8, addend: 0x0, symName: __ZNSt3__116allocator_traitsINS_9allocatorINS_20__shared_ptr_emplaceI10HoldEmGameNS1_IS3_EEEEEEE8allocateB8ue170006ERS6_m, symObjAddr: 0x2044, symBinAddr: 0x10002C0B4, symSize: 0x2C }
  - { offsetInCU: 0xCB0B, offset: 0x6F141, size: 0x8, addend: 0x0, symName: __ZNSt3__19allocatorINS_20__shared_ptr_emplaceI10HoldEmGameNS0_IS2_EEEEEC2B8ue170006IS2_EERKNS0_IT_EE, symObjAddr: 0x2070, symBinAddr: 0x10002C0E0, symSize: 0x30 }
  - { offsetInCU: 0xCB46, offset: 0x6F17C, size: 0x8, addend: 0x0, symName: __ZNSt3__116__non_trivial_ifILb1ENS_9allocatorINS_20__shared_ptr_emplaceI10HoldEmGameNS1_IS3_EEEEEEEC2B8ue170006Ev, symObjAddr: 0x20A0, symBinAddr: 0x10002C110, symSize: 0x14 }
  - { offsetInCU: 0xCB6E, offset: 0x6F1A4, size: 0x8, addend: 0x0, symName: __ZNSt3__19allocatorINS_20__shared_ptr_emplaceI10HoldEmGameNS0_IS2_EEEEE8allocateB8ue170006Em, symObjAddr: 0x20B4, symBinAddr: 0x10002C124, symSize: 0x5C }
  - { offsetInCU: 0xCBAA, offset: 0x6F1E0, size: 0x8, addend: 0x0, symName: __ZNSt3__116allocator_traitsINS_9allocatorINS_20__shared_ptr_emplaceI10HoldEmGameNS1_IS3_EEEEEEE8max_sizeB8ue170006IS6_vEEmRKS6_, symObjAddr: 0x2110, symBinAddr: 0x10002C180, symSize: 0x24 }
  - { offsetInCU: 0xCBD8, offset: 0x6F20E, size: 0x8, addend: 0x0, symName: __ZNKSt3__19allocatorINS_20__shared_ptr_emplaceI10HoldEmGameNS0_IS2_EEEEE8max_sizeB8ue170006Ev, symObjAddr: 0x2134, symBinAddr: 0x10002C1A4, symSize: 0x20 }
  - { offsetInCU: 0xCBFC, offset: 0x6F232, size: 0x8, addend: 0x0, symName: __ZNSt3__120__shared_ptr_emplaceI10HoldEmGameNS_9allocatorIS1_EEEC2B8ue170006IJRiRPPKcEEES3_DpOT_, symObjAddr: 0x2154, symBinAddr: 0x10002C1C4, symSize: 0xC8 }
  - { offsetInCU: 0xCC61, offset: 0x6F297, size: 0x8, addend: 0x0, symName: __ZNSt3__120__shared_ptr_emplaceI10HoldEmGameNS_9allocatorIS1_EEE8_StorageC1B8ue170006EOS3_, symObjAddr: 0x221C, symBinAddr: 0x10002C28C, symSize: 0x34 }
  - { offsetInCU: 0xCC98, offset: 0x6F2CE, size: 0x8, addend: 0x0, symName: __ZNSt3__120__shared_ptr_emplaceI10HoldEmGameNS_9allocatorIS1_EEE8_StorageD1B8ue170006Ev, symObjAddr: 0x2250, symBinAddr: 0x10002C2C0, symSize: 0x2C }
  - { offsetInCU: 0xCCC0, offset: 0x6F2F6, size: 0x8, addend: 0x0, symName: __ZNSt3__120__shared_ptr_emplaceI10HoldEmGameNS_9allocatorIS1_EEED1Ev, symObjAddr: 0x227C, symBinAddr: 0x10002C2EC, symSize: 0x2C }
  - { offsetInCU: 0xCCEC, offset: 0x6F322, size: 0x8, addend: 0x0, symName: __ZNSt3__120__shared_ptr_emplaceI10HoldEmGameNS_9allocatorIS1_EEED0Ev, symObjAddr: 0x22A8, symBinAddr: 0x10002C318, symSize: 0x30 }
  - { offsetInCU: 0xCD18, offset: 0x6F34E, size: 0x8, addend: 0x0, symName: __ZNSt3__120__shared_ptr_emplaceI10HoldEmGameNS_9allocatorIS1_EEE16__on_zero_sharedEv, symObjAddr: 0x22D8, symBinAddr: 0x10002C348, symSize: 0x30 }
  - { offsetInCU: 0xCD3C, offset: 0x6F372, size: 0x8, addend: 0x0, symName: __ZNSt3__120__shared_ptr_emplaceI10HoldEmGameNS_9allocatorIS1_EEE21__on_zero_shared_weakEv, symObjAddr: 0x2308, symBinAddr: 0x10002C378, symSize: 0x5C }
  - { offsetInCU: 0xCD7B, offset: 0x6F3B1, size: 0x8, addend: 0x0, symName: __ZNSt3__120__shared_ptr_emplaceI10HoldEmGameNS_9allocatorIS1_EEE8_StorageC2B8ue170006EOS3_, symObjAddr: 0x2364, symBinAddr: 0x10002C3D4, symSize: 0x30 }
  - { offsetInCU: 0xCDB2, offset: 0x6F3E8, size: 0x8, addend: 0x0, symName: __ZNSt3__120__shared_ptr_emplaceI10HoldEmGameNS_9allocatorIS1_EEE8_Storage11__get_allocB8ue170006Ev, symObjAddr: 0x2394, symBinAddr: 0x10002C404, symSize: 0x3C }
  - { offsetInCU: 0xCE03, offset: 0x6F439, size: 0x8, addend: 0x0, symName: __ZNSt3__117__compressed_pairINS_9allocatorI10HoldEmGameEES2_E16__get_first_baseB8ue170006EPS4_, symObjAddr: 0x23D0, symBinAddr: 0x10002C440, symSize: 0x14 }
  - { offsetInCU: 0xCE25, offset: 0x6F45B, size: 0x8, addend: 0x0, symName: __ZNSt3__120__shared_ptr_emplaceI10HoldEmGameNS_9allocatorIS1_EEE8_StorageD2B8ue170006Ev, symObjAddr: 0x23E4, symBinAddr: 0x10002C454, symSize: 0x2C }
  - { offsetInCU: 0xCE4D, offset: 0x6F483, size: 0x8, addend: 0x0, symName: __ZNSt3__120__shared_ptr_emplaceI10HoldEmGameNS_9allocatorIS1_EEED2Ev, symObjAddr: 0x2410, symBinAddr: 0x10002C480, symSize: 0x48 }
  - { offsetInCU: 0xCE79, offset: 0x6F4AF, size: 0x8, addend: 0x0, symName: __ZNSt3__120__shared_ptr_emplaceI10HoldEmGameNS_9allocatorIS1_EEE11__get_allocB8ue170006Ev, symObjAddr: 0x2458, symBinAddr: 0x10002C4C8, symSize: 0x28 }
  - { offsetInCU: 0xCE9D, offset: 0x6F4D3, size: 0x8, addend: 0x0, symName: __ZNSt3__116allocator_traitsINS_9allocatorINS_20__shared_ptr_emplaceI10HoldEmGameNS1_IS3_EEEEEEE10deallocateB8ue170006ERS6_PS5_m, symObjAddr: 0x2480, symBinAddr: 0x10002C4F0, symSize: 0x34 }
  - { offsetInCU: 0xCEDF, offset: 0x6F515, size: 0x8, addend: 0x0, symName: __ZNSt3__114pointer_traitsIPNS_20__shared_ptr_emplaceI10HoldEmGameNS_9allocatorIS2_EEEEE10pointer_toB8ue170006ERS5_, symObjAddr: 0x24B4, symBinAddr: 0x10002C524, symSize: 0x14 }
  - { offsetInCU: 0xCF01, offset: 0x6F537, size: 0x8, addend: 0x0, symName: __ZNSt3__19allocatorINS_20__shared_ptr_emplaceI10HoldEmGameNS0_IS2_EEEEE10deallocateB8ue170006EPS4_m, symObjAddr: 0x24C8, symBinAddr: 0x10002C538, symSize: 0x44 }
  - { offsetInCU: 0xCF41, offset: 0x6F577, size: 0x8, addend: 0x0, symName: __ZNSt3__110shared_ptrI10HoldEmGameEC1B8ue170006Ev, symObjAddr: 0x250C, symBinAddr: 0x10002C57C, symSize: 0x2C }
  - { offsetInCU: 0xCF69, offset: 0x6F59F, size: 0x8, addend: 0x0, symName: __ZNSt3__110shared_ptrI10HoldEmGameE18__enable_weak_thisB8ue170006Ez, symObjAddr: 0x2538, symBinAddr: 0x10002C5A8, symSize: 0x10 }
  - { offsetInCU: 0xCF8E, offset: 0x6F5C4, size: 0x8, addend: 0x0, symName: __ZNSt3__110shared_ptrI10HoldEmGameEC2B8ue170006Ev, symObjAddr: 0x2548, symBinAddr: 0x10002C5B8, symSize: 0x1C }
  - { offsetInCU: 0xCFB6, offset: 0x6F5EC, size: 0x8, addend: 0x0, symName: __ZNSt3__120__shared_ptr_emplaceI10HoldEmGameNS_9allocatorIS1_EEE8_Storage10__get_elemB8ue170006Ev, symObjAddr: 0x2564, symBinAddr: 0x10002C5D4, symSize: 0x3C }
  - { offsetInCU: 0xD007, offset: 0x6F63D, size: 0x8, addend: 0x0, symName: __ZNSt3__117__compressed_pairINS_9allocatorI10HoldEmGameEES2_E17__get_second_baseB8ue170006EPS4_, symObjAddr: 0x25A0, symBinAddr: 0x10002C610, symSize: 0x14 }
  - { offsetInCU: 0xD029, offset: 0x6F65F, size: 0x8, addend: 0x0, symName: __ZNSt3__118__allocation_guardINS_9allocatorINS_20__shared_ptr_emplaceI10HoldEmGameNS1_IS3_EEEEEEED2B8ue170006Ev, symObjAddr: 0x25B4, symBinAddr: 0x10002C624, symSize: 0x2C }
  - { offsetInCU: 0xD051, offset: 0x6F687, size: 0x8, addend: 0x0, symName: __ZNSt3__118__allocation_guardINS_9allocatorINS_20__shared_ptr_emplaceI10HoldEmGameNS1_IS3_EEEEEEE9__destroyB8ue170006Ev, symObjAddr: 0x25E0, symBinAddr: 0x10002C650, symSize: 0x4C }
  - { offsetInCU: 0xD075, offset: 0x6F6AB, size: 0x8, addend: 0x0, symName: __ZNSt3__19allocatorI10HoldEmGameEC2B8ue170006Ev, symObjAddr: 0x262C, symBinAddr: 0x10002C69C, symSize: 0x2C }
  - { offsetInCU: 0xD09D, offset: 0x6F6D3, size: 0x8, addend: 0x0, symName: __ZNSt3__116__non_trivial_ifILb1ENS_9allocatorI10HoldEmGameEEEC2B8ue170006Ev, symObjAddr: 0x2658, symBinAddr: 0x10002C6C8, symSize: 0x14 }
  - { offsetInCU: 0xD0C5, offset: 0x6F6FB, size: 0x8, addend: 0x0, symName: __ZNSt3__110shared_ptrI10HoldEmGameED2B8ue170006Ev, symObjAddr: 0x266C, symBinAddr: 0x10002C6DC, symSize: 0x54 }
  - { offsetInCU: 0xD0ED, offset: 0x6F723, size: 0x8, addend: 0x0, symName: __ZNSt3__110shared_ptrI4GameEC1B8ue170006I10HoldEmGamevEEONS0_IT_EE, symObjAddr: 0x26C0, symBinAddr: 0x10002C730, symSize: 0x34 }
  - { offsetInCU: 0xD12E, offset: 0x6F764, size: 0x8, addend: 0x0, symName: __ZNSt3__110shared_ptrI4GameEC2B8ue170006I10HoldEmGamevEEONS0_IT_EE, symObjAddr: 0x26F4, symBinAddr: 0x10002C764, symSize: 0x40 }
  - { offsetInCU: 0xD18D, offset: 0x6F7C3, size: 0x8, addend: 0x0, symName: __ZNSt3__110shared_ptrI4GameEC1B8ue170006EOS2_, symObjAddr: 0x308C, symBinAddr: 0x10002C7A4, symSize: 0x34 }
  - { offsetInCU: 0xD1C4, offset: 0x6F7FA, size: 0x8, addend: 0x0, symName: __ZNSt3__110shared_ptrI4GameEC2B8ue170006EOS2_, symObjAddr: 0x30C0, symBinAddr: 0x10002C7D8, symSize: 0x40 }
  - { offsetInCU: 0xD1FB, offset: 0x6F831, size: 0x8, addend: 0x0, symName: __ZNKSt3__110shared_ptrI4GameE3getB8ue170006Ev, symObjAddr: 0x31F4, symBinAddr: 0x10002C818, symSize: 0x18 }
...
